                              1 ;--------------------------------------------------------
                              2 ; File Created by SDCC : free open source ANSI-C Compiler
                              3 ; Version 2.9.0 #5416 (Feb  3 2010) (UNIX)
                              4 ; This file was generated Sat Aug  3 02:25:29 2013
                              5 ;--------------------------------------------------------
                              6 	.module main
                              7 	.optsdcc -mmcs51 --model-small
                              8 	
                              9 ;--------------------------------------------------------
                             10 ; Public variables in this module
                             11 ;--------------------------------------------------------
                             12 	.globl _main
                             13 	.globl _CY
                             14 	.globl _AC
                             15 	.globl _F0
                             16 	.globl _RS1
                             17 	.globl _RS0
                             18 	.globl _OV
                             19 	.globl _F1
                             20 	.globl _P
                             21 	.globl _PS
                             22 	.globl _PT1
                             23 	.globl _PX1
                             24 	.globl _PT0
                             25 	.globl _PX0
                             26 	.globl _RD
                             27 	.globl _WR
                             28 	.globl _T1
                             29 	.globl _T0
                             30 	.globl _INT1
                             31 	.globl _INT0
                             32 	.globl _TXD
                             33 	.globl _RXD
                             34 	.globl _P3_7
                             35 	.globl _P3_6
                             36 	.globl _P3_5
                             37 	.globl _P3_4
                             38 	.globl _P3_3
                             39 	.globl _P3_2
                             40 	.globl _P3_1
                             41 	.globl _P3_0
                             42 	.globl _EA
                             43 	.globl _ES
                             44 	.globl _ET1
                             45 	.globl _EX1
                             46 	.globl _ET0
                             47 	.globl _EX0
                             48 	.globl _P2_7
                             49 	.globl _P2_6
                             50 	.globl _P2_5
                             51 	.globl _P2_4
                             52 	.globl _P2_3
                             53 	.globl _P2_2
                             54 	.globl _P2_1
                             55 	.globl _P2_0
                             56 	.globl _SM0
                             57 	.globl _SM1
                             58 	.globl _SM2
                             59 	.globl _REN
                             60 	.globl _TB8
                             61 	.globl _RB8
                             62 	.globl _TI
                             63 	.globl _RI
                             64 	.globl _P1_7
                             65 	.globl _P1_6
                             66 	.globl _P1_5
                             67 	.globl _P1_4
                             68 	.globl _P1_3
                             69 	.globl _P1_2
                             70 	.globl _P1_1
                             71 	.globl _P1_0
                             72 	.globl _TF1
                             73 	.globl _TR1
                             74 	.globl _TF0
                             75 	.globl _TR0
                             76 	.globl _IE1
                             77 	.globl _IT1
                             78 	.globl _IE0
                             79 	.globl _IT0
                             80 	.globl _P0_7
                             81 	.globl _P0_6
                             82 	.globl _P0_5
                             83 	.globl _P0_4
                             84 	.globl _P0_3
                             85 	.globl _P0_2
                             86 	.globl _P0_1
                             87 	.globl _P0_0
                             88 	.globl _B
                             89 	.globl _ACC
                             90 	.globl _PSW
                             91 	.globl _IP
                             92 	.globl _P3
                             93 	.globl _IE
                             94 	.globl _P2
                             95 	.globl _SBUF
                             96 	.globl _SCON
                             97 	.globl _P1
                             98 	.globl _TH1
                             99 	.globl _TH0
                            100 	.globl _TL1
                            101 	.globl _TL0
                            102 	.globl _TMOD
                            103 	.globl _TCON
                            104 	.globl _PCON
                            105 	.globl _DPH
                            106 	.globl _DPL
                            107 	.globl _SP
                            108 	.globl _P0
                            109 	.globl _r2modm
                            110 	.globl _rmodm
                            111 	.globl _privateKey
                            112 	.globl _publicKey
                            113 	.globl _message
                            114 	.globl _modulus
                            115 	.globl _decryptedMessage
                            116 	.globl _encryptedMessage
                            117 	.globl _montModExp_PARM_6
                            118 	.globl _montModExp_PARM_5
                            119 	.globl _montModExp_PARM_4
                            120 	.globl _montModExp_PARM_3
                            121 	.globl _montModExp_PARM_2
                            122 	.globl _montModExp
                            123 ;--------------------------------------------------------
                            124 ; special function registers
                            125 ;--------------------------------------------------------
                            126 	.area RSEG    (DATA)
                    0080    127 _P0	=	0x0080
                    0081    128 _SP	=	0x0081
                    0082    129 _DPL	=	0x0082
                    0083    130 _DPH	=	0x0083
                    0087    131 _PCON	=	0x0087
                    0088    132 _TCON	=	0x0088
                    0089    133 _TMOD	=	0x0089
                    008A    134 _TL0	=	0x008a
                    008B    135 _TL1	=	0x008b
                    008C    136 _TH0	=	0x008c
                    008D    137 _TH1	=	0x008d
                    0090    138 _P1	=	0x0090
                    0098    139 _SCON	=	0x0098
                    0099    140 _SBUF	=	0x0099
                    00A0    141 _P2	=	0x00a0
                    00A8    142 _IE	=	0x00a8
                    00B0    143 _P3	=	0x00b0
                    00B8    144 _IP	=	0x00b8
                    00D0    145 _PSW	=	0x00d0
                    00E0    146 _ACC	=	0x00e0
                    00F0    147 _B	=	0x00f0
                            148 ;--------------------------------------------------------
                            149 ; special function bits
                            150 ;--------------------------------------------------------
                            151 	.area RSEG    (DATA)
                    0080    152 _P0_0	=	0x0080
                    0081    153 _P0_1	=	0x0081
                    0082    154 _P0_2	=	0x0082
                    0083    155 _P0_3	=	0x0083
                    0084    156 _P0_4	=	0x0084
                    0085    157 _P0_5	=	0x0085
                    0086    158 _P0_6	=	0x0086
                    0087    159 _P0_7	=	0x0087
                    0088    160 _IT0	=	0x0088
                    0089    161 _IE0	=	0x0089
                    008A    162 _IT1	=	0x008a
                    008B    163 _IE1	=	0x008b
                    008C    164 _TR0	=	0x008c
                    008D    165 _TF0	=	0x008d
                    008E    166 _TR1	=	0x008e
                    008F    167 _TF1	=	0x008f
                    0090    168 _P1_0	=	0x0090
                    0091    169 _P1_1	=	0x0091
                    0092    170 _P1_2	=	0x0092
                    0093    171 _P1_3	=	0x0093
                    0094    172 _P1_4	=	0x0094
                    0095    173 _P1_5	=	0x0095
                    0096    174 _P1_6	=	0x0096
                    0097    175 _P1_7	=	0x0097
                    0098    176 _RI	=	0x0098
                    0099    177 _TI	=	0x0099
                    009A    178 _RB8	=	0x009a
                    009B    179 _TB8	=	0x009b
                    009C    180 _REN	=	0x009c
                    009D    181 _SM2	=	0x009d
                    009E    182 _SM1	=	0x009e
                    009F    183 _SM0	=	0x009f
                    00A0    184 _P2_0	=	0x00a0
                    00A1    185 _P2_1	=	0x00a1
                    00A2    186 _P2_2	=	0x00a2
                    00A3    187 _P2_3	=	0x00a3
                    00A4    188 _P2_4	=	0x00a4
                    00A5    189 _P2_5	=	0x00a5
                    00A6    190 _P2_6	=	0x00a6
                    00A7    191 _P2_7	=	0x00a7
                    00A8    192 _EX0	=	0x00a8
                    00A9    193 _ET0	=	0x00a9
                    00AA    194 _EX1	=	0x00aa
                    00AB    195 _ET1	=	0x00ab
                    00AC    196 _ES	=	0x00ac
                    00AF    197 _EA	=	0x00af
                    00B0    198 _P3_0	=	0x00b0
                    00B1    199 _P3_1	=	0x00b1
                    00B2    200 _P3_2	=	0x00b2
                    00B3    201 _P3_3	=	0x00b3
                    00B4    202 _P3_4	=	0x00b4
                    00B5    203 _P3_5	=	0x00b5
                    00B6    204 _P3_6	=	0x00b6
                    00B7    205 _P3_7	=	0x00b7
                    00B0    206 _RXD	=	0x00b0
                    00B1    207 _TXD	=	0x00b1
                    00B2    208 _INT0	=	0x00b2
                    00B3    209 _INT1	=	0x00b3
                    00B4    210 _T0	=	0x00b4
                    00B5    211 _T1	=	0x00b5
                    00B6    212 _WR	=	0x00b6
                    00B7    213 _RD	=	0x00b7
                    00B8    214 _PX0	=	0x00b8
                    00B9    215 _PT0	=	0x00b9
                    00BA    216 _PX1	=	0x00ba
                    00BB    217 _PT1	=	0x00bb
                    00BC    218 _PS	=	0x00bc
                    00D0    219 _P	=	0x00d0
                    00D1    220 _F1	=	0x00d1
                    00D2    221 _OV	=	0x00d2
                    00D3    222 _RS0	=	0x00d3
                    00D4    223 _RS1	=	0x00d4
                    00D5    224 _F0	=	0x00d5
                    00D6    225 _AC	=	0x00d6
                    00D7    226 _CY	=	0x00d7
                            227 ;--------------------------------------------------------
                            228 ; overlayable register banks
                            229 ;--------------------------------------------------------
                            230 	.area REG_BANK_0	(REL,OVR,DATA)
   0000                     231 	.ds 8
                            232 ;--------------------------------------------------------
                            233 ; internal ram data
                            234 ;--------------------------------------------------------
                            235 	.area DSEG    (DATA)
   0008                     236 _montModExp_PARM_2:
   0008                     237 	.ds 1
   0009                     238 _montModExp_PARM_3:
   0009                     239 	.ds 3
   000C                     240 _montModExp_PARM_4:
   000C                     241 	.ds 1
   000D                     242 _montModExp_PARM_5:
   000D                     243 	.ds 1
   000E                     244 _montModExp_PARM_6:
   000E                     245 	.ds 1
   000F                     246 _montModExp_r_1_1:
   000F                     247 	.ds 1
   0010                     248 _montModExp_i_1_1:
   0010                     249 	.ds 1
   0011                     250 _montModExp_t_1_1:
   0011                     251 	.ds 2
                            252 ;--------------------------------------------------------
                            253 ; overlayable items in internal ram 
                            254 ;--------------------------------------------------------
                            255 	.area	OSEG    (OVR,DATA)
                            256 	.area	OSEG    (OVR,DATA)
                            257 	.area	OSEG    (OVR,DATA)
                            258 	.area	OSEG    (OVR,DATA)
                            259 	.area	OSEG    (OVR,DATA)
                            260 ;--------------------------------------------------------
                            261 ; Stack segment in internal ram 
                            262 ;--------------------------------------------------------
                            263 	.area	SSEG	(DATA)
   0013                     264 __start__stack:
   0013                     265 	.ds	1
                            266 
                            267 ;--------------------------------------------------------
                            268 ; indirectly addressable internal ram data
                            269 ;--------------------------------------------------------
                            270 	.area ISEG    (DATA)
                            271 ;--------------------------------------------------------
                            272 ; absolute internal ram data
                            273 ;--------------------------------------------------------
                            274 	.area IABS    (ABS,DATA)
                            275 	.area IABS    (ABS,DATA)
                            276 ;--------------------------------------------------------
                            277 ; bit data
                            278 ;--------------------------------------------------------
                            279 	.area BSEG    (BIT)
                            280 ;--------------------------------------------------------
                            281 ; paged external ram data
                            282 ;--------------------------------------------------------
                            283 	.area PSEG    (PAG,XDATA)
                            284 ;--------------------------------------------------------
                            285 ; external ram data
                            286 ;--------------------------------------------------------
                            287 	.area XSEG    (XDATA)
                    2000    288 _encryptedMessage	=	0x2000
                    2100    289 _decryptedMessage	=	0x2100
                    0000    290 _montModExp_one_1_1	=	0x0000
                            291 ;--------------------------------------------------------
                            292 ; absolute external ram data
                            293 ;--------------------------------------------------------
                            294 	.area XABS    (ABS,XDATA)
   1000                     295 	.org 0x1000
   1000                     296 _modulus::
   1000                     297 	.ds 128
   1100                     298 	.org 0x1100
   1100                     299 _message::
   1100                     300 	.ds 128
   1200                     301 	.org 0x1200
   1200                     302 _publicKey::
   1200                     303 	.ds 128
   1300                     304 	.org 0x1300
   1300                     305 _privateKey::
   1300                     306 	.ds 128
   1400                     307 	.org 0x1400
   1400                     308 _rmodm::
   1400                     309 	.ds 128
   1500                     310 	.org 0x1500
   1500                     311 _r2modm::
   1500                     312 	.ds 128
                            313 ;--------------------------------------------------------
                            314 ; external initialized ram data
                            315 ;--------------------------------------------------------
                            316 	.area XISEG   (XDATA)
                            317 	.area HOME    (CODE)
                            318 	.area GSINIT0 (CODE)
                            319 	.area GSINIT1 (CODE)
                            320 	.area GSINIT2 (CODE)
                            321 	.area GSINIT3 (CODE)
                            322 	.area GSINIT4 (CODE)
                            323 	.area GSINIT5 (CODE)
                            324 	.area GSINIT  (CODE)
                            325 	.area GSFINAL (CODE)
                            326 	.area CSEG    (CODE)
                            327 ;--------------------------------------------------------
                            328 ; interrupt vector 
                            329 ;--------------------------------------------------------
                            330 	.area HOME    (CODE)
   0000                     331 __interrupt_vect:
   0000 02 00 08            332 	ljmp	__sdcc_gsinit_startup
                            333 ;--------------------------------------------------------
                            334 ; global & static initialisations
                            335 ;--------------------------------------------------------
                            336 	.area HOME    (CODE)
                            337 	.area GSINIT  (CODE)
                            338 	.area GSFINAL (CODE)
                            339 	.area GSINIT  (CODE)
                            340 	.globl __sdcc_gsinit_startup
                            341 	.globl __sdcc_program_startup
                            342 	.globl __start__stack
                            343 	.globl __mcs51_genXINIT
                            344 	.globl __mcs51_genXRAMCLEAR
                            345 	.globl __mcs51_genRAMCLEAR
                            346 ;	main.c:23: volatile __xdata __at (0x1000) unsigned char modulus[SIZE] = {0x6B, 0xF3, 0x61, 0x86, 0x13, 0x2C, 0xF5, 0x1B, 0xCA, 0x94, 0x9F, 0x12, 0xDA, 0xDA, 0xCC, 0x26, 0xD9, 0x73, 0x2E, 0x66, 0x11, 0x63, 0xEE, 0x72, 0x43, 0x40, 0x97, 0x55, 0x4C, 0x06, 0x20, 0x23, 0x7F, 0x47, 0xD7, 0x9F, 0xD4, 0xDE, 0xFC, 0x76, 0x10, 0xD3, 0x19, 0x6C, 0x90, 0x44, 0x58, 0xA9, 0xD7, 0x4A, 0x66, 0x28, 0x96, 0x24, 0x94, 0xF6, 0x08, 0xF4, 0x7B, 0x1A, 0x4D, 0x07, 0x86, 0x3B, 0x2A, 0x84, 0xF9, 0xBA, 0x4A, 0xDD, 0x3D, 0xD7, 0x07, 0x85, 0xC6, 0x67, 0x18, 0x5B, 0xAB, 0xBA, 0x5D, 0xF2, 0x35, 0x4E, 0xC4, 0x61, 0xA6, 0x06, 0x04, 0x55, 0xCF, 0x68, 0x92, 0x64, 0xDB, 0x90, 0x8B, 0xCF, 0x58, 0x50, 0x00, 0x7B, 0xD3, 0xB6, 0xE4, 0xCF, 0x60, 0x4A, 0x69, 0xC2, 0x70, 0x3D, 0x0F, 0xC4, 0x03, 0x2B, 0x4D, 0x87, 0xFA, 0x2C, 0x34, 0x7F, 0x77, 0x7A, 0x6A, 0x85, 0x48, 0x9B};
   0061 90 10 00            347 	mov	dptr,#_modulus
   0064 74 6B               348 	mov	a,#0x6B
   0066 F0                  349 	movx	@dptr,a
   0067 90 10 01            350 	mov	dptr,#(_modulus + 0x0001)
   006A 74 F3               351 	mov	a,#0xF3
   006C F0                  352 	movx	@dptr,a
   006D 90 10 02            353 	mov	dptr,#(_modulus + 0x0002)
   0070 74 61               354 	mov	a,#0x61
   0072 F0                  355 	movx	@dptr,a
   0073 90 10 03            356 	mov	dptr,#(_modulus + 0x0003)
   0076 74 86               357 	mov	a,#0x86
   0078 F0                  358 	movx	@dptr,a
   0079 90 10 04            359 	mov	dptr,#(_modulus + 0x0004)
   007C 74 13               360 	mov	a,#0x13
   007E F0                  361 	movx	@dptr,a
   007F 90 10 05            362 	mov	dptr,#(_modulus + 0x0005)
   0082 74 2C               363 	mov	a,#0x2C
   0084 F0                  364 	movx	@dptr,a
   0085 90 10 06            365 	mov	dptr,#(_modulus + 0x0006)
   0088 74 F5               366 	mov	a,#0xF5
   008A F0                  367 	movx	@dptr,a
   008B 90 10 07            368 	mov	dptr,#(_modulus + 0x0007)
   008E 74 1B               369 	mov	a,#0x1B
   0090 F0                  370 	movx	@dptr,a
   0091 90 10 08            371 	mov	dptr,#(_modulus + 0x0008)
   0094 74 CA               372 	mov	a,#0xCA
   0096 F0                  373 	movx	@dptr,a
   0097 90 10 09            374 	mov	dptr,#(_modulus + 0x0009)
   009A 74 94               375 	mov	a,#0x94
   009C F0                  376 	movx	@dptr,a
   009D 90 10 0A            377 	mov	dptr,#(_modulus + 0x000a)
   00A0 74 9F               378 	mov	a,#0x9F
   00A2 F0                  379 	movx	@dptr,a
   00A3 90 10 0B            380 	mov	dptr,#(_modulus + 0x000b)
   00A6 74 12               381 	mov	a,#0x12
   00A8 F0                  382 	movx	@dptr,a
   00A9 90 10 0C            383 	mov	dptr,#(_modulus + 0x000c)
   00AC 74 DA               384 	mov	a,#0xDA
   00AE F0                  385 	movx	@dptr,a
   00AF 90 10 0D            386 	mov	dptr,#(_modulus + 0x000d)
   00B2 74 DA               387 	mov	a,#0xDA
   00B4 F0                  388 	movx	@dptr,a
   00B5 90 10 0E            389 	mov	dptr,#(_modulus + 0x000e)
   00B8 74 CC               390 	mov	a,#0xCC
   00BA F0                  391 	movx	@dptr,a
   00BB 90 10 0F            392 	mov	dptr,#(_modulus + 0x000f)
   00BE 74 26               393 	mov	a,#0x26
   00C0 F0                  394 	movx	@dptr,a
   00C1 90 10 10            395 	mov	dptr,#(_modulus + 0x0010)
   00C4 74 D9               396 	mov	a,#0xD9
   00C6 F0                  397 	movx	@dptr,a
   00C7 90 10 11            398 	mov	dptr,#(_modulus + 0x0011)
   00CA 74 73               399 	mov	a,#0x73
   00CC F0                  400 	movx	@dptr,a
   00CD 90 10 12            401 	mov	dptr,#(_modulus + 0x0012)
   00D0 74 2E               402 	mov	a,#0x2E
   00D2 F0                  403 	movx	@dptr,a
   00D3 90 10 13            404 	mov	dptr,#(_modulus + 0x0013)
   00D6 74 66               405 	mov	a,#0x66
   00D8 F0                  406 	movx	@dptr,a
   00D9 90 10 14            407 	mov	dptr,#(_modulus + 0x0014)
   00DC 74 11               408 	mov	a,#0x11
   00DE F0                  409 	movx	@dptr,a
   00DF 90 10 15            410 	mov	dptr,#(_modulus + 0x0015)
   00E2 74 63               411 	mov	a,#0x63
   00E4 F0                  412 	movx	@dptr,a
   00E5 90 10 16            413 	mov	dptr,#(_modulus + 0x0016)
   00E8 74 EE               414 	mov	a,#0xEE
   00EA F0                  415 	movx	@dptr,a
   00EB 90 10 17            416 	mov	dptr,#(_modulus + 0x0017)
   00EE 74 72               417 	mov	a,#0x72
   00F0 F0                  418 	movx	@dptr,a
   00F1 90 10 18            419 	mov	dptr,#(_modulus + 0x0018)
   00F4 74 43               420 	mov	a,#0x43
   00F6 F0                  421 	movx	@dptr,a
   00F7 90 10 19            422 	mov	dptr,#(_modulus + 0x0019)
   00FA 74 40               423 	mov	a,#0x40
   00FC F0                  424 	movx	@dptr,a
   00FD 90 10 1A            425 	mov	dptr,#(_modulus + 0x001a)
   0100 74 97               426 	mov	a,#0x97
   0102 F0                  427 	movx	@dptr,a
   0103 90 10 1B            428 	mov	dptr,#(_modulus + 0x001b)
   0106 74 55               429 	mov	a,#0x55
   0108 F0                  430 	movx	@dptr,a
   0109 90 10 1C            431 	mov	dptr,#(_modulus + 0x001c)
   010C 74 4C               432 	mov	a,#0x4C
   010E F0                  433 	movx	@dptr,a
   010F 90 10 1D            434 	mov	dptr,#(_modulus + 0x001d)
   0112 74 06               435 	mov	a,#0x06
   0114 F0                  436 	movx	@dptr,a
   0115 90 10 1E            437 	mov	dptr,#(_modulus + 0x001e)
   0118 74 20               438 	mov	a,#0x20
   011A F0                  439 	movx	@dptr,a
   011B 90 10 1F            440 	mov	dptr,#(_modulus + 0x001f)
   011E 74 23               441 	mov	a,#0x23
   0120 F0                  442 	movx	@dptr,a
   0121 90 10 20            443 	mov	dptr,#(_modulus + 0x0020)
   0124 74 7F               444 	mov	a,#0x7F
   0126 F0                  445 	movx	@dptr,a
   0127 90 10 21            446 	mov	dptr,#(_modulus + 0x0021)
   012A 74 47               447 	mov	a,#0x47
   012C F0                  448 	movx	@dptr,a
   012D 90 10 22            449 	mov	dptr,#(_modulus + 0x0022)
   0130 74 D7               450 	mov	a,#0xD7
   0132 F0                  451 	movx	@dptr,a
   0133 90 10 23            452 	mov	dptr,#(_modulus + 0x0023)
   0136 74 9F               453 	mov	a,#0x9F
   0138 F0                  454 	movx	@dptr,a
   0139 90 10 24            455 	mov	dptr,#(_modulus + 0x0024)
   013C 74 D4               456 	mov	a,#0xD4
   013E F0                  457 	movx	@dptr,a
   013F 90 10 25            458 	mov	dptr,#(_modulus + 0x0025)
   0142 74 DE               459 	mov	a,#0xDE
   0144 F0                  460 	movx	@dptr,a
   0145 90 10 26            461 	mov	dptr,#(_modulus + 0x0026)
   0148 74 FC               462 	mov	a,#0xFC
   014A F0                  463 	movx	@dptr,a
   014B 90 10 27            464 	mov	dptr,#(_modulus + 0x0027)
   014E 74 76               465 	mov	a,#0x76
   0150 F0                  466 	movx	@dptr,a
   0151 90 10 28            467 	mov	dptr,#(_modulus + 0x0028)
   0154 74 10               468 	mov	a,#0x10
   0156 F0                  469 	movx	@dptr,a
   0157 90 10 29            470 	mov	dptr,#(_modulus + 0x0029)
   015A 74 D3               471 	mov	a,#0xD3
   015C F0                  472 	movx	@dptr,a
   015D 90 10 2A            473 	mov	dptr,#(_modulus + 0x002a)
   0160 74 19               474 	mov	a,#0x19
   0162 F0                  475 	movx	@dptr,a
   0163 90 10 2B            476 	mov	dptr,#(_modulus + 0x002b)
   0166 74 6C               477 	mov	a,#0x6C
   0168 F0                  478 	movx	@dptr,a
   0169 90 10 2C            479 	mov	dptr,#(_modulus + 0x002c)
   016C 74 90               480 	mov	a,#0x90
   016E F0                  481 	movx	@dptr,a
   016F 90 10 2D            482 	mov	dptr,#(_modulus + 0x002d)
   0172 74 44               483 	mov	a,#0x44
   0174 F0                  484 	movx	@dptr,a
   0175 90 10 2E            485 	mov	dptr,#(_modulus + 0x002e)
   0178 74 58               486 	mov	a,#0x58
   017A F0                  487 	movx	@dptr,a
   017B 90 10 2F            488 	mov	dptr,#(_modulus + 0x002f)
   017E 74 A9               489 	mov	a,#0xA9
   0180 F0                  490 	movx	@dptr,a
   0181 90 10 30            491 	mov	dptr,#(_modulus + 0x0030)
   0184 74 D7               492 	mov	a,#0xD7
   0186 F0                  493 	movx	@dptr,a
   0187 90 10 31            494 	mov	dptr,#(_modulus + 0x0031)
   018A 74 4A               495 	mov	a,#0x4A
   018C F0                  496 	movx	@dptr,a
   018D 90 10 32            497 	mov	dptr,#(_modulus + 0x0032)
   0190 74 66               498 	mov	a,#0x66
   0192 F0                  499 	movx	@dptr,a
   0193 90 10 33            500 	mov	dptr,#(_modulus + 0x0033)
   0196 74 28               501 	mov	a,#0x28
   0198 F0                  502 	movx	@dptr,a
   0199 90 10 34            503 	mov	dptr,#(_modulus + 0x0034)
   019C 74 96               504 	mov	a,#0x96
   019E F0                  505 	movx	@dptr,a
   019F 90 10 35            506 	mov	dptr,#(_modulus + 0x0035)
   01A2 74 24               507 	mov	a,#0x24
   01A4 F0                  508 	movx	@dptr,a
   01A5 90 10 36            509 	mov	dptr,#(_modulus + 0x0036)
   01A8 74 94               510 	mov	a,#0x94
   01AA F0                  511 	movx	@dptr,a
   01AB 90 10 37            512 	mov	dptr,#(_modulus + 0x0037)
   01AE 74 F6               513 	mov	a,#0xF6
   01B0 F0                  514 	movx	@dptr,a
   01B1 90 10 38            515 	mov	dptr,#(_modulus + 0x0038)
   01B4 74 08               516 	mov	a,#0x08
   01B6 F0                  517 	movx	@dptr,a
   01B7 90 10 39            518 	mov	dptr,#(_modulus + 0x0039)
   01BA 74 F4               519 	mov	a,#0xF4
   01BC F0                  520 	movx	@dptr,a
   01BD 90 10 3A            521 	mov	dptr,#(_modulus + 0x003a)
   01C0 74 7B               522 	mov	a,#0x7B
   01C2 F0                  523 	movx	@dptr,a
   01C3 90 10 3B            524 	mov	dptr,#(_modulus + 0x003b)
   01C6 74 1A               525 	mov	a,#0x1A
   01C8 F0                  526 	movx	@dptr,a
   01C9 90 10 3C            527 	mov	dptr,#(_modulus + 0x003c)
   01CC 74 4D               528 	mov	a,#0x4D
   01CE F0                  529 	movx	@dptr,a
   01CF 90 10 3D            530 	mov	dptr,#(_modulus + 0x003d)
   01D2 74 07               531 	mov	a,#0x07
   01D4 F0                  532 	movx	@dptr,a
   01D5 90 10 3E            533 	mov	dptr,#(_modulus + 0x003e)
   01D8 74 86               534 	mov	a,#0x86
   01DA F0                  535 	movx	@dptr,a
   01DB 90 10 3F            536 	mov	dptr,#(_modulus + 0x003f)
   01DE 74 3B               537 	mov	a,#0x3B
   01E0 F0                  538 	movx	@dptr,a
   01E1 90 10 40            539 	mov	dptr,#(_modulus + 0x0040)
   01E4 74 2A               540 	mov	a,#0x2A
   01E6 F0                  541 	movx	@dptr,a
   01E7 90 10 41            542 	mov	dptr,#(_modulus + 0x0041)
   01EA 74 84               543 	mov	a,#0x84
   01EC F0                  544 	movx	@dptr,a
   01ED 90 10 42            545 	mov	dptr,#(_modulus + 0x0042)
   01F0 74 F9               546 	mov	a,#0xF9
   01F2 F0                  547 	movx	@dptr,a
   01F3 90 10 43            548 	mov	dptr,#(_modulus + 0x0043)
   01F6 74 BA               549 	mov	a,#0xBA
   01F8 F0                  550 	movx	@dptr,a
   01F9 90 10 44            551 	mov	dptr,#(_modulus + 0x0044)
   01FC 74 4A               552 	mov	a,#0x4A
   01FE F0                  553 	movx	@dptr,a
   01FF 90 10 45            554 	mov	dptr,#(_modulus + 0x0045)
   0202 74 DD               555 	mov	a,#0xDD
   0204 F0                  556 	movx	@dptr,a
   0205 90 10 46            557 	mov	dptr,#(_modulus + 0x0046)
   0208 74 3D               558 	mov	a,#0x3D
   020A F0                  559 	movx	@dptr,a
   020B 90 10 47            560 	mov	dptr,#(_modulus + 0x0047)
   020E 74 D7               561 	mov	a,#0xD7
   0210 F0                  562 	movx	@dptr,a
   0211 90 10 48            563 	mov	dptr,#(_modulus + 0x0048)
   0214 74 07               564 	mov	a,#0x07
   0216 F0                  565 	movx	@dptr,a
   0217 90 10 49            566 	mov	dptr,#(_modulus + 0x0049)
   021A 74 85               567 	mov	a,#0x85
   021C F0                  568 	movx	@dptr,a
   021D 90 10 4A            569 	mov	dptr,#(_modulus + 0x004a)
   0220 74 C6               570 	mov	a,#0xC6
   0222 F0                  571 	movx	@dptr,a
   0223 90 10 4B            572 	mov	dptr,#(_modulus + 0x004b)
   0226 74 67               573 	mov	a,#0x67
   0228 F0                  574 	movx	@dptr,a
   0229 90 10 4C            575 	mov	dptr,#(_modulus + 0x004c)
   022C 74 18               576 	mov	a,#0x18
   022E F0                  577 	movx	@dptr,a
   022F 90 10 4D            578 	mov	dptr,#(_modulus + 0x004d)
   0232 74 5B               579 	mov	a,#0x5B
   0234 F0                  580 	movx	@dptr,a
   0235 90 10 4E            581 	mov	dptr,#(_modulus + 0x004e)
   0238 74 AB               582 	mov	a,#0xAB
   023A F0                  583 	movx	@dptr,a
   023B 90 10 4F            584 	mov	dptr,#(_modulus + 0x004f)
   023E 74 BA               585 	mov	a,#0xBA
   0240 F0                  586 	movx	@dptr,a
   0241 90 10 50            587 	mov	dptr,#(_modulus + 0x0050)
   0244 74 5D               588 	mov	a,#0x5D
   0246 F0                  589 	movx	@dptr,a
   0247 90 10 51            590 	mov	dptr,#(_modulus + 0x0051)
   024A 74 F2               591 	mov	a,#0xF2
   024C F0                  592 	movx	@dptr,a
   024D 90 10 52            593 	mov	dptr,#(_modulus + 0x0052)
   0250 74 35               594 	mov	a,#0x35
   0252 F0                  595 	movx	@dptr,a
   0253 90 10 53            596 	mov	dptr,#(_modulus + 0x0053)
   0256 74 4E               597 	mov	a,#0x4E
   0258 F0                  598 	movx	@dptr,a
   0259 90 10 54            599 	mov	dptr,#(_modulus + 0x0054)
   025C 74 C4               600 	mov	a,#0xC4
   025E F0                  601 	movx	@dptr,a
   025F 90 10 55            602 	mov	dptr,#(_modulus + 0x0055)
   0262 74 61               603 	mov	a,#0x61
   0264 F0                  604 	movx	@dptr,a
   0265 90 10 56            605 	mov	dptr,#(_modulus + 0x0056)
   0268 74 A6               606 	mov	a,#0xA6
   026A F0                  607 	movx	@dptr,a
   026B 90 10 57            608 	mov	dptr,#(_modulus + 0x0057)
   026E 74 06               609 	mov	a,#0x06
   0270 F0                  610 	movx	@dptr,a
   0271 90 10 58            611 	mov	dptr,#(_modulus + 0x0058)
   0274 74 04               612 	mov	a,#0x04
   0276 F0                  613 	movx	@dptr,a
   0277 90 10 59            614 	mov	dptr,#(_modulus + 0x0059)
   027A 74 55               615 	mov	a,#0x55
   027C F0                  616 	movx	@dptr,a
   027D 90 10 5A            617 	mov	dptr,#(_modulus + 0x005a)
   0280 74 CF               618 	mov	a,#0xCF
   0282 F0                  619 	movx	@dptr,a
   0283 90 10 5B            620 	mov	dptr,#(_modulus + 0x005b)
   0286 74 68               621 	mov	a,#0x68
   0288 F0                  622 	movx	@dptr,a
   0289 90 10 5C            623 	mov	dptr,#(_modulus + 0x005c)
   028C 74 92               624 	mov	a,#0x92
   028E F0                  625 	movx	@dptr,a
   028F 90 10 5D            626 	mov	dptr,#(_modulus + 0x005d)
   0292 74 64               627 	mov	a,#0x64
   0294 F0                  628 	movx	@dptr,a
   0295 90 10 5E            629 	mov	dptr,#(_modulus + 0x005e)
   0298 74 DB               630 	mov	a,#0xDB
   029A F0                  631 	movx	@dptr,a
   029B 90 10 5F            632 	mov	dptr,#(_modulus + 0x005f)
   029E 74 90               633 	mov	a,#0x90
   02A0 F0                  634 	movx	@dptr,a
   02A1 90 10 60            635 	mov	dptr,#(_modulus + 0x0060)
   02A4 74 8B               636 	mov	a,#0x8B
   02A6 F0                  637 	movx	@dptr,a
   02A7 90 10 61            638 	mov	dptr,#(_modulus + 0x0061)
   02AA 74 CF               639 	mov	a,#0xCF
   02AC F0                  640 	movx	@dptr,a
   02AD 90 10 62            641 	mov	dptr,#(_modulus + 0x0062)
   02B0 74 58               642 	mov	a,#0x58
   02B2 F0                  643 	movx	@dptr,a
   02B3 90 10 63            644 	mov	dptr,#(_modulus + 0x0063)
   02B6 74 50               645 	mov	a,#0x50
   02B8 F0                  646 	movx	@dptr,a
   02B9 90 10 64            647 	mov	dptr,#(_modulus + 0x0064)
   02BC E4                  648 	clr	a
   02BD F0                  649 	movx	@dptr,a
   02BE 90 10 65            650 	mov	dptr,#(_modulus + 0x0065)
   02C1 74 7B               651 	mov	a,#0x7B
   02C3 F0                  652 	movx	@dptr,a
   02C4 90 10 66            653 	mov	dptr,#(_modulus + 0x0066)
   02C7 74 D3               654 	mov	a,#0xD3
   02C9 F0                  655 	movx	@dptr,a
   02CA 90 10 67            656 	mov	dptr,#(_modulus + 0x0067)
   02CD 74 B6               657 	mov	a,#0xB6
   02CF F0                  658 	movx	@dptr,a
   02D0 90 10 68            659 	mov	dptr,#(_modulus + 0x0068)
   02D3 74 E4               660 	mov	a,#0xE4
   02D5 F0                  661 	movx	@dptr,a
   02D6 90 10 69            662 	mov	dptr,#(_modulus + 0x0069)
   02D9 74 CF               663 	mov	a,#0xCF
   02DB F0                  664 	movx	@dptr,a
   02DC 90 10 6A            665 	mov	dptr,#(_modulus + 0x006a)
   02DF 74 60               666 	mov	a,#0x60
   02E1 F0                  667 	movx	@dptr,a
   02E2 90 10 6B            668 	mov	dptr,#(_modulus + 0x006b)
   02E5 74 4A               669 	mov	a,#0x4A
   02E7 F0                  670 	movx	@dptr,a
   02E8 90 10 6C            671 	mov	dptr,#(_modulus + 0x006c)
   02EB 74 69               672 	mov	a,#0x69
   02ED F0                  673 	movx	@dptr,a
   02EE 90 10 6D            674 	mov	dptr,#(_modulus + 0x006d)
   02F1 74 C2               675 	mov	a,#0xC2
   02F3 F0                  676 	movx	@dptr,a
   02F4 90 10 6E            677 	mov	dptr,#(_modulus + 0x006e)
   02F7 74 70               678 	mov	a,#0x70
   02F9 F0                  679 	movx	@dptr,a
   02FA 90 10 6F            680 	mov	dptr,#(_modulus + 0x006f)
   02FD 74 3D               681 	mov	a,#0x3D
   02FF F0                  682 	movx	@dptr,a
   0300 90 10 70            683 	mov	dptr,#(_modulus + 0x0070)
   0303 74 0F               684 	mov	a,#0x0F
   0305 F0                  685 	movx	@dptr,a
   0306 90 10 71            686 	mov	dptr,#(_modulus + 0x0071)
   0309 74 C4               687 	mov	a,#0xC4
   030B F0                  688 	movx	@dptr,a
   030C 90 10 72            689 	mov	dptr,#(_modulus + 0x0072)
   030F 74 03               690 	mov	a,#0x03
   0311 F0                  691 	movx	@dptr,a
   0312 90 10 73            692 	mov	dptr,#(_modulus + 0x0073)
   0315 74 2B               693 	mov	a,#0x2B
   0317 F0                  694 	movx	@dptr,a
   0318 90 10 74            695 	mov	dptr,#(_modulus + 0x0074)
   031B 74 4D               696 	mov	a,#0x4D
   031D F0                  697 	movx	@dptr,a
   031E 90 10 75            698 	mov	dptr,#(_modulus + 0x0075)
   0321 74 87               699 	mov	a,#0x87
   0323 F0                  700 	movx	@dptr,a
   0324 90 10 76            701 	mov	dptr,#(_modulus + 0x0076)
   0327 74 FA               702 	mov	a,#0xFA
   0329 F0                  703 	movx	@dptr,a
   032A 90 10 77            704 	mov	dptr,#(_modulus + 0x0077)
   032D 74 2C               705 	mov	a,#0x2C
   032F F0                  706 	movx	@dptr,a
   0330 90 10 78            707 	mov	dptr,#(_modulus + 0x0078)
   0333 74 34               708 	mov	a,#0x34
   0335 F0                  709 	movx	@dptr,a
   0336 90 10 79            710 	mov	dptr,#(_modulus + 0x0079)
   0339 74 7F               711 	mov	a,#0x7F
   033B F0                  712 	movx	@dptr,a
   033C 90 10 7A            713 	mov	dptr,#(_modulus + 0x007a)
   033F 74 77               714 	mov	a,#0x77
   0341 F0                  715 	movx	@dptr,a
   0342 90 10 7B            716 	mov	dptr,#(_modulus + 0x007b)
   0345 74 7A               717 	mov	a,#0x7A
   0347 F0                  718 	movx	@dptr,a
   0348 90 10 7C            719 	mov	dptr,#(_modulus + 0x007c)
   034B 74 6A               720 	mov	a,#0x6A
   034D F0                  721 	movx	@dptr,a
   034E 90 10 7D            722 	mov	dptr,#(_modulus + 0x007d)
   0351 74 85               723 	mov	a,#0x85
   0353 F0                  724 	movx	@dptr,a
   0354 90 10 7E            725 	mov	dptr,#(_modulus + 0x007e)
   0357 74 48               726 	mov	a,#0x48
   0359 F0                  727 	movx	@dptr,a
   035A 90 10 7F            728 	mov	dptr,#(_modulus + 0x007f)
   035D 74 9B               729 	mov	a,#0x9B
   035F F0                  730 	movx	@dptr,a
                            731 ;	main.c:24: volatile __xdata __at (0x1100) unsigned char message[SIZE] = {0xE0, 0xFA, 0x7D, 0xF4, 0x9E, 0xFF, 0x31, 0x8A, 0x4A, 0x17, 0x7A, 0xE9, 0x37, 0x86, 0x15, 0x27, 0x2B, 0x29, 0x06, 0x53, 0xE1, 0x08, 0xD2, 0x11, 0xC6, 0xEF, 0x43, 0xB6, 0xC8, 0x93, 0x4F, 0x27, 0xD1, 0x62, 0xCF, 0x12, 0xC3, 0xE6, 0xA4, 0x32, 0x85, 0xA6, 0x4F, 0x26, 0x12, 0x66, 0x87, 0x5A, 0x8F, 0xAE, 0x57, 0xE2, 0x7C, 0x8E, 0xFB, 0xA6, 0xE3, 0x6A, 0x84, 0xF7, 0x92, 0x5D, 0x66, 0x09, 0x17, 0xFC, 0x4A, 0x98, 0x1E, 0xDA, 0xB7, 0xA1, 0x94, 0xE8, 0x59, 0xAE, 0x3A, 0xA3, 0x80, 0x13, 0x13, 0x81, 0x0A, 0x1C, 0x6F, 0x0C, 0x16, 0x67, 0x48, 0x2A, 0x1F, 0x40, 0x8F, 0x97, 0xBB, 0x55, 0x52, 0x35, 0x88, 0x65, 0xD8, 0x01, 0x8F, 0x77, 0x86, 0xA5, 0x55, 0x66, 0x53, 0x02, 0xF3, 0x41, 0xF4, 0x26, 0xCC, 0xD7, 0x0A, 0xEA, 0xE4, 0x3C, 0xA1, 0x65, 0xBA, 0x8D, 0x71, 0x08, 0xEE, 0x98};
   0360 90 11 00            732 	mov	dptr,#_message
   0363 74 E0               733 	mov	a,#0xE0
   0365 F0                  734 	movx	@dptr,a
   0366 90 11 01            735 	mov	dptr,#(_message + 0x0001)
   0369 74 FA               736 	mov	a,#0xFA
   036B F0                  737 	movx	@dptr,a
   036C 90 11 02            738 	mov	dptr,#(_message + 0x0002)
   036F 74 7D               739 	mov	a,#0x7D
   0371 F0                  740 	movx	@dptr,a
   0372 90 11 03            741 	mov	dptr,#(_message + 0x0003)
   0375 74 F4               742 	mov	a,#0xF4
   0377 F0                  743 	movx	@dptr,a
   0378 90 11 04            744 	mov	dptr,#(_message + 0x0004)
   037B 74 9E               745 	mov	a,#0x9E
   037D F0                  746 	movx	@dptr,a
   037E 90 11 05            747 	mov	dptr,#(_message + 0x0005)
   0381 74 FF               748 	mov	a,#0xFF
   0383 F0                  749 	movx	@dptr,a
   0384 90 11 06            750 	mov	dptr,#(_message + 0x0006)
   0387 74 31               751 	mov	a,#0x31
   0389 F0                  752 	movx	@dptr,a
   038A 90 11 07            753 	mov	dptr,#(_message + 0x0007)
   038D 74 8A               754 	mov	a,#0x8A
   038F F0                  755 	movx	@dptr,a
   0390 90 11 08            756 	mov	dptr,#(_message + 0x0008)
   0393 74 4A               757 	mov	a,#0x4A
   0395 F0                  758 	movx	@dptr,a
   0396 90 11 09            759 	mov	dptr,#(_message + 0x0009)
   0399 74 17               760 	mov	a,#0x17
   039B F0                  761 	movx	@dptr,a
   039C 90 11 0A            762 	mov	dptr,#(_message + 0x000a)
   039F 74 7A               763 	mov	a,#0x7A
   03A1 F0                  764 	movx	@dptr,a
   03A2 90 11 0B            765 	mov	dptr,#(_message + 0x000b)
   03A5 74 E9               766 	mov	a,#0xE9
   03A7 F0                  767 	movx	@dptr,a
   03A8 90 11 0C            768 	mov	dptr,#(_message + 0x000c)
   03AB 74 37               769 	mov	a,#0x37
   03AD F0                  770 	movx	@dptr,a
   03AE 90 11 0D            771 	mov	dptr,#(_message + 0x000d)
   03B1 74 86               772 	mov	a,#0x86
   03B3 F0                  773 	movx	@dptr,a
   03B4 90 11 0E            774 	mov	dptr,#(_message + 0x000e)
   03B7 74 15               775 	mov	a,#0x15
   03B9 F0                  776 	movx	@dptr,a
   03BA 90 11 0F            777 	mov	dptr,#(_message + 0x000f)
   03BD 74 27               778 	mov	a,#0x27
   03BF F0                  779 	movx	@dptr,a
   03C0 90 11 10            780 	mov	dptr,#(_message + 0x0010)
   03C3 74 2B               781 	mov	a,#0x2B
   03C5 F0                  782 	movx	@dptr,a
   03C6 90 11 11            783 	mov	dptr,#(_message + 0x0011)
   03C9 74 29               784 	mov	a,#0x29
   03CB F0                  785 	movx	@dptr,a
   03CC 90 11 12            786 	mov	dptr,#(_message + 0x0012)
   03CF 74 06               787 	mov	a,#0x06
   03D1 F0                  788 	movx	@dptr,a
   03D2 90 11 13            789 	mov	dptr,#(_message + 0x0013)
   03D5 74 53               790 	mov	a,#0x53
   03D7 F0                  791 	movx	@dptr,a
   03D8 90 11 14            792 	mov	dptr,#(_message + 0x0014)
   03DB 74 E1               793 	mov	a,#0xE1
   03DD F0                  794 	movx	@dptr,a
   03DE 90 11 15            795 	mov	dptr,#(_message + 0x0015)
   03E1 74 08               796 	mov	a,#0x08
   03E3 F0                  797 	movx	@dptr,a
   03E4 90 11 16            798 	mov	dptr,#(_message + 0x0016)
   03E7 74 D2               799 	mov	a,#0xD2
   03E9 F0                  800 	movx	@dptr,a
   03EA 90 11 17            801 	mov	dptr,#(_message + 0x0017)
   03ED 74 11               802 	mov	a,#0x11
   03EF F0                  803 	movx	@dptr,a
   03F0 90 11 18            804 	mov	dptr,#(_message + 0x0018)
   03F3 74 C6               805 	mov	a,#0xC6
   03F5 F0                  806 	movx	@dptr,a
   03F6 90 11 19            807 	mov	dptr,#(_message + 0x0019)
   03F9 74 EF               808 	mov	a,#0xEF
   03FB F0                  809 	movx	@dptr,a
   03FC 90 11 1A            810 	mov	dptr,#(_message + 0x001a)
   03FF 74 43               811 	mov	a,#0x43
   0401 F0                  812 	movx	@dptr,a
   0402 90 11 1B            813 	mov	dptr,#(_message + 0x001b)
   0405 74 B6               814 	mov	a,#0xB6
   0407 F0                  815 	movx	@dptr,a
   0408 90 11 1C            816 	mov	dptr,#(_message + 0x001c)
   040B 74 C8               817 	mov	a,#0xC8
   040D F0                  818 	movx	@dptr,a
   040E 90 11 1D            819 	mov	dptr,#(_message + 0x001d)
   0411 74 93               820 	mov	a,#0x93
   0413 F0                  821 	movx	@dptr,a
   0414 90 11 1E            822 	mov	dptr,#(_message + 0x001e)
   0417 74 4F               823 	mov	a,#0x4F
   0419 F0                  824 	movx	@dptr,a
   041A 90 11 1F            825 	mov	dptr,#(_message + 0x001f)
   041D 74 27               826 	mov	a,#0x27
   041F F0                  827 	movx	@dptr,a
   0420 90 11 20            828 	mov	dptr,#(_message + 0x0020)
   0423 74 D1               829 	mov	a,#0xD1
   0425 F0                  830 	movx	@dptr,a
   0426 90 11 21            831 	mov	dptr,#(_message + 0x0021)
   0429 74 62               832 	mov	a,#0x62
   042B F0                  833 	movx	@dptr,a
   042C 90 11 22            834 	mov	dptr,#(_message + 0x0022)
   042F 74 CF               835 	mov	a,#0xCF
   0431 F0                  836 	movx	@dptr,a
   0432 90 11 23            837 	mov	dptr,#(_message + 0x0023)
   0435 74 12               838 	mov	a,#0x12
   0437 F0                  839 	movx	@dptr,a
   0438 90 11 24            840 	mov	dptr,#(_message + 0x0024)
   043B 74 C3               841 	mov	a,#0xC3
   043D F0                  842 	movx	@dptr,a
   043E 90 11 25            843 	mov	dptr,#(_message + 0x0025)
   0441 74 E6               844 	mov	a,#0xE6
   0443 F0                  845 	movx	@dptr,a
   0444 90 11 26            846 	mov	dptr,#(_message + 0x0026)
   0447 74 A4               847 	mov	a,#0xA4
   0449 F0                  848 	movx	@dptr,a
   044A 90 11 27            849 	mov	dptr,#(_message + 0x0027)
   044D 74 32               850 	mov	a,#0x32
   044F F0                  851 	movx	@dptr,a
   0450 90 11 28            852 	mov	dptr,#(_message + 0x0028)
   0453 74 85               853 	mov	a,#0x85
   0455 F0                  854 	movx	@dptr,a
   0456 90 11 29            855 	mov	dptr,#(_message + 0x0029)
   0459 74 A6               856 	mov	a,#0xA6
   045B F0                  857 	movx	@dptr,a
   045C 90 11 2A            858 	mov	dptr,#(_message + 0x002a)
   045F 74 4F               859 	mov	a,#0x4F
   0461 F0                  860 	movx	@dptr,a
   0462 90 11 2B            861 	mov	dptr,#(_message + 0x002b)
   0465 74 26               862 	mov	a,#0x26
   0467 F0                  863 	movx	@dptr,a
   0468 90 11 2C            864 	mov	dptr,#(_message + 0x002c)
   046B 74 12               865 	mov	a,#0x12
   046D F0                  866 	movx	@dptr,a
   046E 90 11 2D            867 	mov	dptr,#(_message + 0x002d)
   0471 74 66               868 	mov	a,#0x66
   0473 F0                  869 	movx	@dptr,a
   0474 90 11 2E            870 	mov	dptr,#(_message + 0x002e)
   0477 74 87               871 	mov	a,#0x87
   0479 F0                  872 	movx	@dptr,a
   047A 90 11 2F            873 	mov	dptr,#(_message + 0x002f)
   047D 74 5A               874 	mov	a,#0x5A
   047F F0                  875 	movx	@dptr,a
   0480 90 11 30            876 	mov	dptr,#(_message + 0x0030)
   0483 74 8F               877 	mov	a,#0x8F
   0485 F0                  878 	movx	@dptr,a
   0486 90 11 31            879 	mov	dptr,#(_message + 0x0031)
   0489 74 AE               880 	mov	a,#0xAE
   048B F0                  881 	movx	@dptr,a
   048C 90 11 32            882 	mov	dptr,#(_message + 0x0032)
   048F 74 57               883 	mov	a,#0x57
   0491 F0                  884 	movx	@dptr,a
   0492 90 11 33            885 	mov	dptr,#(_message + 0x0033)
   0495 74 E2               886 	mov	a,#0xE2
   0497 F0                  887 	movx	@dptr,a
   0498 90 11 34            888 	mov	dptr,#(_message + 0x0034)
   049B 74 7C               889 	mov	a,#0x7C
   049D F0                  890 	movx	@dptr,a
   049E 90 11 35            891 	mov	dptr,#(_message + 0x0035)
   04A1 74 8E               892 	mov	a,#0x8E
   04A3 F0                  893 	movx	@dptr,a
   04A4 90 11 36            894 	mov	dptr,#(_message + 0x0036)
   04A7 74 FB               895 	mov	a,#0xFB
   04A9 F0                  896 	movx	@dptr,a
   04AA 90 11 37            897 	mov	dptr,#(_message + 0x0037)
   04AD 74 A6               898 	mov	a,#0xA6
   04AF F0                  899 	movx	@dptr,a
   04B0 90 11 38            900 	mov	dptr,#(_message + 0x0038)
   04B3 74 E3               901 	mov	a,#0xE3
   04B5 F0                  902 	movx	@dptr,a
   04B6 90 11 39            903 	mov	dptr,#(_message + 0x0039)
   04B9 74 6A               904 	mov	a,#0x6A
   04BB F0                  905 	movx	@dptr,a
   04BC 90 11 3A            906 	mov	dptr,#(_message + 0x003a)
   04BF 74 84               907 	mov	a,#0x84
   04C1 F0                  908 	movx	@dptr,a
   04C2 90 11 3B            909 	mov	dptr,#(_message + 0x003b)
   04C5 74 F7               910 	mov	a,#0xF7
   04C7 F0                  911 	movx	@dptr,a
   04C8 90 11 3C            912 	mov	dptr,#(_message + 0x003c)
   04CB 74 92               913 	mov	a,#0x92
   04CD F0                  914 	movx	@dptr,a
   04CE 90 11 3D            915 	mov	dptr,#(_message + 0x003d)
   04D1 74 5D               916 	mov	a,#0x5D
   04D3 F0                  917 	movx	@dptr,a
   04D4 90 11 3E            918 	mov	dptr,#(_message + 0x003e)
   04D7 74 66               919 	mov	a,#0x66
   04D9 F0                  920 	movx	@dptr,a
   04DA 90 11 3F            921 	mov	dptr,#(_message + 0x003f)
   04DD 74 09               922 	mov	a,#0x09
   04DF F0                  923 	movx	@dptr,a
   04E0 90 11 40            924 	mov	dptr,#(_message + 0x0040)
   04E3 74 17               925 	mov	a,#0x17
   04E5 F0                  926 	movx	@dptr,a
   04E6 90 11 41            927 	mov	dptr,#(_message + 0x0041)
   04E9 74 FC               928 	mov	a,#0xFC
   04EB F0                  929 	movx	@dptr,a
   04EC 90 11 42            930 	mov	dptr,#(_message + 0x0042)
   04EF 74 4A               931 	mov	a,#0x4A
   04F1 F0                  932 	movx	@dptr,a
   04F2 90 11 43            933 	mov	dptr,#(_message + 0x0043)
   04F5 74 98               934 	mov	a,#0x98
   04F7 F0                  935 	movx	@dptr,a
   04F8 90 11 44            936 	mov	dptr,#(_message + 0x0044)
   04FB 74 1E               937 	mov	a,#0x1E
   04FD F0                  938 	movx	@dptr,a
   04FE 90 11 45            939 	mov	dptr,#(_message + 0x0045)
   0501 74 DA               940 	mov	a,#0xDA
   0503 F0                  941 	movx	@dptr,a
   0504 90 11 46            942 	mov	dptr,#(_message + 0x0046)
   0507 74 B7               943 	mov	a,#0xB7
   0509 F0                  944 	movx	@dptr,a
   050A 90 11 47            945 	mov	dptr,#(_message + 0x0047)
   050D 74 A1               946 	mov	a,#0xA1
   050F F0                  947 	movx	@dptr,a
   0510 90 11 48            948 	mov	dptr,#(_message + 0x0048)
   0513 74 94               949 	mov	a,#0x94
   0515 F0                  950 	movx	@dptr,a
   0516 90 11 49            951 	mov	dptr,#(_message + 0x0049)
   0519 74 E8               952 	mov	a,#0xE8
   051B F0                  953 	movx	@dptr,a
   051C 90 11 4A            954 	mov	dptr,#(_message + 0x004a)
   051F 74 59               955 	mov	a,#0x59
   0521 F0                  956 	movx	@dptr,a
   0522 90 11 4B            957 	mov	dptr,#(_message + 0x004b)
   0525 74 AE               958 	mov	a,#0xAE
   0527 F0                  959 	movx	@dptr,a
   0528 90 11 4C            960 	mov	dptr,#(_message + 0x004c)
   052B 74 3A               961 	mov	a,#0x3A
   052D F0                  962 	movx	@dptr,a
   052E 90 11 4D            963 	mov	dptr,#(_message + 0x004d)
   0531 74 A3               964 	mov	a,#0xA3
   0533 F0                  965 	movx	@dptr,a
   0534 90 11 4E            966 	mov	dptr,#(_message + 0x004e)
   0537 74 80               967 	mov	a,#0x80
   0539 F0                  968 	movx	@dptr,a
   053A 90 11 4F            969 	mov	dptr,#(_message + 0x004f)
   053D 74 13               970 	mov	a,#0x13
   053F F0                  971 	movx	@dptr,a
   0540 90 11 50            972 	mov	dptr,#(_message + 0x0050)
   0543 74 13               973 	mov	a,#0x13
   0545 F0                  974 	movx	@dptr,a
   0546 90 11 51            975 	mov	dptr,#(_message + 0x0051)
   0549 74 81               976 	mov	a,#0x81
   054B F0                  977 	movx	@dptr,a
   054C 90 11 52            978 	mov	dptr,#(_message + 0x0052)
   054F 74 0A               979 	mov	a,#0x0A
   0551 F0                  980 	movx	@dptr,a
   0552 90 11 53            981 	mov	dptr,#(_message + 0x0053)
   0555 74 1C               982 	mov	a,#0x1C
   0557 F0                  983 	movx	@dptr,a
   0558 90 11 54            984 	mov	dptr,#(_message + 0x0054)
   055B 74 6F               985 	mov	a,#0x6F
   055D F0                  986 	movx	@dptr,a
   055E 90 11 55            987 	mov	dptr,#(_message + 0x0055)
   0561 74 0C               988 	mov	a,#0x0C
   0563 F0                  989 	movx	@dptr,a
   0564 90 11 56            990 	mov	dptr,#(_message + 0x0056)
   0567 74 16               991 	mov	a,#0x16
   0569 F0                  992 	movx	@dptr,a
   056A 90 11 57            993 	mov	dptr,#(_message + 0x0057)
   056D 74 67               994 	mov	a,#0x67
   056F F0                  995 	movx	@dptr,a
   0570 90 11 58            996 	mov	dptr,#(_message + 0x0058)
   0573 74 48               997 	mov	a,#0x48
   0575 F0                  998 	movx	@dptr,a
   0576 90 11 59            999 	mov	dptr,#(_message + 0x0059)
   0579 74 2A              1000 	mov	a,#0x2A
   057B F0                 1001 	movx	@dptr,a
   057C 90 11 5A           1002 	mov	dptr,#(_message + 0x005a)
   057F 74 1F              1003 	mov	a,#0x1F
   0581 F0                 1004 	movx	@dptr,a
   0582 90 11 5B           1005 	mov	dptr,#(_message + 0x005b)
   0585 74 40              1006 	mov	a,#0x40
   0587 F0                 1007 	movx	@dptr,a
   0588 90 11 5C           1008 	mov	dptr,#(_message + 0x005c)
   058B 74 8F              1009 	mov	a,#0x8F
   058D F0                 1010 	movx	@dptr,a
   058E 90 11 5D           1011 	mov	dptr,#(_message + 0x005d)
   0591 74 97              1012 	mov	a,#0x97
   0593 F0                 1013 	movx	@dptr,a
   0594 90 11 5E           1014 	mov	dptr,#(_message + 0x005e)
   0597 74 BB              1015 	mov	a,#0xBB
   0599 F0                 1016 	movx	@dptr,a
   059A 90 11 5F           1017 	mov	dptr,#(_message + 0x005f)
   059D 74 55              1018 	mov	a,#0x55
   059F F0                 1019 	movx	@dptr,a
   05A0 90 11 60           1020 	mov	dptr,#(_message + 0x0060)
   05A3 74 52              1021 	mov	a,#0x52
   05A5 F0                 1022 	movx	@dptr,a
   05A6 90 11 61           1023 	mov	dptr,#(_message + 0x0061)
   05A9 74 35              1024 	mov	a,#0x35
   05AB F0                 1025 	movx	@dptr,a
   05AC 90 11 62           1026 	mov	dptr,#(_message + 0x0062)
   05AF 74 88              1027 	mov	a,#0x88
   05B1 F0                 1028 	movx	@dptr,a
   05B2 90 11 63           1029 	mov	dptr,#(_message + 0x0063)
   05B5 74 65              1030 	mov	a,#0x65
   05B7 F0                 1031 	movx	@dptr,a
   05B8 90 11 64           1032 	mov	dptr,#(_message + 0x0064)
   05BB 74 D8              1033 	mov	a,#0xD8
   05BD F0                 1034 	movx	@dptr,a
   05BE 90 11 65           1035 	mov	dptr,#(_message + 0x0065)
   05C1 74 01              1036 	mov	a,#0x01
   05C3 F0                 1037 	movx	@dptr,a
   05C4 90 11 66           1038 	mov	dptr,#(_message + 0x0066)
   05C7 74 8F              1039 	mov	a,#0x8F
   05C9 F0                 1040 	movx	@dptr,a
   05CA 90 11 67           1041 	mov	dptr,#(_message + 0x0067)
   05CD 74 77              1042 	mov	a,#0x77
   05CF F0                 1043 	movx	@dptr,a
   05D0 90 11 68           1044 	mov	dptr,#(_message + 0x0068)
   05D3 74 86              1045 	mov	a,#0x86
   05D5 F0                 1046 	movx	@dptr,a
   05D6 90 11 69           1047 	mov	dptr,#(_message + 0x0069)
   05D9 74 A5              1048 	mov	a,#0xA5
   05DB F0                 1049 	movx	@dptr,a
   05DC 90 11 6A           1050 	mov	dptr,#(_message + 0x006a)
   05DF 74 55              1051 	mov	a,#0x55
   05E1 F0                 1052 	movx	@dptr,a
   05E2 90 11 6B           1053 	mov	dptr,#(_message + 0x006b)
   05E5 74 66              1054 	mov	a,#0x66
   05E7 F0                 1055 	movx	@dptr,a
   05E8 90 11 6C           1056 	mov	dptr,#(_message + 0x006c)
   05EB 74 53              1057 	mov	a,#0x53
   05ED F0                 1058 	movx	@dptr,a
   05EE 90 11 6D           1059 	mov	dptr,#(_message + 0x006d)
   05F1 74 02              1060 	mov	a,#0x02
   05F3 F0                 1061 	movx	@dptr,a
   05F4 90 11 6E           1062 	mov	dptr,#(_message + 0x006e)
   05F7 74 F3              1063 	mov	a,#0xF3
   05F9 F0                 1064 	movx	@dptr,a
   05FA 90 11 6F           1065 	mov	dptr,#(_message + 0x006f)
   05FD 74 41              1066 	mov	a,#0x41
   05FF F0                 1067 	movx	@dptr,a
   0600 90 11 70           1068 	mov	dptr,#(_message + 0x0070)
   0603 74 F4              1069 	mov	a,#0xF4
   0605 F0                 1070 	movx	@dptr,a
   0606 90 11 71           1071 	mov	dptr,#(_message + 0x0071)
   0609 74 26              1072 	mov	a,#0x26
   060B F0                 1073 	movx	@dptr,a
   060C 90 11 72           1074 	mov	dptr,#(_message + 0x0072)
   060F 74 CC              1075 	mov	a,#0xCC
   0611 F0                 1076 	movx	@dptr,a
   0612 90 11 73           1077 	mov	dptr,#(_message + 0x0073)
   0615 74 D7              1078 	mov	a,#0xD7
   0617 F0                 1079 	movx	@dptr,a
   0618 90 11 74           1080 	mov	dptr,#(_message + 0x0074)
   061B 74 0A              1081 	mov	a,#0x0A
   061D F0                 1082 	movx	@dptr,a
   061E 90 11 75           1083 	mov	dptr,#(_message + 0x0075)
   0621 74 EA              1084 	mov	a,#0xEA
   0623 F0                 1085 	movx	@dptr,a
   0624 90 11 76           1086 	mov	dptr,#(_message + 0x0076)
   0627 74 E4              1087 	mov	a,#0xE4
   0629 F0                 1088 	movx	@dptr,a
   062A 90 11 77           1089 	mov	dptr,#(_message + 0x0077)
   062D 74 3C              1090 	mov	a,#0x3C
   062F F0                 1091 	movx	@dptr,a
   0630 90 11 78           1092 	mov	dptr,#(_message + 0x0078)
   0633 74 A1              1093 	mov	a,#0xA1
   0635 F0                 1094 	movx	@dptr,a
   0636 90 11 79           1095 	mov	dptr,#(_message + 0x0079)
   0639 74 65              1096 	mov	a,#0x65
   063B F0                 1097 	movx	@dptr,a
   063C 90 11 7A           1098 	mov	dptr,#(_message + 0x007a)
   063F 74 BA              1099 	mov	a,#0xBA
   0641 F0                 1100 	movx	@dptr,a
   0642 90 11 7B           1101 	mov	dptr,#(_message + 0x007b)
   0645 74 8D              1102 	mov	a,#0x8D
   0647 F0                 1103 	movx	@dptr,a
   0648 90 11 7C           1104 	mov	dptr,#(_message + 0x007c)
   064B 74 71              1105 	mov	a,#0x71
   064D F0                 1106 	movx	@dptr,a
   064E 90 11 7D           1107 	mov	dptr,#(_message + 0x007d)
   0651 74 08              1108 	mov	a,#0x08
   0653 F0                 1109 	movx	@dptr,a
   0654 90 11 7E           1110 	mov	dptr,#(_message + 0x007e)
   0657 74 EE              1111 	mov	a,#0xEE
   0659 F0                 1112 	movx	@dptr,a
   065A 90 11 7F           1113 	mov	dptr,#(_message + 0x007f)
   065D 74 98              1114 	mov	a,#0x98
   065F F0                 1115 	movx	@dptr,a
                           1116 ;	main.c:25: volatile __xdata __at (0x1200) unsigned char publicKey[SIZE] = {0x01, 0x01};
   0660 90 12 00           1117 	mov	dptr,#_publicKey
   0663 74 01              1118 	mov	a,#0x01
   0665 F0                 1119 	movx	@dptr,a
   0666 90 12 01           1120 	mov	dptr,#(_publicKey + 0x0001)
   0669 74 01              1121 	mov	a,#0x01
   066B F0                 1122 	movx	@dptr,a
                           1123 ;	main.c:26: volatile __xdata __at (0x1300) unsigned char privateKey[SIZE] = {0x01, 0x23, 0xC5, 0xD2, 0x6A, 0xE6, 0x8B, 0x2B, 0xE7, 0x41, 0x5A, 0x8E, 0xBA, 0x08, 0x1A, 0x66, 0x97, 0xC4, 0xB7, 0x6E, 0x54, 0x5D, 0xC4, 0x99, 0x40, 0x63, 0x65, 0xED, 0x77, 0xCA, 0xCF, 0xEB, 0x75, 0xCF, 0x29, 0x3C, 0xE5, 0x27, 0x0B, 0x54, 0xD0, 0x11, 0x7E, 0xB2, 0x0B, 0x12, 0x9F, 0xBD, 0xBF, 0x2F, 0x51, 0x4C, 0x51, 0x6D, 0x2F, 0xF8, 0x2D, 0x62, 0xB4, 0x1E, 0xA5, 0xEC, 0xE9, 0xDE, 0x0B, 0xE9, 0x7A, 0x72, 0xAE, 0xA4, 0x56, 0xAF, 0xE3, 0xAF, 0x72, 0x54, 0x05, 0xBE, 0x14, 0xA1, 0x01, 0x4D, 0x0D, 0x8D, 0x02, 0x7F, 0xCA, 0xEF, 0xEC, 0x83, 0xE2, 0xA0, 0x75, 0x0A, 0xEF, 0x0C, 0x2C, 0x61, 0xC2, 0x5C, 0xDC, 0x95, 0xC3, 0x36, 0x63, 0x69, 0x6A, 0x76, 0x64, 0xD2, 0x57, 0x56, 0x7F, 0xE3, 0xC9, 0xCA, 0x11, 0x1F, 0xFD, 0xFC, 0x1A, 0x54, 0xA0, 0x70, 0x42, 0x97, 0xF7, 0x6D};
   066C 90 13 00           1124 	mov	dptr,#_privateKey
   066F 74 01              1125 	mov	a,#0x01
   0671 F0                 1126 	movx	@dptr,a
   0672 90 13 01           1127 	mov	dptr,#(_privateKey + 0x0001)
   0675 74 23              1128 	mov	a,#0x23
   0677 F0                 1129 	movx	@dptr,a
   0678 90 13 02           1130 	mov	dptr,#(_privateKey + 0x0002)
   067B 74 C5              1131 	mov	a,#0xC5
   067D F0                 1132 	movx	@dptr,a
   067E 90 13 03           1133 	mov	dptr,#(_privateKey + 0x0003)
   0681 74 D2              1134 	mov	a,#0xD2
   0683 F0                 1135 	movx	@dptr,a
   0684 90 13 04           1136 	mov	dptr,#(_privateKey + 0x0004)
   0687 74 6A              1137 	mov	a,#0x6A
   0689 F0                 1138 	movx	@dptr,a
   068A 90 13 05           1139 	mov	dptr,#(_privateKey + 0x0005)
   068D 74 E6              1140 	mov	a,#0xE6
   068F F0                 1141 	movx	@dptr,a
   0690 90 13 06           1142 	mov	dptr,#(_privateKey + 0x0006)
   0693 74 8B              1143 	mov	a,#0x8B
   0695 F0                 1144 	movx	@dptr,a
   0696 90 13 07           1145 	mov	dptr,#(_privateKey + 0x0007)
   0699 74 2B              1146 	mov	a,#0x2B
   069B F0                 1147 	movx	@dptr,a
   069C 90 13 08           1148 	mov	dptr,#(_privateKey + 0x0008)
   069F 74 E7              1149 	mov	a,#0xE7
   06A1 F0                 1150 	movx	@dptr,a
   06A2 90 13 09           1151 	mov	dptr,#(_privateKey + 0x0009)
   06A5 74 41              1152 	mov	a,#0x41
   06A7 F0                 1153 	movx	@dptr,a
   06A8 90 13 0A           1154 	mov	dptr,#(_privateKey + 0x000a)
   06AB 74 5A              1155 	mov	a,#0x5A
   06AD F0                 1156 	movx	@dptr,a
   06AE 90 13 0B           1157 	mov	dptr,#(_privateKey + 0x000b)
   06B1 74 8E              1158 	mov	a,#0x8E
   06B3 F0                 1159 	movx	@dptr,a
   06B4 90 13 0C           1160 	mov	dptr,#(_privateKey + 0x000c)
   06B7 74 BA              1161 	mov	a,#0xBA
   06B9 F0                 1162 	movx	@dptr,a
   06BA 90 13 0D           1163 	mov	dptr,#(_privateKey + 0x000d)
   06BD 74 08              1164 	mov	a,#0x08
   06BF F0                 1165 	movx	@dptr,a
   06C0 90 13 0E           1166 	mov	dptr,#(_privateKey + 0x000e)
   06C3 74 1A              1167 	mov	a,#0x1A
   06C5 F0                 1168 	movx	@dptr,a
   06C6 90 13 0F           1169 	mov	dptr,#(_privateKey + 0x000f)
   06C9 74 66              1170 	mov	a,#0x66
   06CB F0                 1171 	movx	@dptr,a
   06CC 90 13 10           1172 	mov	dptr,#(_privateKey + 0x0010)
   06CF 74 97              1173 	mov	a,#0x97
   06D1 F0                 1174 	movx	@dptr,a
   06D2 90 13 11           1175 	mov	dptr,#(_privateKey + 0x0011)
   06D5 74 C4              1176 	mov	a,#0xC4
   06D7 F0                 1177 	movx	@dptr,a
   06D8 90 13 12           1178 	mov	dptr,#(_privateKey + 0x0012)
   06DB 74 B7              1179 	mov	a,#0xB7
   06DD F0                 1180 	movx	@dptr,a
   06DE 90 13 13           1181 	mov	dptr,#(_privateKey + 0x0013)
   06E1 74 6E              1182 	mov	a,#0x6E
   06E3 F0                 1183 	movx	@dptr,a
   06E4 90 13 14           1184 	mov	dptr,#(_privateKey + 0x0014)
   06E7 74 54              1185 	mov	a,#0x54
   06E9 F0                 1186 	movx	@dptr,a
   06EA 90 13 15           1187 	mov	dptr,#(_privateKey + 0x0015)
   06ED 74 5D              1188 	mov	a,#0x5D
   06EF F0                 1189 	movx	@dptr,a
   06F0 90 13 16           1190 	mov	dptr,#(_privateKey + 0x0016)
   06F3 74 C4              1191 	mov	a,#0xC4
   06F5 F0                 1192 	movx	@dptr,a
   06F6 90 13 17           1193 	mov	dptr,#(_privateKey + 0x0017)
   06F9 74 99              1194 	mov	a,#0x99
   06FB F0                 1195 	movx	@dptr,a
   06FC 90 13 18           1196 	mov	dptr,#(_privateKey + 0x0018)
   06FF 74 40              1197 	mov	a,#0x40
   0701 F0                 1198 	movx	@dptr,a
   0702 90 13 19           1199 	mov	dptr,#(_privateKey + 0x0019)
   0705 74 63              1200 	mov	a,#0x63
   0707 F0                 1201 	movx	@dptr,a
   0708 90 13 1A           1202 	mov	dptr,#(_privateKey + 0x001a)
   070B 74 65              1203 	mov	a,#0x65
   070D F0                 1204 	movx	@dptr,a
   070E 90 13 1B           1205 	mov	dptr,#(_privateKey + 0x001b)
   0711 74 ED              1206 	mov	a,#0xED
   0713 F0                 1207 	movx	@dptr,a
   0714 90 13 1C           1208 	mov	dptr,#(_privateKey + 0x001c)
   0717 74 77              1209 	mov	a,#0x77
   0719 F0                 1210 	movx	@dptr,a
   071A 90 13 1D           1211 	mov	dptr,#(_privateKey + 0x001d)
   071D 74 CA              1212 	mov	a,#0xCA
   071F F0                 1213 	movx	@dptr,a
   0720 90 13 1E           1214 	mov	dptr,#(_privateKey + 0x001e)
   0723 74 CF              1215 	mov	a,#0xCF
   0725 F0                 1216 	movx	@dptr,a
   0726 90 13 1F           1217 	mov	dptr,#(_privateKey + 0x001f)
   0729 74 EB              1218 	mov	a,#0xEB
   072B F0                 1219 	movx	@dptr,a
   072C 90 13 20           1220 	mov	dptr,#(_privateKey + 0x0020)
   072F 74 75              1221 	mov	a,#0x75
   0731 F0                 1222 	movx	@dptr,a
   0732 90 13 21           1223 	mov	dptr,#(_privateKey + 0x0021)
   0735 74 CF              1224 	mov	a,#0xCF
   0737 F0                 1225 	movx	@dptr,a
   0738 90 13 22           1226 	mov	dptr,#(_privateKey + 0x0022)
   073B 74 29              1227 	mov	a,#0x29
   073D F0                 1228 	movx	@dptr,a
   073E 90 13 23           1229 	mov	dptr,#(_privateKey + 0x0023)
   0741 74 3C              1230 	mov	a,#0x3C
   0743 F0                 1231 	movx	@dptr,a
   0744 90 13 24           1232 	mov	dptr,#(_privateKey + 0x0024)
   0747 74 E5              1233 	mov	a,#0xE5
   0749 F0                 1234 	movx	@dptr,a
   074A 90 13 25           1235 	mov	dptr,#(_privateKey + 0x0025)
   074D 74 27              1236 	mov	a,#0x27
   074F F0                 1237 	movx	@dptr,a
   0750 90 13 26           1238 	mov	dptr,#(_privateKey + 0x0026)
   0753 74 0B              1239 	mov	a,#0x0B
   0755 F0                 1240 	movx	@dptr,a
   0756 90 13 27           1241 	mov	dptr,#(_privateKey + 0x0027)
   0759 74 54              1242 	mov	a,#0x54
   075B F0                 1243 	movx	@dptr,a
   075C 90 13 28           1244 	mov	dptr,#(_privateKey + 0x0028)
   075F 74 D0              1245 	mov	a,#0xD0
   0761 F0                 1246 	movx	@dptr,a
   0762 90 13 29           1247 	mov	dptr,#(_privateKey + 0x0029)
   0765 74 11              1248 	mov	a,#0x11
   0767 F0                 1249 	movx	@dptr,a
   0768 90 13 2A           1250 	mov	dptr,#(_privateKey + 0x002a)
   076B 74 7E              1251 	mov	a,#0x7E
   076D F0                 1252 	movx	@dptr,a
   076E 90 13 2B           1253 	mov	dptr,#(_privateKey + 0x002b)
   0771 74 B2              1254 	mov	a,#0xB2
   0773 F0                 1255 	movx	@dptr,a
   0774 90 13 2C           1256 	mov	dptr,#(_privateKey + 0x002c)
   0777 74 0B              1257 	mov	a,#0x0B
   0779 F0                 1258 	movx	@dptr,a
   077A 90 13 2D           1259 	mov	dptr,#(_privateKey + 0x002d)
   077D 74 12              1260 	mov	a,#0x12
   077F F0                 1261 	movx	@dptr,a
   0780 90 13 2E           1262 	mov	dptr,#(_privateKey + 0x002e)
   0783 74 9F              1263 	mov	a,#0x9F
   0785 F0                 1264 	movx	@dptr,a
   0786 90 13 2F           1265 	mov	dptr,#(_privateKey + 0x002f)
   0789 74 BD              1266 	mov	a,#0xBD
   078B F0                 1267 	movx	@dptr,a
   078C 90 13 30           1268 	mov	dptr,#(_privateKey + 0x0030)
   078F 74 BF              1269 	mov	a,#0xBF
   0791 F0                 1270 	movx	@dptr,a
   0792 90 13 31           1271 	mov	dptr,#(_privateKey + 0x0031)
   0795 74 2F              1272 	mov	a,#0x2F
   0797 F0                 1273 	movx	@dptr,a
   0798 90 13 32           1274 	mov	dptr,#(_privateKey + 0x0032)
   079B 74 51              1275 	mov	a,#0x51
   079D F0                 1276 	movx	@dptr,a
   079E 90 13 33           1277 	mov	dptr,#(_privateKey + 0x0033)
   07A1 74 4C              1278 	mov	a,#0x4C
   07A3 F0                 1279 	movx	@dptr,a
   07A4 90 13 34           1280 	mov	dptr,#(_privateKey + 0x0034)
   07A7 74 51              1281 	mov	a,#0x51
   07A9 F0                 1282 	movx	@dptr,a
   07AA 90 13 35           1283 	mov	dptr,#(_privateKey + 0x0035)
   07AD 74 6D              1284 	mov	a,#0x6D
   07AF F0                 1285 	movx	@dptr,a
   07B0 90 13 36           1286 	mov	dptr,#(_privateKey + 0x0036)
   07B3 74 2F              1287 	mov	a,#0x2F
   07B5 F0                 1288 	movx	@dptr,a
   07B6 90 13 37           1289 	mov	dptr,#(_privateKey + 0x0037)
   07B9 74 F8              1290 	mov	a,#0xF8
   07BB F0                 1291 	movx	@dptr,a
   07BC 90 13 38           1292 	mov	dptr,#(_privateKey + 0x0038)
   07BF 74 2D              1293 	mov	a,#0x2D
   07C1 F0                 1294 	movx	@dptr,a
   07C2 90 13 39           1295 	mov	dptr,#(_privateKey + 0x0039)
   07C5 74 62              1296 	mov	a,#0x62
   07C7 F0                 1297 	movx	@dptr,a
   07C8 90 13 3A           1298 	mov	dptr,#(_privateKey + 0x003a)
   07CB 74 B4              1299 	mov	a,#0xB4
   07CD F0                 1300 	movx	@dptr,a
   07CE 90 13 3B           1301 	mov	dptr,#(_privateKey + 0x003b)
   07D1 74 1E              1302 	mov	a,#0x1E
   07D3 F0                 1303 	movx	@dptr,a
   07D4 90 13 3C           1304 	mov	dptr,#(_privateKey + 0x003c)
   07D7 74 A5              1305 	mov	a,#0xA5
   07D9 F0                 1306 	movx	@dptr,a
   07DA 90 13 3D           1307 	mov	dptr,#(_privateKey + 0x003d)
   07DD 74 EC              1308 	mov	a,#0xEC
   07DF F0                 1309 	movx	@dptr,a
   07E0 90 13 3E           1310 	mov	dptr,#(_privateKey + 0x003e)
   07E3 74 E9              1311 	mov	a,#0xE9
   07E5 F0                 1312 	movx	@dptr,a
   07E6 90 13 3F           1313 	mov	dptr,#(_privateKey + 0x003f)
   07E9 74 DE              1314 	mov	a,#0xDE
   07EB F0                 1315 	movx	@dptr,a
   07EC 90 13 40           1316 	mov	dptr,#(_privateKey + 0x0040)
   07EF 74 0B              1317 	mov	a,#0x0B
   07F1 F0                 1318 	movx	@dptr,a
   07F2 90 13 41           1319 	mov	dptr,#(_privateKey + 0x0041)
   07F5 74 E9              1320 	mov	a,#0xE9
   07F7 F0                 1321 	movx	@dptr,a
   07F8 90 13 42           1322 	mov	dptr,#(_privateKey + 0x0042)
   07FB 74 7A              1323 	mov	a,#0x7A
   07FD F0                 1324 	movx	@dptr,a
   07FE 90 13 43           1325 	mov	dptr,#(_privateKey + 0x0043)
   0801 74 72              1326 	mov	a,#0x72
   0803 F0                 1327 	movx	@dptr,a
   0804 90 13 44           1328 	mov	dptr,#(_privateKey + 0x0044)
   0807 74 AE              1329 	mov	a,#0xAE
   0809 F0                 1330 	movx	@dptr,a
   080A 90 13 45           1331 	mov	dptr,#(_privateKey + 0x0045)
   080D 74 A4              1332 	mov	a,#0xA4
   080F F0                 1333 	movx	@dptr,a
   0810 90 13 46           1334 	mov	dptr,#(_privateKey + 0x0046)
   0813 74 56              1335 	mov	a,#0x56
   0815 F0                 1336 	movx	@dptr,a
   0816 90 13 47           1337 	mov	dptr,#(_privateKey + 0x0047)
   0819 74 AF              1338 	mov	a,#0xAF
   081B F0                 1339 	movx	@dptr,a
   081C 90 13 48           1340 	mov	dptr,#(_privateKey + 0x0048)
   081F 74 E3              1341 	mov	a,#0xE3
   0821 F0                 1342 	movx	@dptr,a
   0822 90 13 49           1343 	mov	dptr,#(_privateKey + 0x0049)
   0825 74 AF              1344 	mov	a,#0xAF
   0827 F0                 1345 	movx	@dptr,a
   0828 90 13 4A           1346 	mov	dptr,#(_privateKey + 0x004a)
   082B 74 72              1347 	mov	a,#0x72
   082D F0                 1348 	movx	@dptr,a
   082E 90 13 4B           1349 	mov	dptr,#(_privateKey + 0x004b)
   0831 74 54              1350 	mov	a,#0x54
   0833 F0                 1351 	movx	@dptr,a
   0834 90 13 4C           1352 	mov	dptr,#(_privateKey + 0x004c)
   0837 74 05              1353 	mov	a,#0x05
   0839 F0                 1354 	movx	@dptr,a
   083A 90 13 4D           1355 	mov	dptr,#(_privateKey + 0x004d)
   083D 74 BE              1356 	mov	a,#0xBE
   083F F0                 1357 	movx	@dptr,a
   0840 90 13 4E           1358 	mov	dptr,#(_privateKey + 0x004e)
   0843 74 14              1359 	mov	a,#0x14
   0845 F0                 1360 	movx	@dptr,a
   0846 90 13 4F           1361 	mov	dptr,#(_privateKey + 0x004f)
   0849 74 A1              1362 	mov	a,#0xA1
   084B F0                 1363 	movx	@dptr,a
   084C 90 13 50           1364 	mov	dptr,#(_privateKey + 0x0050)
   084F 74 01              1365 	mov	a,#0x01
   0851 F0                 1366 	movx	@dptr,a
   0852 90 13 51           1367 	mov	dptr,#(_privateKey + 0x0051)
   0855 74 4D              1368 	mov	a,#0x4D
   0857 F0                 1369 	movx	@dptr,a
   0858 90 13 52           1370 	mov	dptr,#(_privateKey + 0x0052)
   085B 74 0D              1371 	mov	a,#0x0D
   085D F0                 1372 	movx	@dptr,a
   085E 90 13 53           1373 	mov	dptr,#(_privateKey + 0x0053)
   0861 74 8D              1374 	mov	a,#0x8D
   0863 F0                 1375 	movx	@dptr,a
   0864 90 13 54           1376 	mov	dptr,#(_privateKey + 0x0054)
   0867 74 02              1377 	mov	a,#0x02
   0869 F0                 1378 	movx	@dptr,a
   086A 90 13 55           1379 	mov	dptr,#(_privateKey + 0x0055)
   086D 74 7F              1380 	mov	a,#0x7F
   086F F0                 1381 	movx	@dptr,a
   0870 90 13 56           1382 	mov	dptr,#(_privateKey + 0x0056)
   0873 74 CA              1383 	mov	a,#0xCA
   0875 F0                 1384 	movx	@dptr,a
   0876 90 13 57           1385 	mov	dptr,#(_privateKey + 0x0057)
   0879 74 EF              1386 	mov	a,#0xEF
   087B F0                 1387 	movx	@dptr,a
   087C 90 13 58           1388 	mov	dptr,#(_privateKey + 0x0058)
   087F 74 EC              1389 	mov	a,#0xEC
   0881 F0                 1390 	movx	@dptr,a
   0882 90 13 59           1391 	mov	dptr,#(_privateKey + 0x0059)
   0885 74 83              1392 	mov	a,#0x83
   0887 F0                 1393 	movx	@dptr,a
   0888 90 13 5A           1394 	mov	dptr,#(_privateKey + 0x005a)
   088B 74 E2              1395 	mov	a,#0xE2
   088D F0                 1396 	movx	@dptr,a
   088E 90 13 5B           1397 	mov	dptr,#(_privateKey + 0x005b)
   0891 74 A0              1398 	mov	a,#0xA0
   0893 F0                 1399 	movx	@dptr,a
   0894 90 13 5C           1400 	mov	dptr,#(_privateKey + 0x005c)
   0897 74 75              1401 	mov	a,#0x75
   0899 F0                 1402 	movx	@dptr,a
   089A 90 13 5D           1403 	mov	dptr,#(_privateKey + 0x005d)
   089D 74 0A              1404 	mov	a,#0x0A
   089F F0                 1405 	movx	@dptr,a
   08A0 90 13 5E           1406 	mov	dptr,#(_privateKey + 0x005e)
   08A3 74 EF              1407 	mov	a,#0xEF
   08A5 F0                 1408 	movx	@dptr,a
   08A6 90 13 5F           1409 	mov	dptr,#(_privateKey + 0x005f)
   08A9 74 0C              1410 	mov	a,#0x0C
   08AB F0                 1411 	movx	@dptr,a
   08AC 90 13 60           1412 	mov	dptr,#(_privateKey + 0x0060)
   08AF 74 2C              1413 	mov	a,#0x2C
   08B1 F0                 1414 	movx	@dptr,a
   08B2 90 13 61           1415 	mov	dptr,#(_privateKey + 0x0061)
   08B5 74 61              1416 	mov	a,#0x61
   08B7 F0                 1417 	movx	@dptr,a
   08B8 90 13 62           1418 	mov	dptr,#(_privateKey + 0x0062)
   08BB 74 C2              1419 	mov	a,#0xC2
   08BD F0                 1420 	movx	@dptr,a
   08BE 90 13 63           1421 	mov	dptr,#(_privateKey + 0x0063)
   08C1 74 5C              1422 	mov	a,#0x5C
   08C3 F0                 1423 	movx	@dptr,a
   08C4 90 13 64           1424 	mov	dptr,#(_privateKey + 0x0064)
   08C7 74 DC              1425 	mov	a,#0xDC
   08C9 F0                 1426 	movx	@dptr,a
   08CA 90 13 65           1427 	mov	dptr,#(_privateKey + 0x0065)
   08CD 74 95              1428 	mov	a,#0x95
   08CF F0                 1429 	movx	@dptr,a
   08D0 90 13 66           1430 	mov	dptr,#(_privateKey + 0x0066)
   08D3 74 C3              1431 	mov	a,#0xC3
   08D5 F0                 1432 	movx	@dptr,a
   08D6 90 13 67           1433 	mov	dptr,#(_privateKey + 0x0067)
   08D9 74 36              1434 	mov	a,#0x36
   08DB F0                 1435 	movx	@dptr,a
   08DC 90 13 68           1436 	mov	dptr,#(_privateKey + 0x0068)
   08DF 74 63              1437 	mov	a,#0x63
   08E1 F0                 1438 	movx	@dptr,a
   08E2 90 13 69           1439 	mov	dptr,#(_privateKey + 0x0069)
   08E5 74 69              1440 	mov	a,#0x69
   08E7 F0                 1441 	movx	@dptr,a
   08E8 90 13 6A           1442 	mov	dptr,#(_privateKey + 0x006a)
   08EB 74 6A              1443 	mov	a,#0x6A
   08ED F0                 1444 	movx	@dptr,a
   08EE 90 13 6B           1445 	mov	dptr,#(_privateKey + 0x006b)
   08F1 74 76              1446 	mov	a,#0x76
   08F3 F0                 1447 	movx	@dptr,a
   08F4 90 13 6C           1448 	mov	dptr,#(_privateKey + 0x006c)
   08F7 74 64              1449 	mov	a,#0x64
   08F9 F0                 1450 	movx	@dptr,a
   08FA 90 13 6D           1451 	mov	dptr,#(_privateKey + 0x006d)
   08FD 74 D2              1452 	mov	a,#0xD2
   08FF F0                 1453 	movx	@dptr,a
   0900 90 13 6E           1454 	mov	dptr,#(_privateKey + 0x006e)
   0903 74 57              1455 	mov	a,#0x57
   0905 F0                 1456 	movx	@dptr,a
   0906 90 13 6F           1457 	mov	dptr,#(_privateKey + 0x006f)
   0909 74 56              1458 	mov	a,#0x56
   090B F0                 1459 	movx	@dptr,a
   090C 90 13 70           1460 	mov	dptr,#(_privateKey + 0x0070)
   090F 74 7F              1461 	mov	a,#0x7F
   0911 F0                 1462 	movx	@dptr,a
   0912 90 13 71           1463 	mov	dptr,#(_privateKey + 0x0071)
   0915 74 E3              1464 	mov	a,#0xE3
   0917 F0                 1465 	movx	@dptr,a
   0918 90 13 72           1466 	mov	dptr,#(_privateKey + 0x0072)
   091B 74 C9              1467 	mov	a,#0xC9
   091D F0                 1468 	movx	@dptr,a
   091E 90 13 73           1469 	mov	dptr,#(_privateKey + 0x0073)
   0921 74 CA              1470 	mov	a,#0xCA
   0923 F0                 1471 	movx	@dptr,a
   0924 90 13 74           1472 	mov	dptr,#(_privateKey + 0x0074)
   0927 74 11              1473 	mov	a,#0x11
   0929 F0                 1474 	movx	@dptr,a
   092A 90 13 75           1475 	mov	dptr,#(_privateKey + 0x0075)
   092D 74 1F              1476 	mov	a,#0x1F
   092F F0                 1477 	movx	@dptr,a
   0930 90 13 76           1478 	mov	dptr,#(_privateKey + 0x0076)
   0933 74 FD              1479 	mov	a,#0xFD
   0935 F0                 1480 	movx	@dptr,a
   0936 90 13 77           1481 	mov	dptr,#(_privateKey + 0x0077)
   0939 74 FC              1482 	mov	a,#0xFC
   093B F0                 1483 	movx	@dptr,a
   093C 90 13 78           1484 	mov	dptr,#(_privateKey + 0x0078)
   093F 74 1A              1485 	mov	a,#0x1A
   0941 F0                 1486 	movx	@dptr,a
   0942 90 13 79           1487 	mov	dptr,#(_privateKey + 0x0079)
   0945 74 54              1488 	mov	a,#0x54
   0947 F0                 1489 	movx	@dptr,a
   0948 90 13 7A           1490 	mov	dptr,#(_privateKey + 0x007a)
   094B 74 A0              1491 	mov	a,#0xA0
   094D F0                 1492 	movx	@dptr,a
   094E 90 13 7B           1493 	mov	dptr,#(_privateKey + 0x007b)
   0951 74 70              1494 	mov	a,#0x70
   0953 F0                 1495 	movx	@dptr,a
   0954 90 13 7C           1496 	mov	dptr,#(_privateKey + 0x007c)
   0957 74 42              1497 	mov	a,#0x42
   0959 F0                 1498 	movx	@dptr,a
   095A 90 13 7D           1499 	mov	dptr,#(_privateKey + 0x007d)
   095D 74 97              1500 	mov	a,#0x97
   095F F0                 1501 	movx	@dptr,a
   0960 90 13 7E           1502 	mov	dptr,#(_privateKey + 0x007e)
   0963 74 F7              1503 	mov	a,#0xF7
   0965 F0                 1504 	movx	@dptr,a
   0966 90 13 7F           1505 	mov	dptr,#(_privateKey + 0x007f)
   0969 74 6D              1506 	mov	a,#0x6D
   096B F0                 1507 	movx	@dptr,a
                           1508 ;	main.c:28: volatile __xdata __at (0x1400) unsigned char rmodm[SIZE] = {0x95, 0x0C, 0x9E, 0x79, 0xEC, 0xD3, 0x0A, 0xE4, 0x35, 0x6B, 0x60, 0xED, 0x25, 0x25, 0x33, 0xD9, 0x26, 0x8C, 0xD1, 0x99, 0xEE, 0x9C, 0x11, 0x8D, 0xBC, 0xBF, 0x68, 0xAA, 0xB3, 0xF9, 0xDF, 0xDC, 0x80, 0xB8, 0x28, 0x60, 0x2B, 0x21, 0x03, 0x89, 0xEF, 0x2C, 0xE6, 0x93, 0x6F, 0xBB, 0xA7, 0x56, 0x28, 0xB5, 0x99, 0xD7, 0x69, 0xDB, 0x6B, 0x09, 0xF7, 0x0B, 0x84, 0xE5, 0xB2, 0xF8, 0x79, 0xC4, 0xD5, 0x7B, 0x06, 0x45, 0xB5, 0x22, 0xC2, 0x28, 0xF8, 0x7A, 0x39, 0x98, 0xE7, 0xA4, 0x54, 0x45, 0xA2, 0x0D, 0xCA, 0xB1, 0x3B, 0x9E, 0x59, 0xF9, 0xFB, 0xAA, 0x30, 0x97, 0x6D, 0x9B, 0x24, 0x6F, 0x74, 0x30, 0xA7, 0xAF, 0xFF, 0x84, 0x2C, 0x49, 0x1B, 0x30, 0x9F, 0xB5, 0x96, 0x3D, 0x8F, 0xC2, 0xF0, 0x3B, 0xFC, 0xD4, 0xB2, 0x78, 0x05, 0xD3, 0xCB, 0x80, 0x88, 0x85, 0x95, 0x7A, 0xB7, 0x64};
   096C 90 14 00           1509 	mov	dptr,#_rmodm
   096F 74 95              1510 	mov	a,#0x95
   0971 F0                 1511 	movx	@dptr,a
   0972 90 14 01           1512 	mov	dptr,#(_rmodm + 0x0001)
   0975 74 0C              1513 	mov	a,#0x0C
   0977 F0                 1514 	movx	@dptr,a
   0978 90 14 02           1515 	mov	dptr,#(_rmodm + 0x0002)
   097B 74 9E              1516 	mov	a,#0x9E
   097D F0                 1517 	movx	@dptr,a
   097E 90 14 03           1518 	mov	dptr,#(_rmodm + 0x0003)
   0981 74 79              1519 	mov	a,#0x79
   0983 F0                 1520 	movx	@dptr,a
   0984 90 14 04           1521 	mov	dptr,#(_rmodm + 0x0004)
   0987 74 EC              1522 	mov	a,#0xEC
   0989 F0                 1523 	movx	@dptr,a
   098A 90 14 05           1524 	mov	dptr,#(_rmodm + 0x0005)
   098D 74 D3              1525 	mov	a,#0xD3
   098F F0                 1526 	movx	@dptr,a
   0990 90 14 06           1527 	mov	dptr,#(_rmodm + 0x0006)
   0993 74 0A              1528 	mov	a,#0x0A
   0995 F0                 1529 	movx	@dptr,a
   0996 90 14 07           1530 	mov	dptr,#(_rmodm + 0x0007)
   0999 74 E4              1531 	mov	a,#0xE4
   099B F0                 1532 	movx	@dptr,a
   099C 90 14 08           1533 	mov	dptr,#(_rmodm + 0x0008)
   099F 74 35              1534 	mov	a,#0x35
   09A1 F0                 1535 	movx	@dptr,a
   09A2 90 14 09           1536 	mov	dptr,#(_rmodm + 0x0009)
   09A5 74 6B              1537 	mov	a,#0x6B
   09A7 F0                 1538 	movx	@dptr,a
   09A8 90 14 0A           1539 	mov	dptr,#(_rmodm + 0x000a)
   09AB 74 60              1540 	mov	a,#0x60
   09AD F0                 1541 	movx	@dptr,a
   09AE 90 14 0B           1542 	mov	dptr,#(_rmodm + 0x000b)
   09B1 74 ED              1543 	mov	a,#0xED
   09B3 F0                 1544 	movx	@dptr,a
   09B4 90 14 0C           1545 	mov	dptr,#(_rmodm + 0x000c)
   09B7 74 25              1546 	mov	a,#0x25
   09B9 F0                 1547 	movx	@dptr,a
   09BA 90 14 0D           1548 	mov	dptr,#(_rmodm + 0x000d)
   09BD 74 25              1549 	mov	a,#0x25
   09BF F0                 1550 	movx	@dptr,a
   09C0 90 14 0E           1551 	mov	dptr,#(_rmodm + 0x000e)
   09C3 74 33              1552 	mov	a,#0x33
   09C5 F0                 1553 	movx	@dptr,a
   09C6 90 14 0F           1554 	mov	dptr,#(_rmodm + 0x000f)
   09C9 74 D9              1555 	mov	a,#0xD9
   09CB F0                 1556 	movx	@dptr,a
   09CC 90 14 10           1557 	mov	dptr,#(_rmodm + 0x0010)
   09CF 74 26              1558 	mov	a,#0x26
   09D1 F0                 1559 	movx	@dptr,a
   09D2 90 14 11           1560 	mov	dptr,#(_rmodm + 0x0011)
   09D5 74 8C              1561 	mov	a,#0x8C
   09D7 F0                 1562 	movx	@dptr,a
   09D8 90 14 12           1563 	mov	dptr,#(_rmodm + 0x0012)
   09DB 74 D1              1564 	mov	a,#0xD1
   09DD F0                 1565 	movx	@dptr,a
   09DE 90 14 13           1566 	mov	dptr,#(_rmodm + 0x0013)
   09E1 74 99              1567 	mov	a,#0x99
   09E3 F0                 1568 	movx	@dptr,a
   09E4 90 14 14           1569 	mov	dptr,#(_rmodm + 0x0014)
   09E7 74 EE              1570 	mov	a,#0xEE
   09E9 F0                 1571 	movx	@dptr,a
   09EA 90 14 15           1572 	mov	dptr,#(_rmodm + 0x0015)
   09ED 74 9C              1573 	mov	a,#0x9C
   09EF F0                 1574 	movx	@dptr,a
   09F0 90 14 16           1575 	mov	dptr,#(_rmodm + 0x0016)
   09F3 74 11              1576 	mov	a,#0x11
   09F5 F0                 1577 	movx	@dptr,a
   09F6 90 14 17           1578 	mov	dptr,#(_rmodm + 0x0017)
   09F9 74 8D              1579 	mov	a,#0x8D
   09FB F0                 1580 	movx	@dptr,a
   09FC 90 14 18           1581 	mov	dptr,#(_rmodm + 0x0018)
   09FF 74 BC              1582 	mov	a,#0xBC
   0A01 F0                 1583 	movx	@dptr,a
   0A02 90 14 19           1584 	mov	dptr,#(_rmodm + 0x0019)
   0A05 74 BF              1585 	mov	a,#0xBF
   0A07 F0                 1586 	movx	@dptr,a
   0A08 90 14 1A           1587 	mov	dptr,#(_rmodm + 0x001a)
   0A0B 74 68              1588 	mov	a,#0x68
   0A0D F0                 1589 	movx	@dptr,a
   0A0E 90 14 1B           1590 	mov	dptr,#(_rmodm + 0x001b)
   0A11 74 AA              1591 	mov	a,#0xAA
   0A13 F0                 1592 	movx	@dptr,a
   0A14 90 14 1C           1593 	mov	dptr,#(_rmodm + 0x001c)
   0A17 74 B3              1594 	mov	a,#0xB3
   0A19 F0                 1595 	movx	@dptr,a
   0A1A 90 14 1D           1596 	mov	dptr,#(_rmodm + 0x001d)
   0A1D 74 F9              1597 	mov	a,#0xF9
   0A1F F0                 1598 	movx	@dptr,a
   0A20 90 14 1E           1599 	mov	dptr,#(_rmodm + 0x001e)
   0A23 74 DF              1600 	mov	a,#0xDF
   0A25 F0                 1601 	movx	@dptr,a
   0A26 90 14 1F           1602 	mov	dptr,#(_rmodm + 0x001f)
   0A29 74 DC              1603 	mov	a,#0xDC
   0A2B F0                 1604 	movx	@dptr,a
   0A2C 90 14 20           1605 	mov	dptr,#(_rmodm + 0x0020)
   0A2F 74 80              1606 	mov	a,#0x80
   0A31 F0                 1607 	movx	@dptr,a
   0A32 90 14 21           1608 	mov	dptr,#(_rmodm + 0x0021)
   0A35 74 B8              1609 	mov	a,#0xB8
   0A37 F0                 1610 	movx	@dptr,a
   0A38 90 14 22           1611 	mov	dptr,#(_rmodm + 0x0022)
   0A3B 74 28              1612 	mov	a,#0x28
   0A3D F0                 1613 	movx	@dptr,a
   0A3E 90 14 23           1614 	mov	dptr,#(_rmodm + 0x0023)
   0A41 74 60              1615 	mov	a,#0x60
   0A43 F0                 1616 	movx	@dptr,a
   0A44 90 14 24           1617 	mov	dptr,#(_rmodm + 0x0024)
   0A47 74 2B              1618 	mov	a,#0x2B
   0A49 F0                 1619 	movx	@dptr,a
   0A4A 90 14 25           1620 	mov	dptr,#(_rmodm + 0x0025)
   0A4D 74 21              1621 	mov	a,#0x21
   0A4F F0                 1622 	movx	@dptr,a
   0A50 90 14 26           1623 	mov	dptr,#(_rmodm + 0x0026)
   0A53 74 03              1624 	mov	a,#0x03
   0A55 F0                 1625 	movx	@dptr,a
   0A56 90 14 27           1626 	mov	dptr,#(_rmodm + 0x0027)
   0A59 74 89              1627 	mov	a,#0x89
   0A5B F0                 1628 	movx	@dptr,a
   0A5C 90 14 28           1629 	mov	dptr,#(_rmodm + 0x0028)
   0A5F 74 EF              1630 	mov	a,#0xEF
   0A61 F0                 1631 	movx	@dptr,a
   0A62 90 14 29           1632 	mov	dptr,#(_rmodm + 0x0029)
   0A65 74 2C              1633 	mov	a,#0x2C
   0A67 F0                 1634 	movx	@dptr,a
   0A68 90 14 2A           1635 	mov	dptr,#(_rmodm + 0x002a)
   0A6B 74 E6              1636 	mov	a,#0xE6
   0A6D F0                 1637 	movx	@dptr,a
   0A6E 90 14 2B           1638 	mov	dptr,#(_rmodm + 0x002b)
   0A71 74 93              1639 	mov	a,#0x93
   0A73 F0                 1640 	movx	@dptr,a
   0A74 90 14 2C           1641 	mov	dptr,#(_rmodm + 0x002c)
   0A77 74 6F              1642 	mov	a,#0x6F
   0A79 F0                 1643 	movx	@dptr,a
   0A7A 90 14 2D           1644 	mov	dptr,#(_rmodm + 0x002d)
   0A7D 74 BB              1645 	mov	a,#0xBB
   0A7F F0                 1646 	movx	@dptr,a
   0A80 90 14 2E           1647 	mov	dptr,#(_rmodm + 0x002e)
   0A83 74 A7              1648 	mov	a,#0xA7
   0A85 F0                 1649 	movx	@dptr,a
   0A86 90 14 2F           1650 	mov	dptr,#(_rmodm + 0x002f)
   0A89 74 56              1651 	mov	a,#0x56
   0A8B F0                 1652 	movx	@dptr,a
   0A8C 90 14 30           1653 	mov	dptr,#(_rmodm + 0x0030)
   0A8F 74 28              1654 	mov	a,#0x28
   0A91 F0                 1655 	movx	@dptr,a
   0A92 90 14 31           1656 	mov	dptr,#(_rmodm + 0x0031)
   0A95 74 B5              1657 	mov	a,#0xB5
   0A97 F0                 1658 	movx	@dptr,a
   0A98 90 14 32           1659 	mov	dptr,#(_rmodm + 0x0032)
   0A9B 74 99              1660 	mov	a,#0x99
   0A9D F0                 1661 	movx	@dptr,a
   0A9E 90 14 33           1662 	mov	dptr,#(_rmodm + 0x0033)
   0AA1 74 D7              1663 	mov	a,#0xD7
   0AA3 F0                 1664 	movx	@dptr,a
   0AA4 90 14 34           1665 	mov	dptr,#(_rmodm + 0x0034)
   0AA7 74 69              1666 	mov	a,#0x69
   0AA9 F0                 1667 	movx	@dptr,a
   0AAA 90 14 35           1668 	mov	dptr,#(_rmodm + 0x0035)
   0AAD 74 DB              1669 	mov	a,#0xDB
   0AAF F0                 1670 	movx	@dptr,a
   0AB0 90 14 36           1671 	mov	dptr,#(_rmodm + 0x0036)
   0AB3 74 6B              1672 	mov	a,#0x6B
   0AB5 F0                 1673 	movx	@dptr,a
   0AB6 90 14 37           1674 	mov	dptr,#(_rmodm + 0x0037)
   0AB9 74 09              1675 	mov	a,#0x09
   0ABB F0                 1676 	movx	@dptr,a
   0ABC 90 14 38           1677 	mov	dptr,#(_rmodm + 0x0038)
   0ABF 74 F7              1678 	mov	a,#0xF7
   0AC1 F0                 1679 	movx	@dptr,a
   0AC2 90 14 39           1680 	mov	dptr,#(_rmodm + 0x0039)
   0AC5 74 0B              1681 	mov	a,#0x0B
   0AC7 F0                 1682 	movx	@dptr,a
   0AC8 90 14 3A           1683 	mov	dptr,#(_rmodm + 0x003a)
   0ACB 74 84              1684 	mov	a,#0x84
   0ACD F0                 1685 	movx	@dptr,a
   0ACE 90 14 3B           1686 	mov	dptr,#(_rmodm + 0x003b)
   0AD1 74 E5              1687 	mov	a,#0xE5
   0AD3 F0                 1688 	movx	@dptr,a
   0AD4 90 14 3C           1689 	mov	dptr,#(_rmodm + 0x003c)
   0AD7 74 B2              1690 	mov	a,#0xB2
   0AD9 F0                 1691 	movx	@dptr,a
   0ADA 90 14 3D           1692 	mov	dptr,#(_rmodm + 0x003d)
   0ADD 74 F8              1693 	mov	a,#0xF8
   0ADF F0                 1694 	movx	@dptr,a
   0AE0 90 14 3E           1695 	mov	dptr,#(_rmodm + 0x003e)
   0AE3 74 79              1696 	mov	a,#0x79
   0AE5 F0                 1697 	movx	@dptr,a
   0AE6 90 14 3F           1698 	mov	dptr,#(_rmodm + 0x003f)
   0AE9 74 C4              1699 	mov	a,#0xC4
   0AEB F0                 1700 	movx	@dptr,a
   0AEC 90 14 40           1701 	mov	dptr,#(_rmodm + 0x0040)
   0AEF 74 D5              1702 	mov	a,#0xD5
   0AF1 F0                 1703 	movx	@dptr,a
   0AF2 90 14 41           1704 	mov	dptr,#(_rmodm + 0x0041)
   0AF5 74 7B              1705 	mov	a,#0x7B
   0AF7 F0                 1706 	movx	@dptr,a
   0AF8 90 14 42           1707 	mov	dptr,#(_rmodm + 0x0042)
   0AFB 74 06              1708 	mov	a,#0x06
   0AFD F0                 1709 	movx	@dptr,a
   0AFE 90 14 43           1710 	mov	dptr,#(_rmodm + 0x0043)
   0B01 74 45              1711 	mov	a,#0x45
   0B03 F0                 1712 	movx	@dptr,a
   0B04 90 14 44           1713 	mov	dptr,#(_rmodm + 0x0044)
   0B07 74 B5              1714 	mov	a,#0xB5
   0B09 F0                 1715 	movx	@dptr,a
   0B0A 90 14 45           1716 	mov	dptr,#(_rmodm + 0x0045)
   0B0D 74 22              1717 	mov	a,#0x22
   0B0F F0                 1718 	movx	@dptr,a
   0B10 90 14 46           1719 	mov	dptr,#(_rmodm + 0x0046)
   0B13 74 C2              1720 	mov	a,#0xC2
   0B15 F0                 1721 	movx	@dptr,a
   0B16 90 14 47           1722 	mov	dptr,#(_rmodm + 0x0047)
   0B19 74 28              1723 	mov	a,#0x28
   0B1B F0                 1724 	movx	@dptr,a
   0B1C 90 14 48           1725 	mov	dptr,#(_rmodm + 0x0048)
   0B1F 74 F8              1726 	mov	a,#0xF8
   0B21 F0                 1727 	movx	@dptr,a
   0B22 90 14 49           1728 	mov	dptr,#(_rmodm + 0x0049)
   0B25 74 7A              1729 	mov	a,#0x7A
   0B27 F0                 1730 	movx	@dptr,a
   0B28 90 14 4A           1731 	mov	dptr,#(_rmodm + 0x004a)
   0B2B 74 39              1732 	mov	a,#0x39
   0B2D F0                 1733 	movx	@dptr,a
   0B2E 90 14 4B           1734 	mov	dptr,#(_rmodm + 0x004b)
   0B31 74 98              1735 	mov	a,#0x98
   0B33 F0                 1736 	movx	@dptr,a
   0B34 90 14 4C           1737 	mov	dptr,#(_rmodm + 0x004c)
   0B37 74 E7              1738 	mov	a,#0xE7
   0B39 F0                 1739 	movx	@dptr,a
   0B3A 90 14 4D           1740 	mov	dptr,#(_rmodm + 0x004d)
   0B3D 74 A4              1741 	mov	a,#0xA4
   0B3F F0                 1742 	movx	@dptr,a
   0B40 90 14 4E           1743 	mov	dptr,#(_rmodm + 0x004e)
   0B43 74 54              1744 	mov	a,#0x54
   0B45 F0                 1745 	movx	@dptr,a
   0B46 90 14 4F           1746 	mov	dptr,#(_rmodm + 0x004f)
   0B49 74 45              1747 	mov	a,#0x45
   0B4B F0                 1748 	movx	@dptr,a
   0B4C 90 14 50           1749 	mov	dptr,#(_rmodm + 0x0050)
   0B4F 74 A2              1750 	mov	a,#0xA2
   0B51 F0                 1751 	movx	@dptr,a
   0B52 90 14 51           1752 	mov	dptr,#(_rmodm + 0x0051)
   0B55 74 0D              1753 	mov	a,#0x0D
   0B57 F0                 1754 	movx	@dptr,a
   0B58 90 14 52           1755 	mov	dptr,#(_rmodm + 0x0052)
   0B5B 74 CA              1756 	mov	a,#0xCA
   0B5D F0                 1757 	movx	@dptr,a
   0B5E 90 14 53           1758 	mov	dptr,#(_rmodm + 0x0053)
   0B61 74 B1              1759 	mov	a,#0xB1
   0B63 F0                 1760 	movx	@dptr,a
   0B64 90 14 54           1761 	mov	dptr,#(_rmodm + 0x0054)
   0B67 74 3B              1762 	mov	a,#0x3B
   0B69 F0                 1763 	movx	@dptr,a
   0B6A 90 14 55           1764 	mov	dptr,#(_rmodm + 0x0055)
   0B6D 74 9E              1765 	mov	a,#0x9E
   0B6F F0                 1766 	movx	@dptr,a
   0B70 90 14 56           1767 	mov	dptr,#(_rmodm + 0x0056)
   0B73 74 59              1768 	mov	a,#0x59
   0B75 F0                 1769 	movx	@dptr,a
   0B76 90 14 57           1770 	mov	dptr,#(_rmodm + 0x0057)
   0B79 74 F9              1771 	mov	a,#0xF9
   0B7B F0                 1772 	movx	@dptr,a
   0B7C 90 14 58           1773 	mov	dptr,#(_rmodm + 0x0058)
   0B7F 74 FB              1774 	mov	a,#0xFB
   0B81 F0                 1775 	movx	@dptr,a
   0B82 90 14 59           1776 	mov	dptr,#(_rmodm + 0x0059)
   0B85 74 AA              1777 	mov	a,#0xAA
   0B87 F0                 1778 	movx	@dptr,a
   0B88 90 14 5A           1779 	mov	dptr,#(_rmodm + 0x005a)
   0B8B 74 30              1780 	mov	a,#0x30
   0B8D F0                 1781 	movx	@dptr,a
   0B8E 90 14 5B           1782 	mov	dptr,#(_rmodm + 0x005b)
   0B91 74 97              1783 	mov	a,#0x97
   0B93 F0                 1784 	movx	@dptr,a
   0B94 90 14 5C           1785 	mov	dptr,#(_rmodm + 0x005c)
   0B97 74 6D              1786 	mov	a,#0x6D
   0B99 F0                 1787 	movx	@dptr,a
   0B9A 90 14 5D           1788 	mov	dptr,#(_rmodm + 0x005d)
   0B9D 74 9B              1789 	mov	a,#0x9B
   0B9F F0                 1790 	movx	@dptr,a
   0BA0 90 14 5E           1791 	mov	dptr,#(_rmodm + 0x005e)
   0BA3 74 24              1792 	mov	a,#0x24
   0BA5 F0                 1793 	movx	@dptr,a
   0BA6 90 14 5F           1794 	mov	dptr,#(_rmodm + 0x005f)
   0BA9 74 6F              1795 	mov	a,#0x6F
   0BAB F0                 1796 	movx	@dptr,a
   0BAC 90 14 60           1797 	mov	dptr,#(_rmodm + 0x0060)
   0BAF 74 74              1798 	mov	a,#0x74
   0BB1 F0                 1799 	movx	@dptr,a
   0BB2 90 14 61           1800 	mov	dptr,#(_rmodm + 0x0061)
   0BB5 74 30              1801 	mov	a,#0x30
   0BB7 F0                 1802 	movx	@dptr,a
   0BB8 90 14 62           1803 	mov	dptr,#(_rmodm + 0x0062)
   0BBB 74 A7              1804 	mov	a,#0xA7
   0BBD F0                 1805 	movx	@dptr,a
   0BBE 90 14 63           1806 	mov	dptr,#(_rmodm + 0x0063)
   0BC1 74 AF              1807 	mov	a,#0xAF
   0BC3 F0                 1808 	movx	@dptr,a
   0BC4 90 14 64           1809 	mov	dptr,#(_rmodm + 0x0064)
   0BC7 74 FF              1810 	mov	a,#0xFF
   0BC9 F0                 1811 	movx	@dptr,a
   0BCA 90 14 65           1812 	mov	dptr,#(_rmodm + 0x0065)
   0BCD 74 84              1813 	mov	a,#0x84
   0BCF F0                 1814 	movx	@dptr,a
   0BD0 90 14 66           1815 	mov	dptr,#(_rmodm + 0x0066)
   0BD3 74 2C              1816 	mov	a,#0x2C
   0BD5 F0                 1817 	movx	@dptr,a
   0BD6 90 14 67           1818 	mov	dptr,#(_rmodm + 0x0067)
   0BD9 74 49              1819 	mov	a,#0x49
   0BDB F0                 1820 	movx	@dptr,a
   0BDC 90 14 68           1821 	mov	dptr,#(_rmodm + 0x0068)
   0BDF 74 1B              1822 	mov	a,#0x1B
   0BE1 F0                 1823 	movx	@dptr,a
   0BE2 90 14 69           1824 	mov	dptr,#(_rmodm + 0x0069)
   0BE5 74 30              1825 	mov	a,#0x30
   0BE7 F0                 1826 	movx	@dptr,a
   0BE8 90 14 6A           1827 	mov	dptr,#(_rmodm + 0x006a)
   0BEB 74 9F              1828 	mov	a,#0x9F
   0BED F0                 1829 	movx	@dptr,a
   0BEE 90 14 6B           1830 	mov	dptr,#(_rmodm + 0x006b)
   0BF1 74 B5              1831 	mov	a,#0xB5
   0BF3 F0                 1832 	movx	@dptr,a
   0BF4 90 14 6C           1833 	mov	dptr,#(_rmodm + 0x006c)
   0BF7 74 96              1834 	mov	a,#0x96
   0BF9 F0                 1835 	movx	@dptr,a
   0BFA 90 14 6D           1836 	mov	dptr,#(_rmodm + 0x006d)
   0BFD 74 3D              1837 	mov	a,#0x3D
   0BFF F0                 1838 	movx	@dptr,a
   0C00 90 14 6E           1839 	mov	dptr,#(_rmodm + 0x006e)
   0C03 74 8F              1840 	mov	a,#0x8F
   0C05 F0                 1841 	movx	@dptr,a
   0C06 90 14 6F           1842 	mov	dptr,#(_rmodm + 0x006f)
   0C09 74 C2              1843 	mov	a,#0xC2
   0C0B F0                 1844 	movx	@dptr,a
   0C0C 90 14 70           1845 	mov	dptr,#(_rmodm + 0x0070)
   0C0F 74 F0              1846 	mov	a,#0xF0
   0C11 F0                 1847 	movx	@dptr,a
   0C12 90 14 71           1848 	mov	dptr,#(_rmodm + 0x0071)
   0C15 74 3B              1849 	mov	a,#0x3B
   0C17 F0                 1850 	movx	@dptr,a
   0C18 90 14 72           1851 	mov	dptr,#(_rmodm + 0x0072)
   0C1B 74 FC              1852 	mov	a,#0xFC
   0C1D F0                 1853 	movx	@dptr,a
   0C1E 90 14 73           1854 	mov	dptr,#(_rmodm + 0x0073)
   0C21 74 D4              1855 	mov	a,#0xD4
   0C23 F0                 1856 	movx	@dptr,a
   0C24 90 14 74           1857 	mov	dptr,#(_rmodm + 0x0074)
   0C27 74 B2              1858 	mov	a,#0xB2
   0C29 F0                 1859 	movx	@dptr,a
   0C2A 90 14 75           1860 	mov	dptr,#(_rmodm + 0x0075)
   0C2D 74 78              1861 	mov	a,#0x78
   0C2F F0                 1862 	movx	@dptr,a
   0C30 90 14 76           1863 	mov	dptr,#(_rmodm + 0x0076)
   0C33 74 05              1864 	mov	a,#0x05
   0C35 F0                 1865 	movx	@dptr,a
   0C36 90 14 77           1866 	mov	dptr,#(_rmodm + 0x0077)
   0C39 74 D3              1867 	mov	a,#0xD3
   0C3B F0                 1868 	movx	@dptr,a
   0C3C 90 14 78           1869 	mov	dptr,#(_rmodm + 0x0078)
   0C3F 74 CB              1870 	mov	a,#0xCB
   0C41 F0                 1871 	movx	@dptr,a
   0C42 90 14 79           1872 	mov	dptr,#(_rmodm + 0x0079)
   0C45 74 80              1873 	mov	a,#0x80
   0C47 F0                 1874 	movx	@dptr,a
   0C48 90 14 7A           1875 	mov	dptr,#(_rmodm + 0x007a)
   0C4B 74 88              1876 	mov	a,#0x88
   0C4D F0                 1877 	movx	@dptr,a
   0C4E 90 14 7B           1878 	mov	dptr,#(_rmodm + 0x007b)
   0C51 74 85              1879 	mov	a,#0x85
   0C53 F0                 1880 	movx	@dptr,a
   0C54 90 14 7C           1881 	mov	dptr,#(_rmodm + 0x007c)
   0C57 74 95              1882 	mov	a,#0x95
   0C59 F0                 1883 	movx	@dptr,a
   0C5A 90 14 7D           1884 	mov	dptr,#(_rmodm + 0x007d)
   0C5D 74 7A              1885 	mov	a,#0x7A
   0C5F F0                 1886 	movx	@dptr,a
   0C60 90 14 7E           1887 	mov	dptr,#(_rmodm + 0x007e)
   0C63 74 B7              1888 	mov	a,#0xB7
   0C65 F0                 1889 	movx	@dptr,a
   0C66 90 14 7F           1890 	mov	dptr,#(_rmodm + 0x007f)
   0C69 74 64              1891 	mov	a,#0x64
   0C6B F0                 1892 	movx	@dptr,a
                           1893 ;	main.c:29: volatile __xdata __at (0x1500) unsigned char r2modm[SIZE] = {0xE4, 0xC4, 0x31, 0x31, 0x08, 0x64, 0x1B, 0xC5, 0x40, 0x21, 0xD5, 0x3F, 0x82, 0x98, 0xB5, 0x8B, 0x0C, 0xDA, 0xDE, 0x0A, 0x73, 0xD6, 0x75, 0x80, 0x81, 0x7B, 0xAF, 0x90, 0x51, 0xA2, 0x22, 0xDF, 0x60, 0xAD, 0x1A, 0x5A, 0x69, 0x4E, 0x87, 0xF5, 0x82, 0x19, 0xC7, 0xDD, 0xAF, 0xEB, 0x7A, 0x3E, 0xF3, 0xDA, 0xB1, 0xE1, 0xED, 0xD2, 0x2E, 0x26, 0x7D, 0xD5, 0xB7, 0xC3, 0x13, 0x09, 0xD5, 0x11, 0xDE, 0x9E, 0x12, 0x6A, 0x51, 0xF5, 0x83, 0x1B, 0xDE, 0xAB, 0x6D, 0xD7, 0xAD, 0x32, 0x07, 0x6C, 0x95, 0x2A, 0x56, 0xFF, 0xD7, 0xE7, 0x00, 0x85, 0xBE, 0xB4, 0x3E, 0xEF, 0x73, 0x88, 0x75, 0xD9, 0x5C, 0x6A, 0xB1, 0x58, 0x4A, 0xBC, 0x80, 0x53, 0x63, 0x48, 0xFD, 0xA0, 0xFC, 0xAD, 0xD9, 0x34, 0xFB, 0xD3, 0xA9, 0xE8, 0x18, 0x32, 0x33, 0x78, 0xB0, 0x08, 0xE4, 0x7B, 0x59, 0xF2, 0x45, 0x8A};
   0C6C 90 15 00           1894 	mov	dptr,#_r2modm
   0C6F 74 E4              1895 	mov	a,#0xE4
   0C71 F0                 1896 	movx	@dptr,a
   0C72 90 15 01           1897 	mov	dptr,#(_r2modm + 0x0001)
   0C75 74 C4              1898 	mov	a,#0xC4
   0C77 F0                 1899 	movx	@dptr,a
   0C78 90 15 02           1900 	mov	dptr,#(_r2modm + 0x0002)
   0C7B 74 31              1901 	mov	a,#0x31
   0C7D F0                 1902 	movx	@dptr,a
   0C7E 90 15 03           1903 	mov	dptr,#(_r2modm + 0x0003)
   0C81 74 31              1904 	mov	a,#0x31
   0C83 F0                 1905 	movx	@dptr,a
   0C84 90 15 04           1906 	mov	dptr,#(_r2modm + 0x0004)
   0C87 74 08              1907 	mov	a,#0x08
   0C89 F0                 1908 	movx	@dptr,a
   0C8A 90 15 05           1909 	mov	dptr,#(_r2modm + 0x0005)
   0C8D 74 64              1910 	mov	a,#0x64
   0C8F F0                 1911 	movx	@dptr,a
   0C90 90 15 06           1912 	mov	dptr,#(_r2modm + 0x0006)
   0C93 74 1B              1913 	mov	a,#0x1B
   0C95 F0                 1914 	movx	@dptr,a
   0C96 90 15 07           1915 	mov	dptr,#(_r2modm + 0x0007)
   0C99 74 C5              1916 	mov	a,#0xC5
   0C9B F0                 1917 	movx	@dptr,a
   0C9C 90 15 08           1918 	mov	dptr,#(_r2modm + 0x0008)
   0C9F 74 40              1919 	mov	a,#0x40
   0CA1 F0                 1920 	movx	@dptr,a
   0CA2 90 15 09           1921 	mov	dptr,#(_r2modm + 0x0009)
   0CA5 74 21              1922 	mov	a,#0x21
   0CA7 F0                 1923 	movx	@dptr,a
   0CA8 90 15 0A           1924 	mov	dptr,#(_r2modm + 0x000a)
   0CAB 74 D5              1925 	mov	a,#0xD5
   0CAD F0                 1926 	movx	@dptr,a
   0CAE 90 15 0B           1927 	mov	dptr,#(_r2modm + 0x000b)
   0CB1 74 3F              1928 	mov	a,#0x3F
   0CB3 F0                 1929 	movx	@dptr,a
   0CB4 90 15 0C           1930 	mov	dptr,#(_r2modm + 0x000c)
   0CB7 74 82              1931 	mov	a,#0x82
   0CB9 F0                 1932 	movx	@dptr,a
   0CBA 90 15 0D           1933 	mov	dptr,#(_r2modm + 0x000d)
   0CBD 74 98              1934 	mov	a,#0x98
   0CBF F0                 1935 	movx	@dptr,a
   0CC0 90 15 0E           1936 	mov	dptr,#(_r2modm + 0x000e)
   0CC3 74 B5              1937 	mov	a,#0xB5
   0CC5 F0                 1938 	movx	@dptr,a
   0CC6 90 15 0F           1939 	mov	dptr,#(_r2modm + 0x000f)
   0CC9 74 8B              1940 	mov	a,#0x8B
   0CCB F0                 1941 	movx	@dptr,a
   0CCC 90 15 10           1942 	mov	dptr,#(_r2modm + 0x0010)
   0CCF 74 0C              1943 	mov	a,#0x0C
   0CD1 F0                 1944 	movx	@dptr,a
   0CD2 90 15 11           1945 	mov	dptr,#(_r2modm + 0x0011)
   0CD5 74 DA              1946 	mov	a,#0xDA
   0CD7 F0                 1947 	movx	@dptr,a
   0CD8 90 15 12           1948 	mov	dptr,#(_r2modm + 0x0012)
   0CDB 74 DE              1949 	mov	a,#0xDE
   0CDD F0                 1950 	movx	@dptr,a
   0CDE 90 15 13           1951 	mov	dptr,#(_r2modm + 0x0013)
   0CE1 74 0A              1952 	mov	a,#0x0A
   0CE3 F0                 1953 	movx	@dptr,a
   0CE4 90 15 14           1954 	mov	dptr,#(_r2modm + 0x0014)
   0CE7 74 73              1955 	mov	a,#0x73
   0CE9 F0                 1956 	movx	@dptr,a
   0CEA 90 15 15           1957 	mov	dptr,#(_r2modm + 0x0015)
   0CED 74 D6              1958 	mov	a,#0xD6
   0CEF F0                 1959 	movx	@dptr,a
   0CF0 90 15 16           1960 	mov	dptr,#(_r2modm + 0x0016)
   0CF3 74 75              1961 	mov	a,#0x75
   0CF5 F0                 1962 	movx	@dptr,a
   0CF6 90 15 17           1963 	mov	dptr,#(_r2modm + 0x0017)
   0CF9 74 80              1964 	mov	a,#0x80
   0CFB F0                 1965 	movx	@dptr,a
   0CFC 90 15 18           1966 	mov	dptr,#(_r2modm + 0x0018)
   0CFF 74 81              1967 	mov	a,#0x81
   0D01 F0                 1968 	movx	@dptr,a
   0D02 90 15 19           1969 	mov	dptr,#(_r2modm + 0x0019)
   0D05 74 7B              1970 	mov	a,#0x7B
   0D07 F0                 1971 	movx	@dptr,a
   0D08 90 15 1A           1972 	mov	dptr,#(_r2modm + 0x001a)
   0D0B 74 AF              1973 	mov	a,#0xAF
   0D0D F0                 1974 	movx	@dptr,a
   0D0E 90 15 1B           1975 	mov	dptr,#(_r2modm + 0x001b)
   0D11 74 90              1976 	mov	a,#0x90
   0D13 F0                 1977 	movx	@dptr,a
   0D14 90 15 1C           1978 	mov	dptr,#(_r2modm + 0x001c)
   0D17 74 51              1979 	mov	a,#0x51
   0D19 F0                 1980 	movx	@dptr,a
   0D1A 90 15 1D           1981 	mov	dptr,#(_r2modm + 0x001d)
   0D1D 74 A2              1982 	mov	a,#0xA2
   0D1F F0                 1983 	movx	@dptr,a
   0D20 90 15 1E           1984 	mov	dptr,#(_r2modm + 0x001e)
   0D23 74 22              1985 	mov	a,#0x22
   0D25 F0                 1986 	movx	@dptr,a
   0D26 90 15 1F           1987 	mov	dptr,#(_r2modm + 0x001f)
   0D29 74 DF              1988 	mov	a,#0xDF
   0D2B F0                 1989 	movx	@dptr,a
   0D2C 90 15 20           1990 	mov	dptr,#(_r2modm + 0x0020)
   0D2F 74 60              1991 	mov	a,#0x60
   0D31 F0                 1992 	movx	@dptr,a
   0D32 90 15 21           1993 	mov	dptr,#(_r2modm + 0x0021)
   0D35 74 AD              1994 	mov	a,#0xAD
   0D37 F0                 1995 	movx	@dptr,a
   0D38 90 15 22           1996 	mov	dptr,#(_r2modm + 0x0022)
   0D3B 74 1A              1997 	mov	a,#0x1A
   0D3D F0                 1998 	movx	@dptr,a
   0D3E 90 15 23           1999 	mov	dptr,#(_r2modm + 0x0023)
   0D41 74 5A              2000 	mov	a,#0x5A
   0D43 F0                 2001 	movx	@dptr,a
   0D44 90 15 24           2002 	mov	dptr,#(_r2modm + 0x0024)
   0D47 74 69              2003 	mov	a,#0x69
   0D49 F0                 2004 	movx	@dptr,a
   0D4A 90 15 25           2005 	mov	dptr,#(_r2modm + 0x0025)
   0D4D 74 4E              2006 	mov	a,#0x4E
   0D4F F0                 2007 	movx	@dptr,a
   0D50 90 15 26           2008 	mov	dptr,#(_r2modm + 0x0026)
   0D53 74 87              2009 	mov	a,#0x87
   0D55 F0                 2010 	movx	@dptr,a
   0D56 90 15 27           2011 	mov	dptr,#(_r2modm + 0x0027)
   0D59 74 F5              2012 	mov	a,#0xF5
   0D5B F0                 2013 	movx	@dptr,a
   0D5C 90 15 28           2014 	mov	dptr,#(_r2modm + 0x0028)
   0D5F 74 82              2015 	mov	a,#0x82
   0D61 F0                 2016 	movx	@dptr,a
   0D62 90 15 29           2017 	mov	dptr,#(_r2modm + 0x0029)
   0D65 74 19              2018 	mov	a,#0x19
   0D67 F0                 2019 	movx	@dptr,a
   0D68 90 15 2A           2020 	mov	dptr,#(_r2modm + 0x002a)
   0D6B 74 C7              2021 	mov	a,#0xC7
   0D6D F0                 2022 	movx	@dptr,a
   0D6E 90 15 2B           2023 	mov	dptr,#(_r2modm + 0x002b)
   0D71 74 DD              2024 	mov	a,#0xDD
   0D73 F0                 2025 	movx	@dptr,a
   0D74 90 15 2C           2026 	mov	dptr,#(_r2modm + 0x002c)
   0D77 74 AF              2027 	mov	a,#0xAF
   0D79 F0                 2028 	movx	@dptr,a
   0D7A 90 15 2D           2029 	mov	dptr,#(_r2modm + 0x002d)
   0D7D 74 EB              2030 	mov	a,#0xEB
   0D7F F0                 2031 	movx	@dptr,a
   0D80 90 15 2E           2032 	mov	dptr,#(_r2modm + 0x002e)
   0D83 74 7A              2033 	mov	a,#0x7A
   0D85 F0                 2034 	movx	@dptr,a
   0D86 90 15 2F           2035 	mov	dptr,#(_r2modm + 0x002f)
   0D89 74 3E              2036 	mov	a,#0x3E
   0D8B F0                 2037 	movx	@dptr,a
   0D8C 90 15 30           2038 	mov	dptr,#(_r2modm + 0x0030)
   0D8F 74 F3              2039 	mov	a,#0xF3
   0D91 F0                 2040 	movx	@dptr,a
   0D92 90 15 31           2041 	mov	dptr,#(_r2modm + 0x0031)
   0D95 74 DA              2042 	mov	a,#0xDA
   0D97 F0                 2043 	movx	@dptr,a
   0D98 90 15 32           2044 	mov	dptr,#(_r2modm + 0x0032)
   0D9B 74 B1              2045 	mov	a,#0xB1
   0D9D F0                 2046 	movx	@dptr,a
   0D9E 90 15 33           2047 	mov	dptr,#(_r2modm + 0x0033)
   0DA1 74 E1              2048 	mov	a,#0xE1
   0DA3 F0                 2049 	movx	@dptr,a
   0DA4 90 15 34           2050 	mov	dptr,#(_r2modm + 0x0034)
   0DA7 74 ED              2051 	mov	a,#0xED
   0DA9 F0                 2052 	movx	@dptr,a
   0DAA 90 15 35           2053 	mov	dptr,#(_r2modm + 0x0035)
   0DAD 74 D2              2054 	mov	a,#0xD2
   0DAF F0                 2055 	movx	@dptr,a
   0DB0 90 15 36           2056 	mov	dptr,#(_r2modm + 0x0036)
   0DB3 74 2E              2057 	mov	a,#0x2E
   0DB5 F0                 2058 	movx	@dptr,a
   0DB6 90 15 37           2059 	mov	dptr,#(_r2modm + 0x0037)
   0DB9 74 26              2060 	mov	a,#0x26
   0DBB F0                 2061 	movx	@dptr,a
   0DBC 90 15 38           2062 	mov	dptr,#(_r2modm + 0x0038)
   0DBF 74 7D              2063 	mov	a,#0x7D
   0DC1 F0                 2064 	movx	@dptr,a
   0DC2 90 15 39           2065 	mov	dptr,#(_r2modm + 0x0039)
   0DC5 74 D5              2066 	mov	a,#0xD5
   0DC7 F0                 2067 	movx	@dptr,a
   0DC8 90 15 3A           2068 	mov	dptr,#(_r2modm + 0x003a)
   0DCB 74 B7              2069 	mov	a,#0xB7
   0DCD F0                 2070 	movx	@dptr,a
   0DCE 90 15 3B           2071 	mov	dptr,#(_r2modm + 0x003b)
   0DD1 74 C3              2072 	mov	a,#0xC3
   0DD3 F0                 2073 	movx	@dptr,a
   0DD4 90 15 3C           2074 	mov	dptr,#(_r2modm + 0x003c)
   0DD7 74 13              2075 	mov	a,#0x13
   0DD9 F0                 2076 	movx	@dptr,a
   0DDA 90 15 3D           2077 	mov	dptr,#(_r2modm + 0x003d)
   0DDD 74 09              2078 	mov	a,#0x09
   0DDF F0                 2079 	movx	@dptr,a
   0DE0 90 15 3E           2080 	mov	dptr,#(_r2modm + 0x003e)
   0DE3 74 D5              2081 	mov	a,#0xD5
   0DE5 F0                 2082 	movx	@dptr,a
   0DE6 90 15 3F           2083 	mov	dptr,#(_r2modm + 0x003f)
   0DE9 74 11              2084 	mov	a,#0x11
   0DEB F0                 2085 	movx	@dptr,a
   0DEC 90 15 40           2086 	mov	dptr,#(_r2modm + 0x0040)
   0DEF 74 DE              2087 	mov	a,#0xDE
   0DF1 F0                 2088 	movx	@dptr,a
   0DF2 90 15 41           2089 	mov	dptr,#(_r2modm + 0x0041)
   0DF5 74 9E              2090 	mov	a,#0x9E
   0DF7 F0                 2091 	movx	@dptr,a
   0DF8 90 15 42           2092 	mov	dptr,#(_r2modm + 0x0042)
   0DFB 74 12              2093 	mov	a,#0x12
   0DFD F0                 2094 	movx	@dptr,a
   0DFE 90 15 43           2095 	mov	dptr,#(_r2modm + 0x0043)
   0E01 74 6A              2096 	mov	a,#0x6A
   0E03 F0                 2097 	movx	@dptr,a
   0E04 90 15 44           2098 	mov	dptr,#(_r2modm + 0x0044)
   0E07 74 51              2099 	mov	a,#0x51
   0E09 F0                 2100 	movx	@dptr,a
   0E0A 90 15 45           2101 	mov	dptr,#(_r2modm + 0x0045)
   0E0D 74 F5              2102 	mov	a,#0xF5
   0E0F F0                 2103 	movx	@dptr,a
   0E10 90 15 46           2104 	mov	dptr,#(_r2modm + 0x0046)
   0E13 74 83              2105 	mov	a,#0x83
   0E15 F0                 2106 	movx	@dptr,a
   0E16 90 15 47           2107 	mov	dptr,#(_r2modm + 0x0047)
   0E19 74 1B              2108 	mov	a,#0x1B
   0E1B F0                 2109 	movx	@dptr,a
   0E1C 90 15 48           2110 	mov	dptr,#(_r2modm + 0x0048)
   0E1F 74 DE              2111 	mov	a,#0xDE
   0E21 F0                 2112 	movx	@dptr,a
   0E22 90 15 49           2113 	mov	dptr,#(_r2modm + 0x0049)
   0E25 74 AB              2114 	mov	a,#0xAB
   0E27 F0                 2115 	movx	@dptr,a
   0E28 90 15 4A           2116 	mov	dptr,#(_r2modm + 0x004a)
   0E2B 74 6D              2117 	mov	a,#0x6D
   0E2D F0                 2118 	movx	@dptr,a
   0E2E 90 15 4B           2119 	mov	dptr,#(_r2modm + 0x004b)
   0E31 74 D7              2120 	mov	a,#0xD7
   0E33 F0                 2121 	movx	@dptr,a
   0E34 90 15 4C           2122 	mov	dptr,#(_r2modm + 0x004c)
   0E37 74 AD              2123 	mov	a,#0xAD
   0E39 F0                 2124 	movx	@dptr,a
   0E3A 90 15 4D           2125 	mov	dptr,#(_r2modm + 0x004d)
   0E3D 74 32              2126 	mov	a,#0x32
   0E3F F0                 2127 	movx	@dptr,a
   0E40 90 15 4E           2128 	mov	dptr,#(_r2modm + 0x004e)
   0E43 74 07              2129 	mov	a,#0x07
   0E45 F0                 2130 	movx	@dptr,a
   0E46 90 15 4F           2131 	mov	dptr,#(_r2modm + 0x004f)
   0E49 74 6C              2132 	mov	a,#0x6C
   0E4B F0                 2133 	movx	@dptr,a
   0E4C 90 15 50           2134 	mov	dptr,#(_r2modm + 0x0050)
   0E4F 74 95              2135 	mov	a,#0x95
   0E51 F0                 2136 	movx	@dptr,a
   0E52 90 15 51           2137 	mov	dptr,#(_r2modm + 0x0051)
   0E55 74 2A              2138 	mov	a,#0x2A
   0E57 F0                 2139 	movx	@dptr,a
   0E58 90 15 52           2140 	mov	dptr,#(_r2modm + 0x0052)
   0E5B 74 56              2141 	mov	a,#0x56
   0E5D F0                 2142 	movx	@dptr,a
   0E5E 90 15 53           2143 	mov	dptr,#(_r2modm + 0x0053)
   0E61 74 FF              2144 	mov	a,#0xFF
   0E63 F0                 2145 	movx	@dptr,a
   0E64 90 15 54           2146 	mov	dptr,#(_r2modm + 0x0054)
   0E67 74 D7              2147 	mov	a,#0xD7
   0E69 F0                 2148 	movx	@dptr,a
   0E6A 90 15 55           2149 	mov	dptr,#(_r2modm + 0x0055)
   0E6D 74 E7              2150 	mov	a,#0xE7
   0E6F F0                 2151 	movx	@dptr,a
   0E70 90 15 56           2152 	mov	dptr,#(_r2modm + 0x0056)
   0E73 E4                 2153 	clr	a
   0E74 F0                 2154 	movx	@dptr,a
   0E75 90 15 57           2155 	mov	dptr,#(_r2modm + 0x0057)
   0E78 74 85              2156 	mov	a,#0x85
   0E7A F0                 2157 	movx	@dptr,a
   0E7B 90 15 58           2158 	mov	dptr,#(_r2modm + 0x0058)
   0E7E 74 BE              2159 	mov	a,#0xBE
   0E80 F0                 2160 	movx	@dptr,a
   0E81 90 15 59           2161 	mov	dptr,#(_r2modm + 0x0059)
   0E84 74 B4              2162 	mov	a,#0xB4
   0E86 F0                 2163 	movx	@dptr,a
   0E87 90 15 5A           2164 	mov	dptr,#(_r2modm + 0x005a)
   0E8A 74 3E              2165 	mov	a,#0x3E
   0E8C F0                 2166 	movx	@dptr,a
   0E8D 90 15 5B           2167 	mov	dptr,#(_r2modm + 0x005b)
   0E90 74 EF              2168 	mov	a,#0xEF
   0E92 F0                 2169 	movx	@dptr,a
   0E93 90 15 5C           2170 	mov	dptr,#(_r2modm + 0x005c)
   0E96 74 73              2171 	mov	a,#0x73
   0E98 F0                 2172 	movx	@dptr,a
   0E99 90 15 5D           2173 	mov	dptr,#(_r2modm + 0x005d)
   0E9C 74 88              2174 	mov	a,#0x88
   0E9E F0                 2175 	movx	@dptr,a
   0E9F 90 15 5E           2176 	mov	dptr,#(_r2modm + 0x005e)
   0EA2 74 75              2177 	mov	a,#0x75
   0EA4 F0                 2178 	movx	@dptr,a
   0EA5 90 15 5F           2179 	mov	dptr,#(_r2modm + 0x005f)
   0EA8 74 D9              2180 	mov	a,#0xD9
   0EAA F0                 2181 	movx	@dptr,a
   0EAB 90 15 60           2182 	mov	dptr,#(_r2modm + 0x0060)
   0EAE 74 5C              2183 	mov	a,#0x5C
   0EB0 F0                 2184 	movx	@dptr,a
   0EB1 90 15 61           2185 	mov	dptr,#(_r2modm + 0x0061)
   0EB4 74 6A              2186 	mov	a,#0x6A
   0EB6 F0                 2187 	movx	@dptr,a
   0EB7 90 15 62           2188 	mov	dptr,#(_r2modm + 0x0062)
   0EBA 74 B1              2189 	mov	a,#0xB1
   0EBC F0                 2190 	movx	@dptr,a
   0EBD 90 15 63           2191 	mov	dptr,#(_r2modm + 0x0063)
   0EC0 74 58              2192 	mov	a,#0x58
   0EC2 F0                 2193 	movx	@dptr,a
   0EC3 90 15 64           2194 	mov	dptr,#(_r2modm + 0x0064)
   0EC6 74 4A              2195 	mov	a,#0x4A
   0EC8 F0                 2196 	movx	@dptr,a
   0EC9 90 15 65           2197 	mov	dptr,#(_r2modm + 0x0065)
   0ECC 74 BC              2198 	mov	a,#0xBC
   0ECE F0                 2199 	movx	@dptr,a
   0ECF 90 15 66           2200 	mov	dptr,#(_r2modm + 0x0066)
   0ED2 74 80              2201 	mov	a,#0x80
   0ED4 F0                 2202 	movx	@dptr,a
   0ED5 90 15 67           2203 	mov	dptr,#(_r2modm + 0x0067)
   0ED8 74 53              2204 	mov	a,#0x53
   0EDA F0                 2205 	movx	@dptr,a
   0EDB 90 15 68           2206 	mov	dptr,#(_r2modm + 0x0068)
   0EDE 74 63              2207 	mov	a,#0x63
   0EE0 F0                 2208 	movx	@dptr,a
   0EE1 90 15 69           2209 	mov	dptr,#(_r2modm + 0x0069)
   0EE4 74 48              2210 	mov	a,#0x48
   0EE6 F0                 2211 	movx	@dptr,a
   0EE7 90 15 6A           2212 	mov	dptr,#(_r2modm + 0x006a)
   0EEA 74 FD              2213 	mov	a,#0xFD
   0EEC F0                 2214 	movx	@dptr,a
   0EED 90 15 6B           2215 	mov	dptr,#(_r2modm + 0x006b)
   0EF0 74 A0              2216 	mov	a,#0xA0
   0EF2 F0                 2217 	movx	@dptr,a
   0EF3 90 15 6C           2218 	mov	dptr,#(_r2modm + 0x006c)
   0EF6 74 FC              2219 	mov	a,#0xFC
   0EF8 F0                 2220 	movx	@dptr,a
   0EF9 90 15 6D           2221 	mov	dptr,#(_r2modm + 0x006d)
   0EFC 74 AD              2222 	mov	a,#0xAD
   0EFE F0                 2223 	movx	@dptr,a
   0EFF 90 15 6E           2224 	mov	dptr,#(_r2modm + 0x006e)
   0F02 74 D9              2225 	mov	a,#0xD9
   0F04 F0                 2226 	movx	@dptr,a
   0F05 90 15 6F           2227 	mov	dptr,#(_r2modm + 0x006f)
   0F08 74 34              2228 	mov	a,#0x34
   0F0A F0                 2229 	movx	@dptr,a
   0F0B 90 15 70           2230 	mov	dptr,#(_r2modm + 0x0070)
   0F0E 74 FB              2231 	mov	a,#0xFB
   0F10 F0                 2232 	movx	@dptr,a
   0F11 90 15 71           2233 	mov	dptr,#(_r2modm + 0x0071)
   0F14 74 D3              2234 	mov	a,#0xD3
   0F16 F0                 2235 	movx	@dptr,a
   0F17 90 15 72           2236 	mov	dptr,#(_r2modm + 0x0072)
   0F1A 74 A9              2237 	mov	a,#0xA9
   0F1C F0                 2238 	movx	@dptr,a
   0F1D 90 15 73           2239 	mov	dptr,#(_r2modm + 0x0073)
   0F20 74 E8              2240 	mov	a,#0xE8
   0F22 F0                 2241 	movx	@dptr,a
   0F23 90 15 74           2242 	mov	dptr,#(_r2modm + 0x0074)
   0F26 74 18              2243 	mov	a,#0x18
   0F28 F0                 2244 	movx	@dptr,a
   0F29 90 15 75           2245 	mov	dptr,#(_r2modm + 0x0075)
   0F2C 74 32              2246 	mov	a,#0x32
   0F2E F0                 2247 	movx	@dptr,a
   0F2F 90 15 76           2248 	mov	dptr,#(_r2modm + 0x0076)
   0F32 74 33              2249 	mov	a,#0x33
   0F34 F0                 2250 	movx	@dptr,a
   0F35 90 15 77           2251 	mov	dptr,#(_r2modm + 0x0077)
   0F38 74 78              2252 	mov	a,#0x78
   0F3A F0                 2253 	movx	@dptr,a
   0F3B 90 15 78           2254 	mov	dptr,#(_r2modm + 0x0078)
   0F3E 74 B0              2255 	mov	a,#0xB0
   0F40 F0                 2256 	movx	@dptr,a
   0F41 90 15 79           2257 	mov	dptr,#(_r2modm + 0x0079)
   0F44 74 08              2258 	mov	a,#0x08
   0F46 F0                 2259 	movx	@dptr,a
   0F47 90 15 7A           2260 	mov	dptr,#(_r2modm + 0x007a)
   0F4A 74 E4              2261 	mov	a,#0xE4
   0F4C F0                 2262 	movx	@dptr,a
   0F4D 90 15 7B           2263 	mov	dptr,#(_r2modm + 0x007b)
   0F50 74 7B              2264 	mov	a,#0x7B
   0F52 F0                 2265 	movx	@dptr,a
   0F53 90 15 7C           2266 	mov	dptr,#(_r2modm + 0x007c)
   0F56 74 59              2267 	mov	a,#0x59
   0F58 F0                 2268 	movx	@dptr,a
   0F59 90 15 7D           2269 	mov	dptr,#(_r2modm + 0x007d)
   0F5C 74 F2              2270 	mov	a,#0xF2
   0F5E F0                 2271 	movx	@dptr,a
   0F5F 90 15 7E           2272 	mov	dptr,#(_r2modm + 0x007e)
   0F62 74 45              2273 	mov	a,#0x45
   0F64 F0                 2274 	movx	@dptr,a
   0F65 90 15 7F           2275 	mov	dptr,#(_r2modm + 0x007f)
   0F68 74 8A              2276 	mov	a,#0x8A
   0F6A F0                 2277 	movx	@dptr,a
                           2278 	.area GSFINAL (CODE)
   0F6B 02 00 03           2279 	ljmp	__sdcc_program_startup
                           2280 ;--------------------------------------------------------
                           2281 ; Home
                           2282 ;--------------------------------------------------------
                           2283 	.area HOME    (CODE)
                           2284 	.area HOME    (CODE)
   0003                    2285 __sdcc_program_startup:
   0003 12 0F 6E           2286 	lcall	_main
                           2287 ;	return from main will lock up
   0006 80 FE              2288 	sjmp .
                           2289 ;--------------------------------------------------------
                           2290 ; code
                           2291 ;--------------------------------------------------------
                           2292 	.area CSEG    (CODE)
                           2293 ;------------------------------------------------------------
                           2294 ;Allocation info for local variables in function 'main'
                           2295 ;------------------------------------------------------------
                           2296 ;------------------------------------------------------------
                           2297 ;	main.c:54: int main() {
                           2298 ;	-----------------------------------------
                           2299 ;	 function main
                           2300 ;	-----------------------------------------
   0F6E                    2301 _main:
                    0002   2302 	ar2 = 0x02
                    0003   2303 	ar3 = 0x03
                    0004   2304 	ar4 = 0x04
                    0005   2305 	ar5 = 0x05
                    0006   2306 	ar6 = 0x06
                    0007   2307 	ar7 = 0x07
                    0000   2308 	ar0 = 0x00
                    0001   2309 	ar1 = 0x01
                           2310 ;	main.c:56: montModExp(0x20, 0x11, publicKey, 0x10, 0x14, 0x15);
   0F6E 75 09 00           2311 	mov	_montModExp_PARM_3,#_publicKey
   0F71 75 0A 12           2312 	mov	(_montModExp_PARM_3 + 1),#(_publicKey >> 8)
   0F74 75 0B 00           2313 	mov	(_montModExp_PARM_3 + 2),#0x00
   0F77 75 08 11           2314 	mov	_montModExp_PARM_2,#0x11
   0F7A 75 0C 10           2315 	mov	_montModExp_PARM_4,#0x10
   0F7D 75 0D 14           2316 	mov	_montModExp_PARM_5,#0x14
   0F80 75 0E 15           2317 	mov	_montModExp_PARM_6,#0x15
   0F83 75 82 20           2318 	mov	dpl,#0x20
   0F86 12 0F B1           2319 	lcall	_montModExp
                           2320 ;	main.c:57: _displayResult();
   0F89 12 11 5A           2321 	lcall	__displayResult
                           2322 ;	main.c:60: montModExp(0x21, 0x20, privateKey, 0x10, 0x14, 0x15);
   0F8C 75 09 00           2323 	mov	_montModExp_PARM_3,#_privateKey
   0F8F 75 0A 13           2324 	mov	(_montModExp_PARM_3 + 1),#(_privateKey >> 8)
   0F92 75 0B 00           2325 	mov	(_montModExp_PARM_3 + 2),#0x00
   0F95 75 08 20           2326 	mov	_montModExp_PARM_2,#0x20
   0F98 75 0C 10           2327 	mov	_montModExp_PARM_4,#0x10
   0F9B 75 0D 14           2328 	mov	_montModExp_PARM_5,#0x14
   0F9E 75 0E 15           2329 	mov	_montModExp_PARM_6,#0x15
   0FA1 75 82 21           2330 	mov	dpl,#0x21
   0FA4 12 0F B1           2331 	lcall	_montModExp
                           2332 ;	main.c:61: _displayResult();
   0FA7 12 11 5A           2333 	lcall	__displayResult
                           2334 ;	main.c:63: _terminate();
   0FAA 12 12 13           2335 	lcall	__terminate
                           2336 ;	main.c:64: return 0;
   0FAD 90 00 00           2337 	mov	dptr,#0x0000
   0FB0 22                 2338 	ret
                           2339 ;------------------------------------------------------------
                           2340 ;Allocation info for local variables in function 'montModExp'
                           2341 ;------------------------------------------------------------
                           2342 ;x                         Allocated with name '_montModExp_PARM_2'
                           2343 ;e                         Allocated with name '_montModExp_PARM_3'
                           2344 ;m                         Allocated with name '_montModExp_PARM_4'
                           2345 ;rmodm                     Allocated with name '_montModExp_PARM_5'
                           2346 ;r2modm                    Allocated with name '_montModExp_PARM_6'
                           2347 ;r                         Allocated with name '_montModExp_r_1_1'
                           2348 ;i                         Allocated with name '_montModExp_i_1_1'
                           2349 ;j                         Allocated to registers r6 
                           2350 ;k                         Allocated to registers r2 r3 
                           2351 ;t                         Allocated with name '_montModExp_t_1_1'
                           2352 ;one                       Allocated with name '_montModExp_one_1_1'
                           2353 ;------------------------------------------------------------
                           2354 ;	main.c:67: void montModExp(unsigned char r, unsigned char x, unsigned char *e, unsigned char m, unsigned char rmodm, unsigned char r2modm) {
                           2355 ;	-----------------------------------------
                           2356 ;	 function montModExp
                           2357 ;	-----------------------------------------
   0FB1                    2358 _montModExp:
   0FB1 85 82 0F           2359 	mov	_montModExp_r_1_1,dpl
                           2360 ;	main.c:76: *one = 0x01;
   0FB4 90 00 00           2361 	mov	dptr,#_montModExp_one_1_1
   0FB7 74 01              2362 	mov	a,#0x01
   0FB9 F0                 2363 	movx	@dptr,a
                           2364 ;	main.c:79: _writeModulus(m);
   0FBA 85 0C 82           2365 	mov	dpl,_montModExp_PARM_4
   0FBD 12 11 61           2366 	lcall	__writeModulus
                           2367 ;	main.c:83: _writeA_Mem(x);
   0FC0 85 08 82           2368 	mov	dpl,_montModExp_PARM_2
   0FC3 12 11 7D           2369 	lcall	__writeA_Mem
                           2370 ;	main.c:84: _writeB_Mem(r2modm);
   0FC6 85 0E 82           2371 	mov	dpl,_montModExp_PARM_6
   0FC9 12 11 A7           2372 	lcall	__writeB_Mem
                           2373 ;	main.c:85: _mul_montgomery();
   0FCC 12 12 09           2374 	lcall	__mul_montgomery
                           2375 ;	main.c:86: _readResult(0x01);
   0FCF 75 82 01           2376 	mov	dpl,#0x01
   0FD2 12 11 ED           2377 	lcall	__readResult
                           2378 ;	main.c:89: t = 0;
                           2379 ;	main.c:90: for (i = 0; i < SIZE; i++) {
   0FD5 E4                 2380 	clr	a
   0FD6 F5 11              2381 	mov	_montModExp_t_1_1,a
   0FD8 F5 12              2382 	mov	(_montModExp_t_1_1 + 1),a
   0FDA F5 10              2383 	mov	_montModExp_i_1_1,a
   0FDC                    2384 00114$:
   0FDC 74 80              2385 	mov	a,#0x100 - 0x80
   0FDE 25 10              2386 	add	a,_montModExp_i_1_1
   0FE0 50 03              2387 	jnc	00135$
   0FE2 02 10 78           2388 	ljmp	00105$
   0FE5                    2389 00135$:
                           2390 ;	main.c:91: if (e[(SIZE-1)-i] != 0) {
   0FE5 AE 10              2391 	mov	r6,_montModExp_i_1_1
   0FE7 7F 00              2392 	mov	r7,#0x00
   0FE9 74 7F              2393 	mov	a,#0x7F
   0FEB C3                 2394 	clr	c
   0FEC 9E                 2395 	subb	a,r6
   0FED FE                 2396 	mov	r6,a
   0FEE E4                 2397 	clr	a
   0FEF 9F                 2398 	subb	a,r7
   0FF0 FF                 2399 	mov	r7,a
   0FF1 EE                 2400 	mov	a,r6
   0FF2 25 09              2401 	add	a,_montModExp_PARM_3
   0FF4 FE                 2402 	mov	r6,a
   0FF5 EF                 2403 	mov	a,r7
   0FF6 35 0A              2404 	addc	a,(_montModExp_PARM_3 + 1)
   0FF8 FF                 2405 	mov	r7,a
   0FF9 A8 0B              2406 	mov	r0,(_montModExp_PARM_3 + 2)
   0FFB 8E 82              2407 	mov	dpl,r6
   0FFD 8F 83              2408 	mov	dph,r7
   0FFF 88 F0              2409 	mov	b,r0
   1001 12 12 17           2410 	lcall	__gptrget
   1004 60 6D              2411 	jz	00116$
                           2412 ;	main.c:92: for (j = 0; j < 8; j++) {
   1006 7E 00              2413 	mov	r6,#0x00
   1008                    2414 00110$:
   1008 BE 08 00           2415 	cjne	r6,#0x08,00137$
   100B                    2416 00137$:
   100B 50 66              2417 	jnc	00116$
                           2418 ;	main.c:93: if (e[(SIZE-1)-i] >> (7-j) & 1) {
   100D AF 10              2419 	mov	r7,_montModExp_i_1_1
   100F 78 00              2420 	mov	r0,#0x00
   1011 74 7F              2421 	mov	a,#0x7F
   1013 C3                 2422 	clr	c
   1014 9F                 2423 	subb	a,r7
   1015 F9                 2424 	mov	r1,a
   1016 E4                 2425 	clr	a
   1017 98                 2426 	subb	a,r0
   1018 FA                 2427 	mov	r2,a
   1019 E9                 2428 	mov	a,r1
   101A 25 09              2429 	add	a,_montModExp_PARM_3
   101C F9                 2430 	mov	r1,a
   101D EA                 2431 	mov	a,r2
   101E 35 0A              2432 	addc	a,(_montModExp_PARM_3 + 1)
   1020 FA                 2433 	mov	r2,a
   1021 AB 0B              2434 	mov	r3,(_montModExp_PARM_3 + 2)
   1023 89 82              2435 	mov	dpl,r1
   1025 8A 83              2436 	mov	dph,r2
   1027 8B F0              2437 	mov	b,r3
   1029 12 12 17           2438 	lcall	__gptrget
   102C F9                 2439 	mov	r1,a
   102D 8E 02              2440 	mov	ar2,r6
   102F 7B 00              2441 	mov	r3,#0x00
   1031 74 07              2442 	mov	a,#0x07
   1033 C3                 2443 	clr	c
   1034 9A                 2444 	subb	a,r2
   1035 FC                 2445 	mov	r4,a
   1036 E4                 2446 	clr	a
   1037 9B                 2447 	subb	a,r3
   1038 FD                 2448 	mov	r5,a
   1039 8C F0              2449 	mov	b,r4
   103B 05 F0              2450 	inc	b
   103D E9                 2451 	mov	a,r1
   103E 80 02              2452 	sjmp	00140$
   1040                    2453 00139$:
   1040 C3                 2454 	clr	c
   1041 13                 2455 	rrc	a
   1042                    2456 00140$:
   1042 D5 F0 FB           2457 	djnz	b,00139$
   1045 30 E0 28           2458 	jnb	acc.0,00112$
                           2459 ;	main.c:94: t = 8*((SIZE-1)-i) + (7-j);
   1048 74 7F              2460 	mov	a,#0x7F
   104A C3                 2461 	clr	c
   104B 9F                 2462 	subb	a,r7
   104C FF                 2463 	mov	r7,a
   104D E4                 2464 	clr	a
   104E 98                 2465 	subb	a,r0
   104F C4                 2466 	swap	a
   1050 03                 2467 	rr	a
   1051 54 F8              2468 	anl	a,#0xf8
   1053 CF                 2469 	xch	a,r7
   1054 C4                 2470 	swap	a
   1055 03                 2471 	rr	a
   1056 CF                 2472 	xch	a,r7
   1057 6F                 2473 	xrl	a,r7
   1058 CF                 2474 	xch	a,r7
   1059 54 F8              2475 	anl	a,#0xf8
   105B CF                 2476 	xch	a,r7
   105C 6F                 2477 	xrl	a,r7
   105D F8                 2478 	mov	r0,a
   105E 74 07              2479 	mov	a,#0x07
   1060 C3                 2480 	clr	c
   1061 9A                 2481 	subb	a,r2
   1062 FA                 2482 	mov	r2,a
   1063 E4                 2483 	clr	a
   1064 9B                 2484 	subb	a,r3
   1065 FB                 2485 	mov	r3,a
   1066 EA                 2486 	mov	a,r2
   1067 2F                 2487 	add	a,r7
   1068 F5 11              2488 	mov	_montModExp_t_1_1,a
   106A EB                 2489 	mov	a,r3
   106B 38                 2490 	addc	a,r0
   106C F5 12              2491 	mov	(_montModExp_t_1_1 + 1),a
                           2492 ;	main.c:95: goto breakLoop;
   106E 80 08              2493 	sjmp	00105$
   1070                    2494 00112$:
                           2495 ;	main.c:92: for (j = 0; j < 8; j++) {
   1070 0E                 2496 	inc	r6
   1071 80 95              2497 	sjmp	00110$
   1073                    2498 00116$:
                           2499 ;	main.c:90: for (i = 0; i < SIZE; i++) {
   1073 05 10              2500 	inc	_montModExp_i_1_1
   1075 02 0F DC           2501 	ljmp	00114$
                           2502 ;	main.c:101: breakLoop:
   1078                    2503 00105$:
                           2504 ;	main.c:104: _writeResult(rmodm);
   1078 85 0D 82           2505 	mov	dpl,_montModExp_PARM_5
   107B 12 11 D1           2506 	lcall	__writeResult
                           2507 ;	main.c:105: if (((e[t/8] >> t%8)) & 1) {
   107E AA 11              2508 	mov	r2,_montModExp_t_1_1
   1080 E5 12              2509 	mov	a,(_montModExp_t_1_1 + 1)
   1082 C4                 2510 	swap	a
   1083 23                 2511 	rl	a
   1084 CA                 2512 	xch	a,r2
   1085 C4                 2513 	swap	a
   1086 23                 2514 	rl	a
   1087 54 1F              2515 	anl	a,#0x1f
   1089 6A                 2516 	xrl	a,r2
   108A CA                 2517 	xch	a,r2
   108B 54 1F              2518 	anl	a,#0x1f
   108D CA                 2519 	xch	a,r2
   108E 6A                 2520 	xrl	a,r2
   108F CA                 2521 	xch	a,r2
   1090 FB                 2522 	mov	r3,a
   1091 EA                 2523 	mov	a,r2
   1092 25 09              2524 	add	a,_montModExp_PARM_3
   1094 FA                 2525 	mov	r2,a
   1095 EB                 2526 	mov	a,r3
   1096 35 0A              2527 	addc	a,(_montModExp_PARM_3 + 1)
   1098 FB                 2528 	mov	r3,a
   1099 AC 0B              2529 	mov	r4,(_montModExp_PARM_3 + 2)
   109B 8A 82              2530 	mov	dpl,r2
   109D 8B 83              2531 	mov	dph,r3
   109F 8C F0              2532 	mov	b,r4
   10A1 12 12 17           2533 	lcall	__gptrget
   10A4 FA                 2534 	mov	r2,a
   10A5 74 07              2535 	mov	a,#0x07
   10A7 55 11              2536 	anl	a,_montModExp_t_1_1
   10A9 FB                 2537 	mov	r3,a
   10AA 7C 00              2538 	mov	r4,#0x00
   10AC 8B F0              2539 	mov	b,r3
   10AE 05 F0              2540 	inc	b
   10B0 EA                 2541 	mov	a,r2
   10B1 80 02              2542 	sjmp	00143$
   10B3                    2543 00142$:
   10B3 C3                 2544 	clr	c
   10B4 13                 2545 	rrc	a
   10B5                    2546 00143$:
   10B5 D5 F0 FB           2547 	djnz	b,00142$
   10B8 30 E0 0C           2548 	jnb	acc.0,00133$
                           2549 ;	main.c:108: _writeA_Mem(0x01);
   10BB 75 82 01           2550 	mov	dpl,#0x01
   10BE 12 11 7D           2551 	lcall	__writeA_Mem
                           2552 ;	main.c:109: _writeB_Reg();
   10C1 12 11 C3           2553 	lcall	__writeB_Reg
                           2554 ;	main.c:110: _mul_montgomery();
   10C4 12 12 09           2555 	lcall	__mul_montgomery
                           2556 ;	main.c:113: for (k = 1; k <= t; k++) {
   10C7                    2557 00133$:
   10C7 7A 01              2558 	mov	r2,#0x01
   10C9 7B 00              2559 	mov	r3,#0x00
   10CB                    2560 00118$:
   10CB C3                 2561 	clr	c
   10CC E5 11              2562 	mov	a,_montModExp_t_1_1
   10CE 9A                 2563 	subb	a,r2
   10CF E5 12              2564 	mov	a,(_montModExp_t_1_1 + 1)
   10D1 9B                 2565 	subb	a,r3
   10D2 40 6D              2566 	jc	00121$
                           2567 ;	main.c:115: _writeA_Reg();
   10D4 C0 02              2568 	push	ar2
   10D6 C0 03              2569 	push	ar3
   10D8 12 11 99           2570 	lcall	__writeA_Reg
                           2571 ;	main.c:116: _writeB_Reg();
   10DB 12 11 C3           2572 	lcall	__writeB_Reg
                           2573 ;	main.c:117: _mul_montgomery();
   10DE 12 12 09           2574 	lcall	__mul_montgomery
   10E1 D0 03              2575 	pop	ar3
   10E3 D0 02              2576 	pop	ar2
                           2577 ;	main.c:119: if (((e[(t-k)/8] >> (t-k)%8)) & 1) {
   10E5 E5 11              2578 	mov	a,_montModExp_t_1_1
   10E7 C3                 2579 	clr	c
   10E8 9A                 2580 	subb	a,r2
   10E9 FC                 2581 	mov	r4,a
   10EA E5 12              2582 	mov	a,(_montModExp_t_1_1 + 1)
   10EC 9B                 2583 	subb	a,r3
   10ED 8C 06              2584 	mov	ar6,r4
   10EF C4                 2585 	swap	a
   10F0 23                 2586 	rl	a
   10F1 CE                 2587 	xch	a,r6
   10F2 C4                 2588 	swap	a
   10F3 23                 2589 	rl	a
   10F4 54 1F              2590 	anl	a,#0x1f
   10F6 6E                 2591 	xrl	a,r6
   10F7 CE                 2592 	xch	a,r6
   10F8 54 1F              2593 	anl	a,#0x1f
   10FA CE                 2594 	xch	a,r6
   10FB 6E                 2595 	xrl	a,r6
   10FC CE                 2596 	xch	a,r6
   10FD FF                 2597 	mov	r7,a
   10FE EE                 2598 	mov	a,r6
   10FF 25 09              2599 	add	a,_montModExp_PARM_3
   1101 FE                 2600 	mov	r6,a
   1102 EF                 2601 	mov	a,r7
   1103 35 0A              2602 	addc	a,(_montModExp_PARM_3 + 1)
   1105 FF                 2603 	mov	r7,a
   1106 A8 0B              2604 	mov	r0,(_montModExp_PARM_3 + 2)
   1108 8E 82              2605 	mov	dpl,r6
   110A 8F 83              2606 	mov	dph,r7
   110C 88 F0              2607 	mov	b,r0
   110E 12 12 17           2608 	lcall	__gptrget
   1111 FE                 2609 	mov	r6,a
   1112 53 04 07           2610 	anl	ar4,#0x07
   1115 7D 00              2611 	mov	r5,#0x00
   1117 8C F0              2612 	mov	b,r4
   1119 05 F0              2613 	inc	b
   111B EE                 2614 	mov	a,r6
   111C 80 02              2615 	sjmp	00147$
   111E                    2616 00146$:
   111E C3                 2617 	clr	c
   111F 13                 2618 	rrc	a
   1120                    2619 00147$:
   1120 D5 F0 FB           2620 	djnz	b,00146$
   1123 30 E0 14           2621 	jnb	acc.0,00120$
                           2622 ;	main.c:122: _writeA_Mem(0x01);
   1126 75 82 01           2623 	mov	dpl,#0x01
   1129 C0 02              2624 	push	ar2
   112B C0 03              2625 	push	ar3
   112D 12 11 7D           2626 	lcall	__writeA_Mem
                           2627 ;	main.c:123: _writeB_Reg();
   1130 12 11 C3           2628 	lcall	__writeB_Reg
                           2629 ;	main.c:124: _mul_montgomery();
   1133 12 12 09           2630 	lcall	__mul_montgomery
   1136 D0 03              2631 	pop	ar3
   1138 D0 02              2632 	pop	ar2
   113A                    2633 00120$:
                           2634 ;	main.c:113: for (k = 1; k <= t; k++) {
   113A 0A                 2635 	inc	r2
   113B BA 00 8D           2636 	cjne	r2,#0x00,00118$
   113E 0B                 2637 	inc	r3
   113F 80 8A              2638 	sjmp	00118$
   1141                    2639 00121$:
                           2640 ;	main.c:130: _writeA_Mem(0x00);
   1141 75 82 00           2641 	mov	dpl,#0x00
   1144 12 11 7D           2642 	lcall	__writeA_Mem
                           2643 ;	main.c:131: _writeB_Reg();
   1147 12 11 C3           2644 	lcall	__writeB_Reg
                           2645 ;	main.c:132: _mul_montgomery();
   114A 12 12 09           2646 	lcall	__mul_montgomery
                           2647 ;	main.c:133: _readResult(r);
   114D 85 0F 82           2648 	mov	dpl,_montModExp_r_1_1
   1150 02 11 ED           2649 	ljmp	__readResult
                           2650 ;------------------------------------------------------------
                           2651 ;Allocation info for local variables in function '_displayCycles'
                           2652 ;------------------------------------------------------------
                           2653 ;------------------------------------------------------------
                           2654 ;	main.c:137: static inline void _displayCycles() {
                           2655 ;	-----------------------------------------
                           2656 ;	 function _displayCycles
                           2657 ;	-----------------------------------------
   1153                    2658 __displayCycles:
                           2659 ;	main.c:138: P0 = INS_DISPLAY_CYCLES;
   1153 75 80 01           2660 	mov	_P0,#0x01
                           2661 ;	main.c:139: P0 = INS_IDLE;
   1156 75 80 00           2662 	mov	_P0,#0x00
   1159 22                 2663 	ret
                           2664 ;------------------------------------------------------------
                           2665 ;Allocation info for local variables in function '_displayResult'
                           2666 ;------------------------------------------------------------
                           2667 ;------------------------------------------------------------
                           2668 ;	main.c:142: static inline void _displayResult() {
                           2669 ;	-----------------------------------------
                           2670 ;	 function _displayResult
                           2671 ;	-----------------------------------------
   115A                    2672 __displayResult:
                           2673 ;	main.c:143: P0 = INS_DISPLAY_RESULT;
   115A 75 80 02           2674 	mov	_P0,#0x02
                           2675 ;	main.c:144: P0 = INS_IDLE;
   115D 75 80 00           2676 	mov	_P0,#0x00
   1160 22                 2677 	ret
                           2678 ;------------------------------------------------------------
                           2679 ;Allocation info for local variables in function '_writeModulus'
                           2680 ;------------------------------------------------------------
                           2681 ;address                   Allocated to registers r2 
                           2682 ;------------------------------------------------------------
                           2683 ;	main.c:147: static inline void _writeModulus(unsigned char address) {
                           2684 ;	-----------------------------------------
                           2685 ;	 function _writeModulus
                           2686 ;	-----------------------------------------
   1161                    2687 __writeModulus:
   1161 AA 82              2688 	mov	r2,dpl
                           2689 ;	main.c:148: while (P2 == 2) {}
   1163                    2690 00101$:
   1163 74 02              2691 	mov	a,#0x02
   1165 B5 A0 02           2692 	cjne	a,_P2,00113$
   1168 80 F9              2693 	sjmp	00101$
   116A                    2694 00113$:
                           2695 ;	main.c:150: P2 = 0;
   116A 75 A0 00           2696 	mov	_P2,#0x00
                           2697 ;	main.c:151: P1 = address;
   116D 8A 90              2698 	mov	_P1,r2
                           2699 ;	main.c:153: P0 = INS_WRITE_MODULUS;
   116F 75 80 10           2700 	mov	_P0,#0x10
                           2701 ;	main.c:154: P0 = INS_IDLE;
   1172 75 80 00           2702 	mov	_P0,#0x00
                           2703 ;	main.c:156: while (P2 == 0) {}
   1175                    2704 00104$:
   1175 E5 A0              2705 	mov	a,_P2
   1177 60 FC              2706 	jz	00104$
                           2707 ;	main.c:157: P0 = INS_ACK;
   1179 75 80 0F           2708 	mov	_P0,#0x0F
   117C 22                 2709 	ret
                           2710 ;------------------------------------------------------------
                           2711 ;Allocation info for local variables in function '_writeA_Mem'
                           2712 ;------------------------------------------------------------
                           2713 ;address                   Allocated to registers r2 
                           2714 ;------------------------------------------------------------
                           2715 ;	main.c:160: static inline void _writeA_Mem(unsigned char address) {
                           2716 ;	-----------------------------------------
                           2717 ;	 function _writeA_Mem
                           2718 ;	-----------------------------------------
   117D                    2719 __writeA_Mem:
   117D AA 82              2720 	mov	r2,dpl
                           2721 ;	main.c:161: while (P2 == 2) {}
   117F                    2722 00101$:
   117F 74 02              2723 	mov	a,#0x02
   1181 B5 A0 02           2724 	cjne	a,_P2,00113$
   1184 80 F9              2725 	sjmp	00101$
   1186                    2726 00113$:
                           2727 ;	main.c:163: P2 = 0;
   1186 75 A0 00           2728 	mov	_P2,#0x00
                           2729 ;	main.c:164: P1 = address;
   1189 8A 90              2730 	mov	_P1,r2
                           2731 ;	main.c:166: P0 = INS_WRITE_A_MEM;
   118B 75 80 11           2732 	mov	_P0,#0x11
                           2733 ;	main.c:167: P0 = INS_IDLE;
   118E 75 80 00           2734 	mov	_P0,#0x00
                           2735 ;	main.c:169: while (P2 == 0) {}
   1191                    2736 00104$:
   1191 E5 A0              2737 	mov	a,_P2
   1193 60 FC              2738 	jz	00104$
                           2739 ;	main.c:170: P0 = INS_ACK;
   1195 75 80 0F           2740 	mov	_P0,#0x0F
   1198 22                 2741 	ret
                           2742 ;------------------------------------------------------------
                           2743 ;Allocation info for local variables in function '_writeA_Reg'
                           2744 ;------------------------------------------------------------
                           2745 ;------------------------------------------------------------
                           2746 ;	main.c:173: static inline void _writeA_Reg() {
                           2747 ;	-----------------------------------------
                           2748 ;	 function _writeA_Reg
                           2749 ;	-----------------------------------------
   1199                    2750 __writeA_Reg:
                           2751 ;	main.c:174: while (P2 == 2) {}
   1199                    2752 00101$:
   1199 74 02              2753 	mov	a,#0x02
   119B B5 A0 02           2754 	cjne	a,_P2,00108$
   119E 80 F9              2755 	sjmp	00101$
   11A0                    2756 00108$:
                           2757 ;	main.c:176: P0 = INS_WRITE_A_REG;
   11A0 75 80 12           2758 	mov	_P0,#0x12
                           2759 ;	main.c:177: P0 = INS_IDLE;
   11A3 75 80 00           2760 	mov	_P0,#0x00
   11A6 22                 2761 	ret
                           2762 ;------------------------------------------------------------
                           2763 ;Allocation info for local variables in function '_writeB_Mem'
                           2764 ;------------------------------------------------------------
                           2765 ;address                   Allocated to registers r2 
                           2766 ;------------------------------------------------------------
                           2767 ;	main.c:180: static inline void _writeB_Mem(unsigned char address) {
                           2768 ;	-----------------------------------------
                           2769 ;	 function _writeB_Mem
                           2770 ;	-----------------------------------------
   11A7                    2771 __writeB_Mem:
   11A7 AA 82              2772 	mov	r2,dpl
                           2773 ;	main.c:181: while (P2 == 2) {}
   11A9                    2774 00101$:
   11A9 74 02              2775 	mov	a,#0x02
   11AB B5 A0 02           2776 	cjne	a,_P2,00113$
   11AE 80 F9              2777 	sjmp	00101$
   11B0                    2778 00113$:
                           2779 ;	main.c:183: P2 = 0;
   11B0 75 A0 00           2780 	mov	_P2,#0x00
                           2781 ;	main.c:184: P1 = address;
   11B3 8A 90              2782 	mov	_P1,r2
                           2783 ;	main.c:186: P0 = INS_WRITE_B_MEM;
   11B5 75 80 13           2784 	mov	_P0,#0x13
                           2785 ;	main.c:187: P0 = INS_IDLE;
   11B8 75 80 00           2786 	mov	_P0,#0x00
                           2787 ;	main.c:189: while (P2 == 0) {}
   11BB                    2788 00104$:
   11BB E5 A0              2789 	mov	a,_P2
   11BD 60 FC              2790 	jz	00104$
                           2791 ;	main.c:190: P0 = INS_ACK;
   11BF 75 80 0F           2792 	mov	_P0,#0x0F
   11C2 22                 2793 	ret
                           2794 ;------------------------------------------------------------
                           2795 ;Allocation info for local variables in function '_writeB_Reg'
                           2796 ;------------------------------------------------------------
                           2797 ;------------------------------------------------------------
                           2798 ;	main.c:193: static inline void _writeB_Reg() {
                           2799 ;	-----------------------------------------
                           2800 ;	 function _writeB_Reg
                           2801 ;	-----------------------------------------
   11C3                    2802 __writeB_Reg:
                           2803 ;	main.c:194: while (P2 == 2) {}
   11C3                    2804 00101$:
   11C3 74 02              2805 	mov	a,#0x02
   11C5 B5 A0 02           2806 	cjne	a,_P2,00108$
   11C8 80 F9              2807 	sjmp	00101$
   11CA                    2808 00108$:
                           2809 ;	main.c:196: P0 = INS_WRITE_B_REG;
   11CA 75 80 14           2810 	mov	_P0,#0x14
                           2811 ;	main.c:197: P0 = INS_IDLE;
   11CD 75 80 00           2812 	mov	_P0,#0x00
   11D0 22                 2813 	ret
                           2814 ;------------------------------------------------------------
                           2815 ;Allocation info for local variables in function '_writeResult'
                           2816 ;------------------------------------------------------------
                           2817 ;address                   Allocated to registers r2 
                           2818 ;------------------------------------------------------------
                           2819 ;	main.c:200: static inline void _writeResult(unsigned char address) {
                           2820 ;	-----------------------------------------
                           2821 ;	 function _writeResult
                           2822 ;	-----------------------------------------
   11D1                    2823 __writeResult:
   11D1 AA 82              2824 	mov	r2,dpl
                           2825 ;	main.c:201: while (P2 == 2) {}
   11D3                    2826 00101$:
   11D3 74 02              2827 	mov	a,#0x02
   11D5 B5 A0 02           2828 	cjne	a,_P2,00113$
   11D8 80 F9              2829 	sjmp	00101$
   11DA                    2830 00113$:
                           2831 ;	main.c:203: P2 = 0;
   11DA 75 A0 00           2832 	mov	_P2,#0x00
                           2833 ;	main.c:204: P1 = address;
   11DD 8A 90              2834 	mov	_P1,r2
                           2835 ;	main.c:206: P0 = INS_WRITE_RESULT;
   11DF 75 80 15           2836 	mov	_P0,#0x15
                           2837 ;	main.c:207: P0 = INS_IDLE;
   11E2 75 80 00           2838 	mov	_P0,#0x00
                           2839 ;	main.c:209: while (P2 == 0) {}
   11E5                    2840 00104$:
   11E5 E5 A0              2841 	mov	a,_P2
   11E7 60 FC              2842 	jz	00104$
                           2843 ;	main.c:210: P0 = INS_ACK;
   11E9 75 80 0F           2844 	mov	_P0,#0x0F
   11EC 22                 2845 	ret
                           2846 ;------------------------------------------------------------
                           2847 ;Allocation info for local variables in function '_readResult'
                           2848 ;------------------------------------------------------------
                           2849 ;address                   Allocated to registers r2 
                           2850 ;------------------------------------------------------------
                           2851 ;	main.c:213: static inline void _readResult(unsigned char address) {
                           2852 ;	-----------------------------------------
                           2853 ;	 function _readResult
                           2854 ;	-----------------------------------------
   11ED                    2855 __readResult:
   11ED AA 82              2856 	mov	r2,dpl
                           2857 ;	main.c:214: while (P2 == 2) {}
   11EF                    2858 00101$:
   11EF 74 02              2859 	mov	a,#0x02
   11F1 B5 A0 02           2860 	cjne	a,_P2,00113$
   11F4 80 F9              2861 	sjmp	00101$
   11F6                    2862 00113$:
                           2863 ;	main.c:216: P2 = 0;
   11F6 75 A0 00           2864 	mov	_P2,#0x00
                           2865 ;	main.c:217: P1 = address;
   11F9 8A 90              2866 	mov	_P1,r2
                           2867 ;	main.c:219: P0 = INS_READ_RESULT;
   11FB 75 80 16           2868 	mov	_P0,#0x16
                           2869 ;	main.c:220: P0 = INS_IDLE;
   11FE 75 80 00           2870 	mov	_P0,#0x00
                           2871 ;	main.c:222: while (P2 == 0) {}
   1201                    2872 00104$:
   1201 E5 A0              2873 	mov	a,_P2
   1203 60 FC              2874 	jz	00104$
                           2875 ;	main.c:223: P0 = INS_ACK;
   1205 75 80 0F           2876 	mov	_P0,#0x0F
   1208 22                 2877 	ret
                           2878 ;------------------------------------------------------------
                           2879 ;Allocation info for local variables in function '_mul_montgomery'
                           2880 ;------------------------------------------------------------
                           2881 ;------------------------------------------------------------
                           2882 ;	main.c:226: static inline void _mul_montgomery() {
                           2883 ;	-----------------------------------------
                           2884 ;	 function _mul_montgomery
                           2885 ;	-----------------------------------------
   1209                    2886 __mul_montgomery:
                           2887 ;	main.c:227: P2 = 0;
   1209 75 A0 00           2888 	mov	_P2,#0x00
                           2889 ;	main.c:229: P0 = INS_MUL_MONTGOMERY;
   120C 75 80 20           2890 	mov	_P0,#0x20
                           2891 ;	main.c:230: P0 = INS_IDLE;
   120F 75 80 00           2892 	mov	_P0,#0x00
   1212 22                 2893 	ret
                           2894 ;------------------------------------------------------------
                           2895 ;Allocation info for local variables in function '_terminate'
                           2896 ;------------------------------------------------------------
                           2897 ;------------------------------------------------------------
                           2898 ;	main.c:233: static inline void _terminate() {
                           2899 ;	-----------------------------------------
                           2900 ;	 function _terminate
                           2901 ;	-----------------------------------------
   1213                    2902 __terminate:
                           2903 ;	main.c:234: P3 = 0x55;
   1213 75 B0 55           2904 	mov	_P3,#0x55
   1216 22                 2905 	ret
                           2906 	.area CSEG    (CODE)
                           2907 	.area CONST   (CODE)
                           2908 	.area XINIT   (CODE)
                           2909 	.area CABS    (ABS,CODE)
