                              1 ;--------------------------------------------------------
                              2 ; File Created by SDCC : free open source ANSI-C Compiler
                              3 ; Version 2.9.0 #5416 (Feb  3 2010) (UNIX)
                              4 ; This file was generated Sat Jul  6 11:33:11 2013
                              5 ;--------------------------------------------------------
                              6 	.module main
                              7 	.optsdcc -mmcs51 --model-small
                              8 	
                              9 ;--------------------------------------------------------
                             10 ; Public variables in this module
                             11 ;--------------------------------------------------------
                             12 	.globl _main
                             13 	.globl _CY
                             14 	.globl _AC
                             15 	.globl _F0
                             16 	.globl _RS1
                             17 	.globl _RS0
                             18 	.globl _OV
                             19 	.globl _F1
                             20 	.globl _P
                             21 	.globl _PS
                             22 	.globl _PT1
                             23 	.globl _PX1
                             24 	.globl _PT0
                             25 	.globl _PX0
                             26 	.globl _RD
                             27 	.globl _WR
                             28 	.globl _T1
                             29 	.globl _T0
                             30 	.globl _INT1
                             31 	.globl _INT0
                             32 	.globl _TXD
                             33 	.globl _RXD
                             34 	.globl _P3_7
                             35 	.globl _P3_6
                             36 	.globl _P3_5
                             37 	.globl _P3_4
                             38 	.globl _P3_3
                             39 	.globl _P3_2
                             40 	.globl _P3_1
                             41 	.globl _P3_0
                             42 	.globl _EA
                             43 	.globl _ES
                             44 	.globl _ET1
                             45 	.globl _EX1
                             46 	.globl _ET0
                             47 	.globl _EX0
                             48 	.globl _P2_7
                             49 	.globl _P2_6
                             50 	.globl _P2_5
                             51 	.globl _P2_4
                             52 	.globl _P2_3
                             53 	.globl _P2_2
                             54 	.globl _P2_1
                             55 	.globl _P2_0
                             56 	.globl _SM0
                             57 	.globl _SM1
                             58 	.globl _SM2
                             59 	.globl _REN
                             60 	.globl _TB8
                             61 	.globl _RB8
                             62 	.globl _TI
                             63 	.globl _RI
                             64 	.globl _P1_7
                             65 	.globl _P1_6
                             66 	.globl _P1_5
                             67 	.globl _P1_4
                             68 	.globl _P1_3
                             69 	.globl _P1_2
                             70 	.globl _P1_1
                             71 	.globl _P1_0
                             72 	.globl _TF1
                             73 	.globl _TR1
                             74 	.globl _TF0
                             75 	.globl _TR0
                             76 	.globl _IE1
                             77 	.globl _IT1
                             78 	.globl _IE0
                             79 	.globl _IT0
                             80 	.globl _P0_7
                             81 	.globl _P0_6
                             82 	.globl _P0_5
                             83 	.globl _P0_4
                             84 	.globl _P0_3
                             85 	.globl _P0_2
                             86 	.globl _P0_1
                             87 	.globl _P0_0
                             88 	.globl _B
                             89 	.globl _ACC
                             90 	.globl _PSW
                             91 	.globl _IP
                             92 	.globl _P3
                             93 	.globl _IE
                             94 	.globl _P2
                             95 	.globl _SBUF
                             96 	.globl _SCON
                             97 	.globl _P1
                             98 	.globl _TH1
                             99 	.globl _TH0
                            100 	.globl _TL1
                            101 	.globl _TL0
                            102 	.globl _TMOD
                            103 	.globl _TCON
                            104 	.globl _PCON
                            105 	.globl _DPH
                            106 	.globl _DPL
                            107 	.globl _SP
                            108 	.globl _P0
                            109 	.globl _privateKey
                            110 	.globl _publicKey
                            111 	.globl _message
                            112 	.globl _modulus
                            113 	.globl _r2modm
                            114 	.globl _rmodm
                            115 	.globl _decryptedMessage
                            116 	.globl _encryptedMessage
                            117 	.globl _sR
                            118 	.globl _sM
                            119 	.globl _sB
                            120 	.globl _sA
                            121 	.globl _montMultiply_Result_PARM_2
                            122 	.globl _montMultiply_One_PARM_3
                            123 	.globl _montMultiply_PARM_4
                            124 	.globl _montModExp_PARM_3
                            125 	.globl _montModExp_PARM_2
                            126 	.globl _montMultiply_One_PARM_2
                            127 	.globl _montMultiply_PARM_3
                            128 	.globl _montMultiply_PARM_2
                            129 	.globl _montMultiply
                            130 	.globl _montMultiply_One
                            131 	.globl _montMultiply_Result
                            132 	.globl _montModExp
                            133 	.globl __findFirstOne
                            134 	.globl __mul1_writeAll
                            135 	.globl __mul1_writeOne
                            136 	.globl __mul1_writeReg
                            137 	.globl __mul1_readResult
                            138 	.globl __mul1_writeResult
                            139 	.globl __mul1_montgomery
                            140 	.globl __terminate
                            141 ;--------------------------------------------------------
                            142 ; special function registers
                            143 ;--------------------------------------------------------
                            144 	.area RSEG    (DATA)
                    0080    145 _P0	=	0x0080
                    0081    146 _SP	=	0x0081
                    0082    147 _DPL	=	0x0082
                    0083    148 _DPH	=	0x0083
                    0087    149 _PCON	=	0x0087
                    0088    150 _TCON	=	0x0088
                    0089    151 _TMOD	=	0x0089
                    008A    152 _TL0	=	0x008a
                    008B    153 _TL1	=	0x008b
                    008C    154 _TH0	=	0x008c
                    008D    155 _TH1	=	0x008d
                    0090    156 _P1	=	0x0090
                    0098    157 _SCON	=	0x0098
                    0099    158 _SBUF	=	0x0099
                    00A0    159 _P2	=	0x00a0
                    00A8    160 _IE	=	0x00a8
                    00B0    161 _P3	=	0x00b0
                    00B8    162 _IP	=	0x00b8
                    00D0    163 _PSW	=	0x00d0
                    00E0    164 _ACC	=	0x00e0
                    00F0    165 _B	=	0x00f0
                            166 ;--------------------------------------------------------
                            167 ; special function bits
                            168 ;--------------------------------------------------------
                            169 	.area RSEG    (DATA)
                    0080    170 _P0_0	=	0x0080
                    0081    171 _P0_1	=	0x0081
                    0082    172 _P0_2	=	0x0082
                    0083    173 _P0_3	=	0x0083
                    0084    174 _P0_4	=	0x0084
                    0085    175 _P0_5	=	0x0085
                    0086    176 _P0_6	=	0x0086
                    0087    177 _P0_7	=	0x0087
                    0088    178 _IT0	=	0x0088
                    0089    179 _IE0	=	0x0089
                    008A    180 _IT1	=	0x008a
                    008B    181 _IE1	=	0x008b
                    008C    182 _TR0	=	0x008c
                    008D    183 _TF0	=	0x008d
                    008E    184 _TR1	=	0x008e
                    008F    185 _TF1	=	0x008f
                    0090    186 _P1_0	=	0x0090
                    0091    187 _P1_1	=	0x0091
                    0092    188 _P1_2	=	0x0092
                    0093    189 _P1_3	=	0x0093
                    0094    190 _P1_4	=	0x0094
                    0095    191 _P1_5	=	0x0095
                    0096    192 _P1_6	=	0x0096
                    0097    193 _P1_7	=	0x0097
                    0098    194 _RI	=	0x0098
                    0099    195 _TI	=	0x0099
                    009A    196 _RB8	=	0x009a
                    009B    197 _TB8	=	0x009b
                    009C    198 _REN	=	0x009c
                    009D    199 _SM2	=	0x009d
                    009E    200 _SM1	=	0x009e
                    009F    201 _SM0	=	0x009f
                    00A0    202 _P2_0	=	0x00a0
                    00A1    203 _P2_1	=	0x00a1
                    00A2    204 _P2_2	=	0x00a2
                    00A3    205 _P2_3	=	0x00a3
                    00A4    206 _P2_4	=	0x00a4
                    00A5    207 _P2_5	=	0x00a5
                    00A6    208 _P2_6	=	0x00a6
                    00A7    209 _P2_7	=	0x00a7
                    00A8    210 _EX0	=	0x00a8
                    00A9    211 _ET0	=	0x00a9
                    00AA    212 _EX1	=	0x00aa
                    00AB    213 _ET1	=	0x00ab
                    00AC    214 _ES	=	0x00ac
                    00AF    215 _EA	=	0x00af
                    00B0    216 _P3_0	=	0x00b0
                    00B1    217 _P3_1	=	0x00b1
                    00B2    218 _P3_2	=	0x00b2
                    00B3    219 _P3_3	=	0x00b3
                    00B4    220 _P3_4	=	0x00b4
                    00B5    221 _P3_5	=	0x00b5
                    00B6    222 _P3_6	=	0x00b6
                    00B7    223 _P3_7	=	0x00b7
                    00B0    224 _RXD	=	0x00b0
                    00B1    225 _TXD	=	0x00b1
                    00B2    226 _INT0	=	0x00b2
                    00B3    227 _INT1	=	0x00b3
                    00B4    228 _T0	=	0x00b4
                    00B5    229 _T1	=	0x00b5
                    00B6    230 _WR	=	0x00b6
                    00B7    231 _RD	=	0x00b7
                    00B8    232 _PX0	=	0x00b8
                    00B9    233 _PT0	=	0x00b9
                    00BA    234 _PX1	=	0x00ba
                    00BB    235 _PT1	=	0x00bb
                    00BC    236 _PS	=	0x00bc
                    00D0    237 _P	=	0x00d0
                    00D1    238 _F1	=	0x00d1
                    00D2    239 _OV	=	0x00d2
                    00D3    240 _RS0	=	0x00d3
                    00D4    241 _RS1	=	0x00d4
                    00D5    242 _F0	=	0x00d5
                    00D6    243 _AC	=	0x00d6
                    00D7    244 _CY	=	0x00d7
                            245 ;--------------------------------------------------------
                            246 ; overlayable register banks
                            247 ;--------------------------------------------------------
                            248 	.area REG_BANK_0	(REL,OVR,DATA)
   0000                     249 	.ds 8
                            250 ;--------------------------------------------------------
                            251 ; internal ram data
                            252 ;--------------------------------------------------------
                            253 	.area DSEG    (DATA)
   0008                     254 _montMultiply_PARM_2:
   0008                     255 	.ds 3
   000B                     256 _montMultiply_PARM_3:
   000B                     257 	.ds 3
   000E                     258 _montMultiply_One_PARM_2:
   000E                     259 	.ds 3
   0011                     260 _montModExp_PARM_2:
   0011                     261 	.ds 3
   0014                     262 _montModExp_PARM_3:
   0014                     263 	.ds 3
   0017                     264 _montModExp_r_1_1:
   0017                     265 	.ds 3
   001A                     266 _montModExp_t_1_1:
   001A                     267 	.ds 2
                            268 ;--------------------------------------------------------
                            269 ; overlayable items in internal ram 
                            270 ;--------------------------------------------------------
                            271 	.area	OSEG    (OVR,DATA)
   0021                     272 __findFirstOne_e_1_1::
   0021                     273 	.ds 3
   0024                     274 __findFirstOne_i_1_1::
   0024                     275 	.ds 1
                            276 ;--------------------------------------------------------
                            277 ; Stack segment in internal ram 
                            278 ;--------------------------------------------------------
                            279 	.area	SSEG	(DATA)
   002C                     280 __start__stack:
   002C                     281 	.ds	1
                            282 
                            283 ;--------------------------------------------------------
                            284 ; indirectly addressable internal ram data
                            285 ;--------------------------------------------------------
                            286 	.area ISEG    (DATA)
                            287 ;--------------------------------------------------------
                            288 ; absolute internal ram data
                            289 ;--------------------------------------------------------
                            290 	.area IABS    (ABS,DATA)
                            291 	.area IABS    (ABS,DATA)
                            292 ;--------------------------------------------------------
                            293 ; bit data
                            294 ;--------------------------------------------------------
                            295 	.area BSEG    (BIT)
   0000                     296 _montMultiply_PARM_4:
   0000                     297 	.ds 1
   0001                     298 _montMultiply_One_PARM_3:
   0001                     299 	.ds 1
   0002                     300 _montMultiply_Result_PARM_2:
   0002                     301 	.ds 1
                            302 ;--------------------------------------------------------
                            303 ; paged external ram data
                            304 ;--------------------------------------------------------
                            305 	.area PSEG    (PAG,XDATA)
                            306 ;--------------------------------------------------------
                            307 ; external ram data
                            308 ;--------------------------------------------------------
                            309 	.area XSEG    (XDATA)
                    2000    310 _sA	=	0x2000
                    2081    311 _sB	=	0x2081
                    2101    312 _sM	=	0x2101
                    3000    313 _sR	=	0x3000
                    5000    314 _encryptedMessage	=	0x5000
                    5100    315 _decryptedMessage	=	0x5100
                    1100    316 _montModExp_one_1_1	=	0x1100
                    1200    317 _montModExp_xTilde_1_1	=	0x1200
                            318 ;--------------------------------------------------------
                            319 ; absolute external ram data
                            320 ;--------------------------------------------------------
                            321 	.area XABS    (ABS,XDATA)
   4000                     322 	.org 0x4000
   4000                     323 _rmodm::
   4000                     324 	.ds 128
   4100                     325 	.org 0x4100
   4100                     326 _r2modm::
   4100                     327 	.ds 128
   4200                     328 	.org 0x4200
   4200                     329 _modulus::
   4200                     330 	.ds 128
   4300                     331 	.org 0x4300
   4300                     332 _message::
   4300                     333 	.ds 128
   4400                     334 	.org 0x4400
   4400                     335 _publicKey::
   4400                     336 	.ds 128
   4500                     337 	.org 0x4500
   4500                     338 _privateKey::
   4500                     339 	.ds 128
                            340 ;--------------------------------------------------------
                            341 ; external initialized ram data
                            342 ;--------------------------------------------------------
                            343 	.area XISEG   (XDATA)
                            344 	.area HOME    (CODE)
                            345 	.area GSINIT0 (CODE)
                            346 	.area GSINIT1 (CODE)
                            347 	.area GSINIT2 (CODE)
                            348 	.area GSINIT3 (CODE)
                            349 	.area GSINIT4 (CODE)
                            350 	.area GSINIT5 (CODE)
                            351 	.area GSINIT  (CODE)
                            352 	.area GSFINAL (CODE)
                            353 	.area CSEG    (CODE)
                            354 ;--------------------------------------------------------
                            355 ; interrupt vector 
                            356 ;--------------------------------------------------------
                            357 	.area HOME    (CODE)
   0000                     358 __interrupt_vect:
   0000 02 00 08            359 	ljmp	__sdcc_gsinit_startup
                            360 ;--------------------------------------------------------
                            361 ; global & static initialisations
                            362 ;--------------------------------------------------------
                            363 	.area HOME    (CODE)
                            364 	.area GSINIT  (CODE)
                            365 	.area GSFINAL (CODE)
                            366 	.area GSINIT  (CODE)
                            367 	.globl __sdcc_gsinit_startup
                            368 	.globl __sdcc_program_startup
                            369 	.globl __start__stack
                            370 	.globl __mcs51_genXINIT
                            371 	.globl __mcs51_genXRAMCLEAR
                            372 	.globl __mcs51_genRAMCLEAR
                            373 ;	main.c:34: volatile __xdata __at (0x4000) unsigned char rmodm[SIZE] = {0x95, 0x0C, 0x9E, 0x79, 0xEC, 0xD3, 0x0A, 0xE4, 0x35, 0x6B, 0x60, 0xED, 0x25, 0x25, 0x33, 0xD9, 0x26, 0x8C, 0xD1, 0x99, 0xEE, 0x9C, 0x11, 0x8D, 0xBC, 0xBF, 0x68, 0xAA, 0xB3, 0xF9, 0xDF, 0xDC, 0x80, 0xB8, 0x28, 0x60, 0x2B, 0x21, 0x03, 0x89, 0xEF, 0x2C, 0xE6, 0x93, 0x6F, 0xBB, 0xA7, 0x56, 0x28, 0xB5, 0x99, 0xD7, 0x69, 0xDB, 0x6B, 0x09, 0xF7, 0x0B, 0x84, 0xE5, 0xB2, 0xF8, 0x79, 0xC4, 0xD5, 0x7B, 0x06, 0x45, 0xB5, 0x22, 0xC2, 0x28, 0xF8, 0x7A, 0x39, 0x98, 0xE7, 0xA4, 0x54, 0x45, 0xA2, 0x0D, 0xCA, 0xB1, 0x3B, 0x9E, 0x59, 0xF9, 0xFB, 0xAA, 0x30, 0x97, 0x6D, 0x9B, 0x24, 0x6F, 0x74, 0x30, 0xA7, 0xAF, 0xFF, 0x84, 0x2C, 0x49, 0x1B, 0x30, 0x9F, 0xB5, 0x96, 0x3D, 0x8F, 0xC2, 0xF0, 0x3B, 0xFC, 0xD4, 0xB2, 0x78, 0x05, 0xD3, 0xCB, 0x80, 0x88, 0x85, 0x95, 0x7A, 0xB7, 0x64};
   0061 90 40 00            374 	mov	dptr,#_rmodm
   0064 74 95               375 	mov	a,#0x95
   0066 F0                  376 	movx	@dptr,a
   0067 90 40 01            377 	mov	dptr,#(_rmodm + 0x0001)
   006A 74 0C               378 	mov	a,#0x0C
   006C F0                  379 	movx	@dptr,a
   006D 90 40 02            380 	mov	dptr,#(_rmodm + 0x0002)
   0070 74 9E               381 	mov	a,#0x9E
   0072 F0                  382 	movx	@dptr,a
   0073 90 40 03            383 	mov	dptr,#(_rmodm + 0x0003)
   0076 74 79               384 	mov	a,#0x79
   0078 F0                  385 	movx	@dptr,a
   0079 90 40 04            386 	mov	dptr,#(_rmodm + 0x0004)
   007C 74 EC               387 	mov	a,#0xEC
   007E F0                  388 	movx	@dptr,a
   007F 90 40 05            389 	mov	dptr,#(_rmodm + 0x0005)
   0082 74 D3               390 	mov	a,#0xD3
   0084 F0                  391 	movx	@dptr,a
   0085 90 40 06            392 	mov	dptr,#(_rmodm + 0x0006)
   0088 74 0A               393 	mov	a,#0x0A
   008A F0                  394 	movx	@dptr,a
   008B 90 40 07            395 	mov	dptr,#(_rmodm + 0x0007)
   008E 74 E4               396 	mov	a,#0xE4
   0090 F0                  397 	movx	@dptr,a
   0091 90 40 08            398 	mov	dptr,#(_rmodm + 0x0008)
   0094 74 35               399 	mov	a,#0x35
   0096 F0                  400 	movx	@dptr,a
   0097 90 40 09            401 	mov	dptr,#(_rmodm + 0x0009)
   009A 74 6B               402 	mov	a,#0x6B
   009C F0                  403 	movx	@dptr,a
   009D 90 40 0A            404 	mov	dptr,#(_rmodm + 0x000a)
   00A0 74 60               405 	mov	a,#0x60
   00A2 F0                  406 	movx	@dptr,a
   00A3 90 40 0B            407 	mov	dptr,#(_rmodm + 0x000b)
   00A6 74 ED               408 	mov	a,#0xED
   00A8 F0                  409 	movx	@dptr,a
   00A9 90 40 0C            410 	mov	dptr,#(_rmodm + 0x000c)
   00AC 74 25               411 	mov	a,#0x25
   00AE F0                  412 	movx	@dptr,a
   00AF 90 40 0D            413 	mov	dptr,#(_rmodm + 0x000d)
   00B2 74 25               414 	mov	a,#0x25
   00B4 F0                  415 	movx	@dptr,a
   00B5 90 40 0E            416 	mov	dptr,#(_rmodm + 0x000e)
   00B8 74 33               417 	mov	a,#0x33
   00BA F0                  418 	movx	@dptr,a
   00BB 90 40 0F            419 	mov	dptr,#(_rmodm + 0x000f)
   00BE 74 D9               420 	mov	a,#0xD9
   00C0 F0                  421 	movx	@dptr,a
   00C1 90 40 10            422 	mov	dptr,#(_rmodm + 0x0010)
   00C4 74 26               423 	mov	a,#0x26
   00C6 F0                  424 	movx	@dptr,a
   00C7 90 40 11            425 	mov	dptr,#(_rmodm + 0x0011)
   00CA 74 8C               426 	mov	a,#0x8C
   00CC F0                  427 	movx	@dptr,a
   00CD 90 40 12            428 	mov	dptr,#(_rmodm + 0x0012)
   00D0 74 D1               429 	mov	a,#0xD1
   00D2 F0                  430 	movx	@dptr,a
   00D3 90 40 13            431 	mov	dptr,#(_rmodm + 0x0013)
   00D6 74 99               432 	mov	a,#0x99
   00D8 F0                  433 	movx	@dptr,a
   00D9 90 40 14            434 	mov	dptr,#(_rmodm + 0x0014)
   00DC 74 EE               435 	mov	a,#0xEE
   00DE F0                  436 	movx	@dptr,a
   00DF 90 40 15            437 	mov	dptr,#(_rmodm + 0x0015)
   00E2 74 9C               438 	mov	a,#0x9C
   00E4 F0                  439 	movx	@dptr,a
   00E5 90 40 16            440 	mov	dptr,#(_rmodm + 0x0016)
   00E8 74 11               441 	mov	a,#0x11
   00EA F0                  442 	movx	@dptr,a
   00EB 90 40 17            443 	mov	dptr,#(_rmodm + 0x0017)
   00EE 74 8D               444 	mov	a,#0x8D
   00F0 F0                  445 	movx	@dptr,a
   00F1 90 40 18            446 	mov	dptr,#(_rmodm + 0x0018)
   00F4 74 BC               447 	mov	a,#0xBC
   00F6 F0                  448 	movx	@dptr,a
   00F7 90 40 19            449 	mov	dptr,#(_rmodm + 0x0019)
   00FA 74 BF               450 	mov	a,#0xBF
   00FC F0                  451 	movx	@dptr,a
   00FD 90 40 1A            452 	mov	dptr,#(_rmodm + 0x001a)
   0100 74 68               453 	mov	a,#0x68
   0102 F0                  454 	movx	@dptr,a
   0103 90 40 1B            455 	mov	dptr,#(_rmodm + 0x001b)
   0106 74 AA               456 	mov	a,#0xAA
   0108 F0                  457 	movx	@dptr,a
   0109 90 40 1C            458 	mov	dptr,#(_rmodm + 0x001c)
   010C 74 B3               459 	mov	a,#0xB3
   010E F0                  460 	movx	@dptr,a
   010F 90 40 1D            461 	mov	dptr,#(_rmodm + 0x001d)
   0112 74 F9               462 	mov	a,#0xF9
   0114 F0                  463 	movx	@dptr,a
   0115 90 40 1E            464 	mov	dptr,#(_rmodm + 0x001e)
   0118 74 DF               465 	mov	a,#0xDF
   011A F0                  466 	movx	@dptr,a
   011B 90 40 1F            467 	mov	dptr,#(_rmodm + 0x001f)
   011E 74 DC               468 	mov	a,#0xDC
   0120 F0                  469 	movx	@dptr,a
   0121 90 40 20            470 	mov	dptr,#(_rmodm + 0x0020)
   0124 74 80               471 	mov	a,#0x80
   0126 F0                  472 	movx	@dptr,a
   0127 90 40 21            473 	mov	dptr,#(_rmodm + 0x0021)
   012A 74 B8               474 	mov	a,#0xB8
   012C F0                  475 	movx	@dptr,a
   012D 90 40 22            476 	mov	dptr,#(_rmodm + 0x0022)
   0130 74 28               477 	mov	a,#0x28
   0132 F0                  478 	movx	@dptr,a
   0133 90 40 23            479 	mov	dptr,#(_rmodm + 0x0023)
   0136 74 60               480 	mov	a,#0x60
   0138 F0                  481 	movx	@dptr,a
   0139 90 40 24            482 	mov	dptr,#(_rmodm + 0x0024)
   013C 74 2B               483 	mov	a,#0x2B
   013E F0                  484 	movx	@dptr,a
   013F 90 40 25            485 	mov	dptr,#(_rmodm + 0x0025)
   0142 74 21               486 	mov	a,#0x21
   0144 F0                  487 	movx	@dptr,a
   0145 90 40 26            488 	mov	dptr,#(_rmodm + 0x0026)
   0148 74 03               489 	mov	a,#0x03
   014A F0                  490 	movx	@dptr,a
   014B 90 40 27            491 	mov	dptr,#(_rmodm + 0x0027)
   014E 74 89               492 	mov	a,#0x89
   0150 F0                  493 	movx	@dptr,a
   0151 90 40 28            494 	mov	dptr,#(_rmodm + 0x0028)
   0154 74 EF               495 	mov	a,#0xEF
   0156 F0                  496 	movx	@dptr,a
   0157 90 40 29            497 	mov	dptr,#(_rmodm + 0x0029)
   015A 74 2C               498 	mov	a,#0x2C
   015C F0                  499 	movx	@dptr,a
   015D 90 40 2A            500 	mov	dptr,#(_rmodm + 0x002a)
   0160 74 E6               501 	mov	a,#0xE6
   0162 F0                  502 	movx	@dptr,a
   0163 90 40 2B            503 	mov	dptr,#(_rmodm + 0x002b)
   0166 74 93               504 	mov	a,#0x93
   0168 F0                  505 	movx	@dptr,a
   0169 90 40 2C            506 	mov	dptr,#(_rmodm + 0x002c)
   016C 74 6F               507 	mov	a,#0x6F
   016E F0                  508 	movx	@dptr,a
   016F 90 40 2D            509 	mov	dptr,#(_rmodm + 0x002d)
   0172 74 BB               510 	mov	a,#0xBB
   0174 F0                  511 	movx	@dptr,a
   0175 90 40 2E            512 	mov	dptr,#(_rmodm + 0x002e)
   0178 74 A7               513 	mov	a,#0xA7
   017A F0                  514 	movx	@dptr,a
   017B 90 40 2F            515 	mov	dptr,#(_rmodm + 0x002f)
   017E 74 56               516 	mov	a,#0x56
   0180 F0                  517 	movx	@dptr,a
   0181 90 40 30            518 	mov	dptr,#(_rmodm + 0x0030)
   0184 74 28               519 	mov	a,#0x28
   0186 F0                  520 	movx	@dptr,a
   0187 90 40 31            521 	mov	dptr,#(_rmodm + 0x0031)
   018A 74 B5               522 	mov	a,#0xB5
   018C F0                  523 	movx	@dptr,a
   018D 90 40 32            524 	mov	dptr,#(_rmodm + 0x0032)
   0190 74 99               525 	mov	a,#0x99
   0192 F0                  526 	movx	@dptr,a
   0193 90 40 33            527 	mov	dptr,#(_rmodm + 0x0033)
   0196 74 D7               528 	mov	a,#0xD7
   0198 F0                  529 	movx	@dptr,a
   0199 90 40 34            530 	mov	dptr,#(_rmodm + 0x0034)
   019C 74 69               531 	mov	a,#0x69
   019E F0                  532 	movx	@dptr,a
   019F 90 40 35            533 	mov	dptr,#(_rmodm + 0x0035)
   01A2 74 DB               534 	mov	a,#0xDB
   01A4 F0                  535 	movx	@dptr,a
   01A5 90 40 36            536 	mov	dptr,#(_rmodm + 0x0036)
   01A8 74 6B               537 	mov	a,#0x6B
   01AA F0                  538 	movx	@dptr,a
   01AB 90 40 37            539 	mov	dptr,#(_rmodm + 0x0037)
   01AE 74 09               540 	mov	a,#0x09
   01B0 F0                  541 	movx	@dptr,a
   01B1 90 40 38            542 	mov	dptr,#(_rmodm + 0x0038)
   01B4 74 F7               543 	mov	a,#0xF7
   01B6 F0                  544 	movx	@dptr,a
   01B7 90 40 39            545 	mov	dptr,#(_rmodm + 0x0039)
   01BA 74 0B               546 	mov	a,#0x0B
   01BC F0                  547 	movx	@dptr,a
   01BD 90 40 3A            548 	mov	dptr,#(_rmodm + 0x003a)
   01C0 74 84               549 	mov	a,#0x84
   01C2 F0                  550 	movx	@dptr,a
   01C3 90 40 3B            551 	mov	dptr,#(_rmodm + 0x003b)
   01C6 74 E5               552 	mov	a,#0xE5
   01C8 F0                  553 	movx	@dptr,a
   01C9 90 40 3C            554 	mov	dptr,#(_rmodm + 0x003c)
   01CC 74 B2               555 	mov	a,#0xB2
   01CE F0                  556 	movx	@dptr,a
   01CF 90 40 3D            557 	mov	dptr,#(_rmodm + 0x003d)
   01D2 74 F8               558 	mov	a,#0xF8
   01D4 F0                  559 	movx	@dptr,a
   01D5 90 40 3E            560 	mov	dptr,#(_rmodm + 0x003e)
   01D8 74 79               561 	mov	a,#0x79
   01DA F0                  562 	movx	@dptr,a
   01DB 90 40 3F            563 	mov	dptr,#(_rmodm + 0x003f)
   01DE 74 C4               564 	mov	a,#0xC4
   01E0 F0                  565 	movx	@dptr,a
   01E1 90 40 40            566 	mov	dptr,#(_rmodm + 0x0040)
   01E4 74 D5               567 	mov	a,#0xD5
   01E6 F0                  568 	movx	@dptr,a
   01E7 90 40 41            569 	mov	dptr,#(_rmodm + 0x0041)
   01EA 74 7B               570 	mov	a,#0x7B
   01EC F0                  571 	movx	@dptr,a
   01ED 90 40 42            572 	mov	dptr,#(_rmodm + 0x0042)
   01F0 74 06               573 	mov	a,#0x06
   01F2 F0                  574 	movx	@dptr,a
   01F3 90 40 43            575 	mov	dptr,#(_rmodm + 0x0043)
   01F6 74 45               576 	mov	a,#0x45
   01F8 F0                  577 	movx	@dptr,a
   01F9 90 40 44            578 	mov	dptr,#(_rmodm + 0x0044)
   01FC 74 B5               579 	mov	a,#0xB5
   01FE F0                  580 	movx	@dptr,a
   01FF 90 40 45            581 	mov	dptr,#(_rmodm + 0x0045)
   0202 74 22               582 	mov	a,#0x22
   0204 F0                  583 	movx	@dptr,a
   0205 90 40 46            584 	mov	dptr,#(_rmodm + 0x0046)
   0208 74 C2               585 	mov	a,#0xC2
   020A F0                  586 	movx	@dptr,a
   020B 90 40 47            587 	mov	dptr,#(_rmodm + 0x0047)
   020E 74 28               588 	mov	a,#0x28
   0210 F0                  589 	movx	@dptr,a
   0211 90 40 48            590 	mov	dptr,#(_rmodm + 0x0048)
   0214 74 F8               591 	mov	a,#0xF8
   0216 F0                  592 	movx	@dptr,a
   0217 90 40 49            593 	mov	dptr,#(_rmodm + 0x0049)
   021A 74 7A               594 	mov	a,#0x7A
   021C F0                  595 	movx	@dptr,a
   021D 90 40 4A            596 	mov	dptr,#(_rmodm + 0x004a)
   0220 74 39               597 	mov	a,#0x39
   0222 F0                  598 	movx	@dptr,a
   0223 90 40 4B            599 	mov	dptr,#(_rmodm + 0x004b)
   0226 74 98               600 	mov	a,#0x98
   0228 F0                  601 	movx	@dptr,a
   0229 90 40 4C            602 	mov	dptr,#(_rmodm + 0x004c)
   022C 74 E7               603 	mov	a,#0xE7
   022E F0                  604 	movx	@dptr,a
   022F 90 40 4D            605 	mov	dptr,#(_rmodm + 0x004d)
   0232 74 A4               606 	mov	a,#0xA4
   0234 F0                  607 	movx	@dptr,a
   0235 90 40 4E            608 	mov	dptr,#(_rmodm + 0x004e)
   0238 74 54               609 	mov	a,#0x54
   023A F0                  610 	movx	@dptr,a
   023B 90 40 4F            611 	mov	dptr,#(_rmodm + 0x004f)
   023E 74 45               612 	mov	a,#0x45
   0240 F0                  613 	movx	@dptr,a
   0241 90 40 50            614 	mov	dptr,#(_rmodm + 0x0050)
   0244 74 A2               615 	mov	a,#0xA2
   0246 F0                  616 	movx	@dptr,a
   0247 90 40 51            617 	mov	dptr,#(_rmodm + 0x0051)
   024A 74 0D               618 	mov	a,#0x0D
   024C F0                  619 	movx	@dptr,a
   024D 90 40 52            620 	mov	dptr,#(_rmodm + 0x0052)
   0250 74 CA               621 	mov	a,#0xCA
   0252 F0                  622 	movx	@dptr,a
   0253 90 40 53            623 	mov	dptr,#(_rmodm + 0x0053)
   0256 74 B1               624 	mov	a,#0xB1
   0258 F0                  625 	movx	@dptr,a
   0259 90 40 54            626 	mov	dptr,#(_rmodm + 0x0054)
   025C 74 3B               627 	mov	a,#0x3B
   025E F0                  628 	movx	@dptr,a
   025F 90 40 55            629 	mov	dptr,#(_rmodm + 0x0055)
   0262 74 9E               630 	mov	a,#0x9E
   0264 F0                  631 	movx	@dptr,a
   0265 90 40 56            632 	mov	dptr,#(_rmodm + 0x0056)
   0268 74 59               633 	mov	a,#0x59
   026A F0                  634 	movx	@dptr,a
   026B 90 40 57            635 	mov	dptr,#(_rmodm + 0x0057)
   026E 74 F9               636 	mov	a,#0xF9
   0270 F0                  637 	movx	@dptr,a
   0271 90 40 58            638 	mov	dptr,#(_rmodm + 0x0058)
   0274 74 FB               639 	mov	a,#0xFB
   0276 F0                  640 	movx	@dptr,a
   0277 90 40 59            641 	mov	dptr,#(_rmodm + 0x0059)
   027A 74 AA               642 	mov	a,#0xAA
   027C F0                  643 	movx	@dptr,a
   027D 90 40 5A            644 	mov	dptr,#(_rmodm + 0x005a)
   0280 74 30               645 	mov	a,#0x30
   0282 F0                  646 	movx	@dptr,a
   0283 90 40 5B            647 	mov	dptr,#(_rmodm + 0x005b)
   0286 74 97               648 	mov	a,#0x97
   0288 F0                  649 	movx	@dptr,a
   0289 90 40 5C            650 	mov	dptr,#(_rmodm + 0x005c)
   028C 74 6D               651 	mov	a,#0x6D
   028E F0                  652 	movx	@dptr,a
   028F 90 40 5D            653 	mov	dptr,#(_rmodm + 0x005d)
   0292 74 9B               654 	mov	a,#0x9B
   0294 F0                  655 	movx	@dptr,a
   0295 90 40 5E            656 	mov	dptr,#(_rmodm + 0x005e)
   0298 74 24               657 	mov	a,#0x24
   029A F0                  658 	movx	@dptr,a
   029B 90 40 5F            659 	mov	dptr,#(_rmodm + 0x005f)
   029E 74 6F               660 	mov	a,#0x6F
   02A0 F0                  661 	movx	@dptr,a
   02A1 90 40 60            662 	mov	dptr,#(_rmodm + 0x0060)
   02A4 74 74               663 	mov	a,#0x74
   02A6 F0                  664 	movx	@dptr,a
   02A7 90 40 61            665 	mov	dptr,#(_rmodm + 0x0061)
   02AA 74 30               666 	mov	a,#0x30
   02AC F0                  667 	movx	@dptr,a
   02AD 90 40 62            668 	mov	dptr,#(_rmodm + 0x0062)
   02B0 74 A7               669 	mov	a,#0xA7
   02B2 F0                  670 	movx	@dptr,a
   02B3 90 40 63            671 	mov	dptr,#(_rmodm + 0x0063)
   02B6 74 AF               672 	mov	a,#0xAF
   02B8 F0                  673 	movx	@dptr,a
   02B9 90 40 64            674 	mov	dptr,#(_rmodm + 0x0064)
   02BC 74 FF               675 	mov	a,#0xFF
   02BE F0                  676 	movx	@dptr,a
   02BF 90 40 65            677 	mov	dptr,#(_rmodm + 0x0065)
   02C2 74 84               678 	mov	a,#0x84
   02C4 F0                  679 	movx	@dptr,a
   02C5 90 40 66            680 	mov	dptr,#(_rmodm + 0x0066)
   02C8 74 2C               681 	mov	a,#0x2C
   02CA F0                  682 	movx	@dptr,a
   02CB 90 40 67            683 	mov	dptr,#(_rmodm + 0x0067)
   02CE 74 49               684 	mov	a,#0x49
   02D0 F0                  685 	movx	@dptr,a
   02D1 90 40 68            686 	mov	dptr,#(_rmodm + 0x0068)
   02D4 74 1B               687 	mov	a,#0x1B
   02D6 F0                  688 	movx	@dptr,a
   02D7 90 40 69            689 	mov	dptr,#(_rmodm + 0x0069)
   02DA 74 30               690 	mov	a,#0x30
   02DC F0                  691 	movx	@dptr,a
   02DD 90 40 6A            692 	mov	dptr,#(_rmodm + 0x006a)
   02E0 74 9F               693 	mov	a,#0x9F
   02E2 F0                  694 	movx	@dptr,a
   02E3 90 40 6B            695 	mov	dptr,#(_rmodm + 0x006b)
   02E6 74 B5               696 	mov	a,#0xB5
   02E8 F0                  697 	movx	@dptr,a
   02E9 90 40 6C            698 	mov	dptr,#(_rmodm + 0x006c)
   02EC 74 96               699 	mov	a,#0x96
   02EE F0                  700 	movx	@dptr,a
   02EF 90 40 6D            701 	mov	dptr,#(_rmodm + 0x006d)
   02F2 74 3D               702 	mov	a,#0x3D
   02F4 F0                  703 	movx	@dptr,a
   02F5 90 40 6E            704 	mov	dptr,#(_rmodm + 0x006e)
   02F8 74 8F               705 	mov	a,#0x8F
   02FA F0                  706 	movx	@dptr,a
   02FB 90 40 6F            707 	mov	dptr,#(_rmodm + 0x006f)
   02FE 74 C2               708 	mov	a,#0xC2
   0300 F0                  709 	movx	@dptr,a
   0301 90 40 70            710 	mov	dptr,#(_rmodm + 0x0070)
   0304 74 F0               711 	mov	a,#0xF0
   0306 F0                  712 	movx	@dptr,a
   0307 90 40 71            713 	mov	dptr,#(_rmodm + 0x0071)
   030A 74 3B               714 	mov	a,#0x3B
   030C F0                  715 	movx	@dptr,a
   030D 90 40 72            716 	mov	dptr,#(_rmodm + 0x0072)
   0310 74 FC               717 	mov	a,#0xFC
   0312 F0                  718 	movx	@dptr,a
   0313 90 40 73            719 	mov	dptr,#(_rmodm + 0x0073)
   0316 74 D4               720 	mov	a,#0xD4
   0318 F0                  721 	movx	@dptr,a
   0319 90 40 74            722 	mov	dptr,#(_rmodm + 0x0074)
   031C 74 B2               723 	mov	a,#0xB2
   031E F0                  724 	movx	@dptr,a
   031F 90 40 75            725 	mov	dptr,#(_rmodm + 0x0075)
   0322 74 78               726 	mov	a,#0x78
   0324 F0                  727 	movx	@dptr,a
   0325 90 40 76            728 	mov	dptr,#(_rmodm + 0x0076)
   0328 74 05               729 	mov	a,#0x05
   032A F0                  730 	movx	@dptr,a
   032B 90 40 77            731 	mov	dptr,#(_rmodm + 0x0077)
   032E 74 D3               732 	mov	a,#0xD3
   0330 F0                  733 	movx	@dptr,a
   0331 90 40 78            734 	mov	dptr,#(_rmodm + 0x0078)
   0334 74 CB               735 	mov	a,#0xCB
   0336 F0                  736 	movx	@dptr,a
   0337 90 40 79            737 	mov	dptr,#(_rmodm + 0x0079)
   033A 74 80               738 	mov	a,#0x80
   033C F0                  739 	movx	@dptr,a
   033D 90 40 7A            740 	mov	dptr,#(_rmodm + 0x007a)
   0340 74 88               741 	mov	a,#0x88
   0342 F0                  742 	movx	@dptr,a
   0343 90 40 7B            743 	mov	dptr,#(_rmodm + 0x007b)
   0346 74 85               744 	mov	a,#0x85
   0348 F0                  745 	movx	@dptr,a
   0349 90 40 7C            746 	mov	dptr,#(_rmodm + 0x007c)
   034C 74 95               747 	mov	a,#0x95
   034E F0                  748 	movx	@dptr,a
   034F 90 40 7D            749 	mov	dptr,#(_rmodm + 0x007d)
   0352 74 7A               750 	mov	a,#0x7A
   0354 F0                  751 	movx	@dptr,a
   0355 90 40 7E            752 	mov	dptr,#(_rmodm + 0x007e)
   0358 74 B7               753 	mov	a,#0xB7
   035A F0                  754 	movx	@dptr,a
   035B 90 40 7F            755 	mov	dptr,#(_rmodm + 0x007f)
   035E 74 64               756 	mov	a,#0x64
   0360 F0                  757 	movx	@dptr,a
                            758 ;	main.c:35: volatile __xdata __at (0x4100) unsigned char r2modm[SIZE] = {0xE4, 0xC4, 0x31, 0x31, 0x08, 0x64, 0x1B, 0xC5, 0x40, 0x21, 0xD5, 0x3F, 0x82, 0x98, 0xB5, 0x8B, 0x0C, 0xDA, 0xDE, 0x0A, 0x73, 0xD6, 0x75, 0x80, 0x81, 0x7B, 0xAF, 0x90, 0x51, 0xA2, 0x22, 0xDF, 0x60, 0xAD, 0x1A, 0x5A, 0x69, 0x4E, 0x87, 0xF5, 0x82, 0x19, 0xC7, 0xDD, 0xAF, 0xEB, 0x7A, 0x3E, 0xF3, 0xDA, 0xB1, 0xE1, 0xED, 0xD2, 0x2E, 0x26, 0x7D, 0xD5, 0xB7, 0xC3, 0x13, 0x09, 0xD5, 0x11, 0xDE, 0x9E, 0x12, 0x6A, 0x51, 0xF5, 0x83, 0x1B, 0xDE, 0xAB, 0x6D, 0xD7, 0xAD, 0x32, 0x07, 0x6C, 0x95, 0x2A, 0x56, 0xFF, 0xD7, 0xE7, 0x00, 0x85, 0xBE, 0xB4, 0x3E, 0xEF, 0x73, 0x88, 0x75, 0xD9, 0x5C, 0x6A, 0xB1, 0x58, 0x4A, 0xBC, 0x80, 0x53, 0x63, 0x48, 0xFD, 0xA0, 0xFC, 0xAD, 0xD9, 0x34, 0xFB, 0xD3, 0xA9, 0xE8, 0x18, 0x32, 0x33, 0x78, 0xB0, 0x08, 0xE4, 0x7B, 0x59, 0xF2, 0x45, 0x8A};
   0361 90 41 00            759 	mov	dptr,#_r2modm
   0364 74 E4               760 	mov	a,#0xE4
   0366 F0                  761 	movx	@dptr,a
   0367 90 41 01            762 	mov	dptr,#(_r2modm + 0x0001)
   036A 74 C4               763 	mov	a,#0xC4
   036C F0                  764 	movx	@dptr,a
   036D 90 41 02            765 	mov	dptr,#(_r2modm + 0x0002)
   0370 74 31               766 	mov	a,#0x31
   0372 F0                  767 	movx	@dptr,a
   0373 90 41 03            768 	mov	dptr,#(_r2modm + 0x0003)
   0376 74 31               769 	mov	a,#0x31
   0378 F0                  770 	movx	@dptr,a
   0379 90 41 04            771 	mov	dptr,#(_r2modm + 0x0004)
   037C 74 08               772 	mov	a,#0x08
   037E F0                  773 	movx	@dptr,a
   037F 90 41 05            774 	mov	dptr,#(_r2modm + 0x0005)
   0382 74 64               775 	mov	a,#0x64
   0384 F0                  776 	movx	@dptr,a
   0385 90 41 06            777 	mov	dptr,#(_r2modm + 0x0006)
   0388 74 1B               778 	mov	a,#0x1B
   038A F0                  779 	movx	@dptr,a
   038B 90 41 07            780 	mov	dptr,#(_r2modm + 0x0007)
   038E 74 C5               781 	mov	a,#0xC5
   0390 F0                  782 	movx	@dptr,a
   0391 90 41 08            783 	mov	dptr,#(_r2modm + 0x0008)
   0394 74 40               784 	mov	a,#0x40
   0396 F0                  785 	movx	@dptr,a
   0397 90 41 09            786 	mov	dptr,#(_r2modm + 0x0009)
   039A 74 21               787 	mov	a,#0x21
   039C F0                  788 	movx	@dptr,a
   039D 90 41 0A            789 	mov	dptr,#(_r2modm + 0x000a)
   03A0 74 D5               790 	mov	a,#0xD5
   03A2 F0                  791 	movx	@dptr,a
   03A3 90 41 0B            792 	mov	dptr,#(_r2modm + 0x000b)
   03A6 74 3F               793 	mov	a,#0x3F
   03A8 F0                  794 	movx	@dptr,a
   03A9 90 41 0C            795 	mov	dptr,#(_r2modm + 0x000c)
   03AC 74 82               796 	mov	a,#0x82
   03AE F0                  797 	movx	@dptr,a
   03AF 90 41 0D            798 	mov	dptr,#(_r2modm + 0x000d)
   03B2 74 98               799 	mov	a,#0x98
   03B4 F0                  800 	movx	@dptr,a
   03B5 90 41 0E            801 	mov	dptr,#(_r2modm + 0x000e)
   03B8 74 B5               802 	mov	a,#0xB5
   03BA F0                  803 	movx	@dptr,a
   03BB 90 41 0F            804 	mov	dptr,#(_r2modm + 0x000f)
   03BE 74 8B               805 	mov	a,#0x8B
   03C0 F0                  806 	movx	@dptr,a
   03C1 90 41 10            807 	mov	dptr,#(_r2modm + 0x0010)
   03C4 74 0C               808 	mov	a,#0x0C
   03C6 F0                  809 	movx	@dptr,a
   03C7 90 41 11            810 	mov	dptr,#(_r2modm + 0x0011)
   03CA 74 DA               811 	mov	a,#0xDA
   03CC F0                  812 	movx	@dptr,a
   03CD 90 41 12            813 	mov	dptr,#(_r2modm + 0x0012)
   03D0 74 DE               814 	mov	a,#0xDE
   03D2 F0                  815 	movx	@dptr,a
   03D3 90 41 13            816 	mov	dptr,#(_r2modm + 0x0013)
   03D6 74 0A               817 	mov	a,#0x0A
   03D8 F0                  818 	movx	@dptr,a
   03D9 90 41 14            819 	mov	dptr,#(_r2modm + 0x0014)
   03DC 74 73               820 	mov	a,#0x73
   03DE F0                  821 	movx	@dptr,a
   03DF 90 41 15            822 	mov	dptr,#(_r2modm + 0x0015)
   03E2 74 D6               823 	mov	a,#0xD6
   03E4 F0                  824 	movx	@dptr,a
   03E5 90 41 16            825 	mov	dptr,#(_r2modm + 0x0016)
   03E8 74 75               826 	mov	a,#0x75
   03EA F0                  827 	movx	@dptr,a
   03EB 90 41 17            828 	mov	dptr,#(_r2modm + 0x0017)
   03EE 74 80               829 	mov	a,#0x80
   03F0 F0                  830 	movx	@dptr,a
   03F1 90 41 18            831 	mov	dptr,#(_r2modm + 0x0018)
   03F4 74 81               832 	mov	a,#0x81
   03F6 F0                  833 	movx	@dptr,a
   03F7 90 41 19            834 	mov	dptr,#(_r2modm + 0x0019)
   03FA 74 7B               835 	mov	a,#0x7B
   03FC F0                  836 	movx	@dptr,a
   03FD 90 41 1A            837 	mov	dptr,#(_r2modm + 0x001a)
   0400 74 AF               838 	mov	a,#0xAF
   0402 F0                  839 	movx	@dptr,a
   0403 90 41 1B            840 	mov	dptr,#(_r2modm + 0x001b)
   0406 74 90               841 	mov	a,#0x90
   0408 F0                  842 	movx	@dptr,a
   0409 90 41 1C            843 	mov	dptr,#(_r2modm + 0x001c)
   040C 74 51               844 	mov	a,#0x51
   040E F0                  845 	movx	@dptr,a
   040F 90 41 1D            846 	mov	dptr,#(_r2modm + 0x001d)
   0412 74 A2               847 	mov	a,#0xA2
   0414 F0                  848 	movx	@dptr,a
   0415 90 41 1E            849 	mov	dptr,#(_r2modm + 0x001e)
   0418 74 22               850 	mov	a,#0x22
   041A F0                  851 	movx	@dptr,a
   041B 90 41 1F            852 	mov	dptr,#(_r2modm + 0x001f)
   041E 74 DF               853 	mov	a,#0xDF
   0420 F0                  854 	movx	@dptr,a
   0421 90 41 20            855 	mov	dptr,#(_r2modm + 0x0020)
   0424 74 60               856 	mov	a,#0x60
   0426 F0                  857 	movx	@dptr,a
   0427 90 41 21            858 	mov	dptr,#(_r2modm + 0x0021)
   042A 74 AD               859 	mov	a,#0xAD
   042C F0                  860 	movx	@dptr,a
   042D 90 41 22            861 	mov	dptr,#(_r2modm + 0x0022)
   0430 74 1A               862 	mov	a,#0x1A
   0432 F0                  863 	movx	@dptr,a
   0433 90 41 23            864 	mov	dptr,#(_r2modm + 0x0023)
   0436 74 5A               865 	mov	a,#0x5A
   0438 F0                  866 	movx	@dptr,a
   0439 90 41 24            867 	mov	dptr,#(_r2modm + 0x0024)
   043C 74 69               868 	mov	a,#0x69
   043E F0                  869 	movx	@dptr,a
   043F 90 41 25            870 	mov	dptr,#(_r2modm + 0x0025)
   0442 74 4E               871 	mov	a,#0x4E
   0444 F0                  872 	movx	@dptr,a
   0445 90 41 26            873 	mov	dptr,#(_r2modm + 0x0026)
   0448 74 87               874 	mov	a,#0x87
   044A F0                  875 	movx	@dptr,a
   044B 90 41 27            876 	mov	dptr,#(_r2modm + 0x0027)
   044E 74 F5               877 	mov	a,#0xF5
   0450 F0                  878 	movx	@dptr,a
   0451 90 41 28            879 	mov	dptr,#(_r2modm + 0x0028)
   0454 74 82               880 	mov	a,#0x82
   0456 F0                  881 	movx	@dptr,a
   0457 90 41 29            882 	mov	dptr,#(_r2modm + 0x0029)
   045A 74 19               883 	mov	a,#0x19
   045C F0                  884 	movx	@dptr,a
   045D 90 41 2A            885 	mov	dptr,#(_r2modm + 0x002a)
   0460 74 C7               886 	mov	a,#0xC7
   0462 F0                  887 	movx	@dptr,a
   0463 90 41 2B            888 	mov	dptr,#(_r2modm + 0x002b)
   0466 74 DD               889 	mov	a,#0xDD
   0468 F0                  890 	movx	@dptr,a
   0469 90 41 2C            891 	mov	dptr,#(_r2modm + 0x002c)
   046C 74 AF               892 	mov	a,#0xAF
   046E F0                  893 	movx	@dptr,a
   046F 90 41 2D            894 	mov	dptr,#(_r2modm + 0x002d)
   0472 74 EB               895 	mov	a,#0xEB
   0474 F0                  896 	movx	@dptr,a
   0475 90 41 2E            897 	mov	dptr,#(_r2modm + 0x002e)
   0478 74 7A               898 	mov	a,#0x7A
   047A F0                  899 	movx	@dptr,a
   047B 90 41 2F            900 	mov	dptr,#(_r2modm + 0x002f)
   047E 74 3E               901 	mov	a,#0x3E
   0480 F0                  902 	movx	@dptr,a
   0481 90 41 30            903 	mov	dptr,#(_r2modm + 0x0030)
   0484 74 F3               904 	mov	a,#0xF3
   0486 F0                  905 	movx	@dptr,a
   0487 90 41 31            906 	mov	dptr,#(_r2modm + 0x0031)
   048A 74 DA               907 	mov	a,#0xDA
   048C F0                  908 	movx	@dptr,a
   048D 90 41 32            909 	mov	dptr,#(_r2modm + 0x0032)
   0490 74 B1               910 	mov	a,#0xB1
   0492 F0                  911 	movx	@dptr,a
   0493 90 41 33            912 	mov	dptr,#(_r2modm + 0x0033)
   0496 74 E1               913 	mov	a,#0xE1
   0498 F0                  914 	movx	@dptr,a
   0499 90 41 34            915 	mov	dptr,#(_r2modm + 0x0034)
   049C 74 ED               916 	mov	a,#0xED
   049E F0                  917 	movx	@dptr,a
   049F 90 41 35            918 	mov	dptr,#(_r2modm + 0x0035)
   04A2 74 D2               919 	mov	a,#0xD2
   04A4 F0                  920 	movx	@dptr,a
   04A5 90 41 36            921 	mov	dptr,#(_r2modm + 0x0036)
   04A8 74 2E               922 	mov	a,#0x2E
   04AA F0                  923 	movx	@dptr,a
   04AB 90 41 37            924 	mov	dptr,#(_r2modm + 0x0037)
   04AE 74 26               925 	mov	a,#0x26
   04B0 F0                  926 	movx	@dptr,a
   04B1 90 41 38            927 	mov	dptr,#(_r2modm + 0x0038)
   04B4 74 7D               928 	mov	a,#0x7D
   04B6 F0                  929 	movx	@dptr,a
   04B7 90 41 39            930 	mov	dptr,#(_r2modm + 0x0039)
   04BA 74 D5               931 	mov	a,#0xD5
   04BC F0                  932 	movx	@dptr,a
   04BD 90 41 3A            933 	mov	dptr,#(_r2modm + 0x003a)
   04C0 74 B7               934 	mov	a,#0xB7
   04C2 F0                  935 	movx	@dptr,a
   04C3 90 41 3B            936 	mov	dptr,#(_r2modm + 0x003b)
   04C6 74 C3               937 	mov	a,#0xC3
   04C8 F0                  938 	movx	@dptr,a
   04C9 90 41 3C            939 	mov	dptr,#(_r2modm + 0x003c)
   04CC 74 13               940 	mov	a,#0x13
   04CE F0                  941 	movx	@dptr,a
   04CF 90 41 3D            942 	mov	dptr,#(_r2modm + 0x003d)
   04D2 74 09               943 	mov	a,#0x09
   04D4 F0                  944 	movx	@dptr,a
   04D5 90 41 3E            945 	mov	dptr,#(_r2modm + 0x003e)
   04D8 74 D5               946 	mov	a,#0xD5
   04DA F0                  947 	movx	@dptr,a
   04DB 90 41 3F            948 	mov	dptr,#(_r2modm + 0x003f)
   04DE 74 11               949 	mov	a,#0x11
   04E0 F0                  950 	movx	@dptr,a
   04E1 90 41 40            951 	mov	dptr,#(_r2modm + 0x0040)
   04E4 74 DE               952 	mov	a,#0xDE
   04E6 F0                  953 	movx	@dptr,a
   04E7 90 41 41            954 	mov	dptr,#(_r2modm + 0x0041)
   04EA 74 9E               955 	mov	a,#0x9E
   04EC F0                  956 	movx	@dptr,a
   04ED 90 41 42            957 	mov	dptr,#(_r2modm + 0x0042)
   04F0 74 12               958 	mov	a,#0x12
   04F2 F0                  959 	movx	@dptr,a
   04F3 90 41 43            960 	mov	dptr,#(_r2modm + 0x0043)
   04F6 74 6A               961 	mov	a,#0x6A
   04F8 F0                  962 	movx	@dptr,a
   04F9 90 41 44            963 	mov	dptr,#(_r2modm + 0x0044)
   04FC 74 51               964 	mov	a,#0x51
   04FE F0                  965 	movx	@dptr,a
   04FF 90 41 45            966 	mov	dptr,#(_r2modm + 0x0045)
   0502 74 F5               967 	mov	a,#0xF5
   0504 F0                  968 	movx	@dptr,a
   0505 90 41 46            969 	mov	dptr,#(_r2modm + 0x0046)
   0508 74 83               970 	mov	a,#0x83
   050A F0                  971 	movx	@dptr,a
   050B 90 41 47            972 	mov	dptr,#(_r2modm + 0x0047)
   050E 74 1B               973 	mov	a,#0x1B
   0510 F0                  974 	movx	@dptr,a
   0511 90 41 48            975 	mov	dptr,#(_r2modm + 0x0048)
   0514 74 DE               976 	mov	a,#0xDE
   0516 F0                  977 	movx	@dptr,a
   0517 90 41 49            978 	mov	dptr,#(_r2modm + 0x0049)
   051A 74 AB               979 	mov	a,#0xAB
   051C F0                  980 	movx	@dptr,a
   051D 90 41 4A            981 	mov	dptr,#(_r2modm + 0x004a)
   0520 74 6D               982 	mov	a,#0x6D
   0522 F0                  983 	movx	@dptr,a
   0523 90 41 4B            984 	mov	dptr,#(_r2modm + 0x004b)
   0526 74 D7               985 	mov	a,#0xD7
   0528 F0                  986 	movx	@dptr,a
   0529 90 41 4C            987 	mov	dptr,#(_r2modm + 0x004c)
   052C 74 AD               988 	mov	a,#0xAD
   052E F0                  989 	movx	@dptr,a
   052F 90 41 4D            990 	mov	dptr,#(_r2modm + 0x004d)
   0532 74 32               991 	mov	a,#0x32
   0534 F0                  992 	movx	@dptr,a
   0535 90 41 4E            993 	mov	dptr,#(_r2modm + 0x004e)
   0538 74 07               994 	mov	a,#0x07
   053A F0                  995 	movx	@dptr,a
   053B 90 41 4F            996 	mov	dptr,#(_r2modm + 0x004f)
   053E 74 6C               997 	mov	a,#0x6C
   0540 F0                  998 	movx	@dptr,a
   0541 90 41 50            999 	mov	dptr,#(_r2modm + 0x0050)
   0544 74 95              1000 	mov	a,#0x95
   0546 F0                 1001 	movx	@dptr,a
   0547 90 41 51           1002 	mov	dptr,#(_r2modm + 0x0051)
   054A 74 2A              1003 	mov	a,#0x2A
   054C F0                 1004 	movx	@dptr,a
   054D 90 41 52           1005 	mov	dptr,#(_r2modm + 0x0052)
   0550 74 56              1006 	mov	a,#0x56
   0552 F0                 1007 	movx	@dptr,a
   0553 90 41 53           1008 	mov	dptr,#(_r2modm + 0x0053)
   0556 74 FF              1009 	mov	a,#0xFF
   0558 F0                 1010 	movx	@dptr,a
   0559 90 41 54           1011 	mov	dptr,#(_r2modm + 0x0054)
   055C 74 D7              1012 	mov	a,#0xD7
   055E F0                 1013 	movx	@dptr,a
   055F 90 41 55           1014 	mov	dptr,#(_r2modm + 0x0055)
   0562 74 E7              1015 	mov	a,#0xE7
   0564 F0                 1016 	movx	@dptr,a
   0565 90 41 56           1017 	mov	dptr,#(_r2modm + 0x0056)
   0568 E4                 1018 	clr	a
   0569 F0                 1019 	movx	@dptr,a
   056A 90 41 57           1020 	mov	dptr,#(_r2modm + 0x0057)
   056D 74 85              1021 	mov	a,#0x85
   056F F0                 1022 	movx	@dptr,a
   0570 90 41 58           1023 	mov	dptr,#(_r2modm + 0x0058)
   0573 74 BE              1024 	mov	a,#0xBE
   0575 F0                 1025 	movx	@dptr,a
   0576 90 41 59           1026 	mov	dptr,#(_r2modm + 0x0059)
   0579 74 B4              1027 	mov	a,#0xB4
   057B F0                 1028 	movx	@dptr,a
   057C 90 41 5A           1029 	mov	dptr,#(_r2modm + 0x005a)
   057F 74 3E              1030 	mov	a,#0x3E
   0581 F0                 1031 	movx	@dptr,a
   0582 90 41 5B           1032 	mov	dptr,#(_r2modm + 0x005b)
   0585 74 EF              1033 	mov	a,#0xEF
   0587 F0                 1034 	movx	@dptr,a
   0588 90 41 5C           1035 	mov	dptr,#(_r2modm + 0x005c)
   058B 74 73              1036 	mov	a,#0x73
   058D F0                 1037 	movx	@dptr,a
   058E 90 41 5D           1038 	mov	dptr,#(_r2modm + 0x005d)
   0591 74 88              1039 	mov	a,#0x88
   0593 F0                 1040 	movx	@dptr,a
   0594 90 41 5E           1041 	mov	dptr,#(_r2modm + 0x005e)
   0597 74 75              1042 	mov	a,#0x75
   0599 F0                 1043 	movx	@dptr,a
   059A 90 41 5F           1044 	mov	dptr,#(_r2modm + 0x005f)
   059D 74 D9              1045 	mov	a,#0xD9
   059F F0                 1046 	movx	@dptr,a
   05A0 90 41 60           1047 	mov	dptr,#(_r2modm + 0x0060)
   05A3 74 5C              1048 	mov	a,#0x5C
   05A5 F0                 1049 	movx	@dptr,a
   05A6 90 41 61           1050 	mov	dptr,#(_r2modm + 0x0061)
   05A9 74 6A              1051 	mov	a,#0x6A
   05AB F0                 1052 	movx	@dptr,a
   05AC 90 41 62           1053 	mov	dptr,#(_r2modm + 0x0062)
   05AF 74 B1              1054 	mov	a,#0xB1
   05B1 F0                 1055 	movx	@dptr,a
   05B2 90 41 63           1056 	mov	dptr,#(_r2modm + 0x0063)
   05B5 74 58              1057 	mov	a,#0x58
   05B7 F0                 1058 	movx	@dptr,a
   05B8 90 41 64           1059 	mov	dptr,#(_r2modm + 0x0064)
   05BB 74 4A              1060 	mov	a,#0x4A
   05BD F0                 1061 	movx	@dptr,a
   05BE 90 41 65           1062 	mov	dptr,#(_r2modm + 0x0065)
   05C1 74 BC              1063 	mov	a,#0xBC
   05C3 F0                 1064 	movx	@dptr,a
   05C4 90 41 66           1065 	mov	dptr,#(_r2modm + 0x0066)
   05C7 74 80              1066 	mov	a,#0x80
   05C9 F0                 1067 	movx	@dptr,a
   05CA 90 41 67           1068 	mov	dptr,#(_r2modm + 0x0067)
   05CD 74 53              1069 	mov	a,#0x53
   05CF F0                 1070 	movx	@dptr,a
   05D0 90 41 68           1071 	mov	dptr,#(_r2modm + 0x0068)
   05D3 74 63              1072 	mov	a,#0x63
   05D5 F0                 1073 	movx	@dptr,a
   05D6 90 41 69           1074 	mov	dptr,#(_r2modm + 0x0069)
   05D9 74 48              1075 	mov	a,#0x48
   05DB F0                 1076 	movx	@dptr,a
   05DC 90 41 6A           1077 	mov	dptr,#(_r2modm + 0x006a)
   05DF 74 FD              1078 	mov	a,#0xFD
   05E1 F0                 1079 	movx	@dptr,a
   05E2 90 41 6B           1080 	mov	dptr,#(_r2modm + 0x006b)
   05E5 74 A0              1081 	mov	a,#0xA0
   05E7 F0                 1082 	movx	@dptr,a
   05E8 90 41 6C           1083 	mov	dptr,#(_r2modm + 0x006c)
   05EB 74 FC              1084 	mov	a,#0xFC
   05ED F0                 1085 	movx	@dptr,a
   05EE 90 41 6D           1086 	mov	dptr,#(_r2modm + 0x006d)
   05F1 74 AD              1087 	mov	a,#0xAD
   05F3 F0                 1088 	movx	@dptr,a
   05F4 90 41 6E           1089 	mov	dptr,#(_r2modm + 0x006e)
   05F7 74 D9              1090 	mov	a,#0xD9
   05F9 F0                 1091 	movx	@dptr,a
   05FA 90 41 6F           1092 	mov	dptr,#(_r2modm + 0x006f)
   05FD 74 34              1093 	mov	a,#0x34
   05FF F0                 1094 	movx	@dptr,a
   0600 90 41 70           1095 	mov	dptr,#(_r2modm + 0x0070)
   0603 74 FB              1096 	mov	a,#0xFB
   0605 F0                 1097 	movx	@dptr,a
   0606 90 41 71           1098 	mov	dptr,#(_r2modm + 0x0071)
   0609 74 D3              1099 	mov	a,#0xD3
   060B F0                 1100 	movx	@dptr,a
   060C 90 41 72           1101 	mov	dptr,#(_r2modm + 0x0072)
   060F 74 A9              1102 	mov	a,#0xA9
   0611 F0                 1103 	movx	@dptr,a
   0612 90 41 73           1104 	mov	dptr,#(_r2modm + 0x0073)
   0615 74 E8              1105 	mov	a,#0xE8
   0617 F0                 1106 	movx	@dptr,a
   0618 90 41 74           1107 	mov	dptr,#(_r2modm + 0x0074)
   061B 74 18              1108 	mov	a,#0x18
   061D F0                 1109 	movx	@dptr,a
   061E 90 41 75           1110 	mov	dptr,#(_r2modm + 0x0075)
   0621 74 32              1111 	mov	a,#0x32
   0623 F0                 1112 	movx	@dptr,a
   0624 90 41 76           1113 	mov	dptr,#(_r2modm + 0x0076)
   0627 74 33              1114 	mov	a,#0x33
   0629 F0                 1115 	movx	@dptr,a
   062A 90 41 77           1116 	mov	dptr,#(_r2modm + 0x0077)
   062D 74 78              1117 	mov	a,#0x78
   062F F0                 1118 	movx	@dptr,a
   0630 90 41 78           1119 	mov	dptr,#(_r2modm + 0x0078)
   0633 74 B0              1120 	mov	a,#0xB0
   0635 F0                 1121 	movx	@dptr,a
   0636 90 41 79           1122 	mov	dptr,#(_r2modm + 0x0079)
   0639 74 08              1123 	mov	a,#0x08
   063B F0                 1124 	movx	@dptr,a
   063C 90 41 7A           1125 	mov	dptr,#(_r2modm + 0x007a)
   063F 74 E4              1126 	mov	a,#0xE4
   0641 F0                 1127 	movx	@dptr,a
   0642 90 41 7B           1128 	mov	dptr,#(_r2modm + 0x007b)
   0645 74 7B              1129 	mov	a,#0x7B
   0647 F0                 1130 	movx	@dptr,a
   0648 90 41 7C           1131 	mov	dptr,#(_r2modm + 0x007c)
   064B 74 59              1132 	mov	a,#0x59
   064D F0                 1133 	movx	@dptr,a
   064E 90 41 7D           1134 	mov	dptr,#(_r2modm + 0x007d)
   0651 74 F2              1135 	mov	a,#0xF2
   0653 F0                 1136 	movx	@dptr,a
   0654 90 41 7E           1137 	mov	dptr,#(_r2modm + 0x007e)
   0657 74 45              1138 	mov	a,#0x45
   0659 F0                 1139 	movx	@dptr,a
   065A 90 41 7F           1140 	mov	dptr,#(_r2modm + 0x007f)
   065D 74 8A              1141 	mov	a,#0x8A
   065F F0                 1142 	movx	@dptr,a
                           1143 ;	main.c:37: volatile __xdata __at (0x4200) unsigned char modulus[SIZE] = {0x6B, 0xF3, 0x61, 0x86, 0x13, 0x2C, 0xF5, 0x1B, 0xCA, 0x94, 0x9F, 0x12, 0xDA, 0xDA, 0xCC, 0x26, 0xD9, 0x73, 0x2E, 0x66, 0x11, 0x63, 0xEE, 0x72, 0x43, 0x40, 0x97, 0x55, 0x4C, 0x06, 0x20, 0x23, 0x7F, 0x47, 0xD7, 0x9F, 0xD4, 0xDE, 0xFC, 0x76, 0x10, 0xD3, 0x19, 0x6C, 0x90, 0x44, 0x58, 0xA9, 0xD7, 0x4A, 0x66, 0x28, 0x96, 0x24, 0x94, 0xF6, 0x08, 0xF4, 0x7B, 0x1A, 0x4D, 0x07, 0x86, 0x3B, 0x2A, 0x84, 0xF9, 0xBA, 0x4A, 0xDD, 0x3D, 0xD7, 0x07, 0x85, 0xC6, 0x67, 0x18, 0x5B, 0xAB, 0xBA, 0x5D, 0xF2, 0x35, 0x4E, 0xC4, 0x61, 0xA6, 0x06, 0x04, 0x55, 0xCF, 0x68, 0x92, 0x64, 0xDB, 0x90, 0x8B, 0xCF, 0x58, 0x50, 0x00, 0x7B, 0xD3, 0xB6, 0xE4, 0xCF, 0x60, 0x4A, 0x69, 0xC2, 0x70, 0x3D, 0x0F, 0xC4, 0x03, 0x2B, 0x4D, 0x87, 0xFA, 0x2C, 0x34, 0x7F, 0x77, 0x7A, 0x6A, 0x85, 0x48, 0x9B};
   0660 90 42 00           1144 	mov	dptr,#_modulus
   0663 74 6B              1145 	mov	a,#0x6B
   0665 F0                 1146 	movx	@dptr,a
   0666 90 42 01           1147 	mov	dptr,#(_modulus + 0x0001)
   0669 74 F3              1148 	mov	a,#0xF3
   066B F0                 1149 	movx	@dptr,a
   066C 90 42 02           1150 	mov	dptr,#(_modulus + 0x0002)
   066F 74 61              1151 	mov	a,#0x61
   0671 F0                 1152 	movx	@dptr,a
   0672 90 42 03           1153 	mov	dptr,#(_modulus + 0x0003)
   0675 74 86              1154 	mov	a,#0x86
   0677 F0                 1155 	movx	@dptr,a
   0678 90 42 04           1156 	mov	dptr,#(_modulus + 0x0004)
   067B 74 13              1157 	mov	a,#0x13
   067D F0                 1158 	movx	@dptr,a
   067E 90 42 05           1159 	mov	dptr,#(_modulus + 0x0005)
   0681 74 2C              1160 	mov	a,#0x2C
   0683 F0                 1161 	movx	@dptr,a
   0684 90 42 06           1162 	mov	dptr,#(_modulus + 0x0006)
   0687 74 F5              1163 	mov	a,#0xF5
   0689 F0                 1164 	movx	@dptr,a
   068A 90 42 07           1165 	mov	dptr,#(_modulus + 0x0007)
   068D 74 1B              1166 	mov	a,#0x1B
   068F F0                 1167 	movx	@dptr,a
   0690 90 42 08           1168 	mov	dptr,#(_modulus + 0x0008)
   0693 74 CA              1169 	mov	a,#0xCA
   0695 F0                 1170 	movx	@dptr,a
   0696 90 42 09           1171 	mov	dptr,#(_modulus + 0x0009)
   0699 74 94              1172 	mov	a,#0x94
   069B F0                 1173 	movx	@dptr,a
   069C 90 42 0A           1174 	mov	dptr,#(_modulus + 0x000a)
   069F 74 9F              1175 	mov	a,#0x9F
   06A1 F0                 1176 	movx	@dptr,a
   06A2 90 42 0B           1177 	mov	dptr,#(_modulus + 0x000b)
   06A5 74 12              1178 	mov	a,#0x12
   06A7 F0                 1179 	movx	@dptr,a
   06A8 90 42 0C           1180 	mov	dptr,#(_modulus + 0x000c)
   06AB 74 DA              1181 	mov	a,#0xDA
   06AD F0                 1182 	movx	@dptr,a
   06AE 90 42 0D           1183 	mov	dptr,#(_modulus + 0x000d)
   06B1 74 DA              1184 	mov	a,#0xDA
   06B3 F0                 1185 	movx	@dptr,a
   06B4 90 42 0E           1186 	mov	dptr,#(_modulus + 0x000e)
   06B7 74 CC              1187 	mov	a,#0xCC
   06B9 F0                 1188 	movx	@dptr,a
   06BA 90 42 0F           1189 	mov	dptr,#(_modulus + 0x000f)
   06BD 74 26              1190 	mov	a,#0x26
   06BF F0                 1191 	movx	@dptr,a
   06C0 90 42 10           1192 	mov	dptr,#(_modulus + 0x0010)
   06C3 74 D9              1193 	mov	a,#0xD9
   06C5 F0                 1194 	movx	@dptr,a
   06C6 90 42 11           1195 	mov	dptr,#(_modulus + 0x0011)
   06C9 74 73              1196 	mov	a,#0x73
   06CB F0                 1197 	movx	@dptr,a
   06CC 90 42 12           1198 	mov	dptr,#(_modulus + 0x0012)
   06CF 74 2E              1199 	mov	a,#0x2E
   06D1 F0                 1200 	movx	@dptr,a
   06D2 90 42 13           1201 	mov	dptr,#(_modulus + 0x0013)
   06D5 74 66              1202 	mov	a,#0x66
   06D7 F0                 1203 	movx	@dptr,a
   06D8 90 42 14           1204 	mov	dptr,#(_modulus + 0x0014)
   06DB 74 11              1205 	mov	a,#0x11
   06DD F0                 1206 	movx	@dptr,a
   06DE 90 42 15           1207 	mov	dptr,#(_modulus + 0x0015)
   06E1 74 63              1208 	mov	a,#0x63
   06E3 F0                 1209 	movx	@dptr,a
   06E4 90 42 16           1210 	mov	dptr,#(_modulus + 0x0016)
   06E7 74 EE              1211 	mov	a,#0xEE
   06E9 F0                 1212 	movx	@dptr,a
   06EA 90 42 17           1213 	mov	dptr,#(_modulus + 0x0017)
   06ED 74 72              1214 	mov	a,#0x72
   06EF F0                 1215 	movx	@dptr,a
   06F0 90 42 18           1216 	mov	dptr,#(_modulus + 0x0018)
   06F3 74 43              1217 	mov	a,#0x43
   06F5 F0                 1218 	movx	@dptr,a
   06F6 90 42 19           1219 	mov	dptr,#(_modulus + 0x0019)
   06F9 74 40              1220 	mov	a,#0x40
   06FB F0                 1221 	movx	@dptr,a
   06FC 90 42 1A           1222 	mov	dptr,#(_modulus + 0x001a)
   06FF 74 97              1223 	mov	a,#0x97
   0701 F0                 1224 	movx	@dptr,a
   0702 90 42 1B           1225 	mov	dptr,#(_modulus + 0x001b)
   0705 74 55              1226 	mov	a,#0x55
   0707 F0                 1227 	movx	@dptr,a
   0708 90 42 1C           1228 	mov	dptr,#(_modulus + 0x001c)
   070B 74 4C              1229 	mov	a,#0x4C
   070D F0                 1230 	movx	@dptr,a
   070E 90 42 1D           1231 	mov	dptr,#(_modulus + 0x001d)
   0711 74 06              1232 	mov	a,#0x06
   0713 F0                 1233 	movx	@dptr,a
   0714 90 42 1E           1234 	mov	dptr,#(_modulus + 0x001e)
   0717 74 20              1235 	mov	a,#0x20
   0719 F0                 1236 	movx	@dptr,a
   071A 90 42 1F           1237 	mov	dptr,#(_modulus + 0x001f)
   071D 74 23              1238 	mov	a,#0x23
   071F F0                 1239 	movx	@dptr,a
   0720 90 42 20           1240 	mov	dptr,#(_modulus + 0x0020)
   0723 74 7F              1241 	mov	a,#0x7F
   0725 F0                 1242 	movx	@dptr,a
   0726 90 42 21           1243 	mov	dptr,#(_modulus + 0x0021)
   0729 74 47              1244 	mov	a,#0x47
   072B F0                 1245 	movx	@dptr,a
   072C 90 42 22           1246 	mov	dptr,#(_modulus + 0x0022)
   072F 74 D7              1247 	mov	a,#0xD7
   0731 F0                 1248 	movx	@dptr,a
   0732 90 42 23           1249 	mov	dptr,#(_modulus + 0x0023)
   0735 74 9F              1250 	mov	a,#0x9F
   0737 F0                 1251 	movx	@dptr,a
   0738 90 42 24           1252 	mov	dptr,#(_modulus + 0x0024)
   073B 74 D4              1253 	mov	a,#0xD4
   073D F0                 1254 	movx	@dptr,a
   073E 90 42 25           1255 	mov	dptr,#(_modulus + 0x0025)
   0741 74 DE              1256 	mov	a,#0xDE
   0743 F0                 1257 	movx	@dptr,a
   0744 90 42 26           1258 	mov	dptr,#(_modulus + 0x0026)
   0747 74 FC              1259 	mov	a,#0xFC
   0749 F0                 1260 	movx	@dptr,a
   074A 90 42 27           1261 	mov	dptr,#(_modulus + 0x0027)
   074D 74 76              1262 	mov	a,#0x76
   074F F0                 1263 	movx	@dptr,a
   0750 90 42 28           1264 	mov	dptr,#(_modulus + 0x0028)
   0753 74 10              1265 	mov	a,#0x10
   0755 F0                 1266 	movx	@dptr,a
   0756 90 42 29           1267 	mov	dptr,#(_modulus + 0x0029)
   0759 74 D3              1268 	mov	a,#0xD3
   075B F0                 1269 	movx	@dptr,a
   075C 90 42 2A           1270 	mov	dptr,#(_modulus + 0x002a)
   075F 74 19              1271 	mov	a,#0x19
   0761 F0                 1272 	movx	@dptr,a
   0762 90 42 2B           1273 	mov	dptr,#(_modulus + 0x002b)
   0765 74 6C              1274 	mov	a,#0x6C
   0767 F0                 1275 	movx	@dptr,a
   0768 90 42 2C           1276 	mov	dptr,#(_modulus + 0x002c)
   076B 74 90              1277 	mov	a,#0x90
   076D F0                 1278 	movx	@dptr,a
   076E 90 42 2D           1279 	mov	dptr,#(_modulus + 0x002d)
   0771 74 44              1280 	mov	a,#0x44
   0773 F0                 1281 	movx	@dptr,a
   0774 90 42 2E           1282 	mov	dptr,#(_modulus + 0x002e)
   0777 74 58              1283 	mov	a,#0x58
   0779 F0                 1284 	movx	@dptr,a
   077A 90 42 2F           1285 	mov	dptr,#(_modulus + 0x002f)
   077D 74 A9              1286 	mov	a,#0xA9
   077F F0                 1287 	movx	@dptr,a
   0780 90 42 30           1288 	mov	dptr,#(_modulus + 0x0030)
   0783 74 D7              1289 	mov	a,#0xD7
   0785 F0                 1290 	movx	@dptr,a
   0786 90 42 31           1291 	mov	dptr,#(_modulus + 0x0031)
   0789 74 4A              1292 	mov	a,#0x4A
   078B F0                 1293 	movx	@dptr,a
   078C 90 42 32           1294 	mov	dptr,#(_modulus + 0x0032)
   078F 74 66              1295 	mov	a,#0x66
   0791 F0                 1296 	movx	@dptr,a
   0792 90 42 33           1297 	mov	dptr,#(_modulus + 0x0033)
   0795 74 28              1298 	mov	a,#0x28
   0797 F0                 1299 	movx	@dptr,a
   0798 90 42 34           1300 	mov	dptr,#(_modulus + 0x0034)
   079B 74 96              1301 	mov	a,#0x96
   079D F0                 1302 	movx	@dptr,a
   079E 90 42 35           1303 	mov	dptr,#(_modulus + 0x0035)
   07A1 74 24              1304 	mov	a,#0x24
   07A3 F0                 1305 	movx	@dptr,a
   07A4 90 42 36           1306 	mov	dptr,#(_modulus + 0x0036)
   07A7 74 94              1307 	mov	a,#0x94
   07A9 F0                 1308 	movx	@dptr,a
   07AA 90 42 37           1309 	mov	dptr,#(_modulus + 0x0037)
   07AD 74 F6              1310 	mov	a,#0xF6
   07AF F0                 1311 	movx	@dptr,a
   07B0 90 42 38           1312 	mov	dptr,#(_modulus + 0x0038)
   07B3 74 08              1313 	mov	a,#0x08
   07B5 F0                 1314 	movx	@dptr,a
   07B6 90 42 39           1315 	mov	dptr,#(_modulus + 0x0039)
   07B9 74 F4              1316 	mov	a,#0xF4
   07BB F0                 1317 	movx	@dptr,a
   07BC 90 42 3A           1318 	mov	dptr,#(_modulus + 0x003a)
   07BF 74 7B              1319 	mov	a,#0x7B
   07C1 F0                 1320 	movx	@dptr,a
   07C2 90 42 3B           1321 	mov	dptr,#(_modulus + 0x003b)
   07C5 74 1A              1322 	mov	a,#0x1A
   07C7 F0                 1323 	movx	@dptr,a
   07C8 90 42 3C           1324 	mov	dptr,#(_modulus + 0x003c)
   07CB 74 4D              1325 	mov	a,#0x4D
   07CD F0                 1326 	movx	@dptr,a
   07CE 90 42 3D           1327 	mov	dptr,#(_modulus + 0x003d)
   07D1 74 07              1328 	mov	a,#0x07
   07D3 F0                 1329 	movx	@dptr,a
   07D4 90 42 3E           1330 	mov	dptr,#(_modulus + 0x003e)
   07D7 74 86              1331 	mov	a,#0x86
   07D9 F0                 1332 	movx	@dptr,a
   07DA 90 42 3F           1333 	mov	dptr,#(_modulus + 0x003f)
   07DD 74 3B              1334 	mov	a,#0x3B
   07DF F0                 1335 	movx	@dptr,a
   07E0 90 42 40           1336 	mov	dptr,#(_modulus + 0x0040)
   07E3 74 2A              1337 	mov	a,#0x2A
   07E5 F0                 1338 	movx	@dptr,a
   07E6 90 42 41           1339 	mov	dptr,#(_modulus + 0x0041)
   07E9 74 84              1340 	mov	a,#0x84
   07EB F0                 1341 	movx	@dptr,a
   07EC 90 42 42           1342 	mov	dptr,#(_modulus + 0x0042)
   07EF 74 F9              1343 	mov	a,#0xF9
   07F1 F0                 1344 	movx	@dptr,a
   07F2 90 42 43           1345 	mov	dptr,#(_modulus + 0x0043)
   07F5 74 BA              1346 	mov	a,#0xBA
   07F7 F0                 1347 	movx	@dptr,a
   07F8 90 42 44           1348 	mov	dptr,#(_modulus + 0x0044)
   07FB 74 4A              1349 	mov	a,#0x4A
   07FD F0                 1350 	movx	@dptr,a
   07FE 90 42 45           1351 	mov	dptr,#(_modulus + 0x0045)
   0801 74 DD              1352 	mov	a,#0xDD
   0803 F0                 1353 	movx	@dptr,a
   0804 90 42 46           1354 	mov	dptr,#(_modulus + 0x0046)
   0807 74 3D              1355 	mov	a,#0x3D
   0809 F0                 1356 	movx	@dptr,a
   080A 90 42 47           1357 	mov	dptr,#(_modulus + 0x0047)
   080D 74 D7              1358 	mov	a,#0xD7
   080F F0                 1359 	movx	@dptr,a
   0810 90 42 48           1360 	mov	dptr,#(_modulus + 0x0048)
   0813 74 07              1361 	mov	a,#0x07
   0815 F0                 1362 	movx	@dptr,a
   0816 90 42 49           1363 	mov	dptr,#(_modulus + 0x0049)
   0819 74 85              1364 	mov	a,#0x85
   081B F0                 1365 	movx	@dptr,a
   081C 90 42 4A           1366 	mov	dptr,#(_modulus + 0x004a)
   081F 74 C6              1367 	mov	a,#0xC6
   0821 F0                 1368 	movx	@dptr,a
   0822 90 42 4B           1369 	mov	dptr,#(_modulus + 0x004b)
   0825 74 67              1370 	mov	a,#0x67
   0827 F0                 1371 	movx	@dptr,a
   0828 90 42 4C           1372 	mov	dptr,#(_modulus + 0x004c)
   082B 74 18              1373 	mov	a,#0x18
   082D F0                 1374 	movx	@dptr,a
   082E 90 42 4D           1375 	mov	dptr,#(_modulus + 0x004d)
   0831 74 5B              1376 	mov	a,#0x5B
   0833 F0                 1377 	movx	@dptr,a
   0834 90 42 4E           1378 	mov	dptr,#(_modulus + 0x004e)
   0837 74 AB              1379 	mov	a,#0xAB
   0839 F0                 1380 	movx	@dptr,a
   083A 90 42 4F           1381 	mov	dptr,#(_modulus + 0x004f)
   083D 74 BA              1382 	mov	a,#0xBA
   083F F0                 1383 	movx	@dptr,a
   0840 90 42 50           1384 	mov	dptr,#(_modulus + 0x0050)
   0843 74 5D              1385 	mov	a,#0x5D
   0845 F0                 1386 	movx	@dptr,a
   0846 90 42 51           1387 	mov	dptr,#(_modulus + 0x0051)
   0849 74 F2              1388 	mov	a,#0xF2
   084B F0                 1389 	movx	@dptr,a
   084C 90 42 52           1390 	mov	dptr,#(_modulus + 0x0052)
   084F 74 35              1391 	mov	a,#0x35
   0851 F0                 1392 	movx	@dptr,a
   0852 90 42 53           1393 	mov	dptr,#(_modulus + 0x0053)
   0855 74 4E              1394 	mov	a,#0x4E
   0857 F0                 1395 	movx	@dptr,a
   0858 90 42 54           1396 	mov	dptr,#(_modulus + 0x0054)
   085B 74 C4              1397 	mov	a,#0xC4
   085D F0                 1398 	movx	@dptr,a
   085E 90 42 55           1399 	mov	dptr,#(_modulus + 0x0055)
   0861 74 61              1400 	mov	a,#0x61
   0863 F0                 1401 	movx	@dptr,a
   0864 90 42 56           1402 	mov	dptr,#(_modulus + 0x0056)
   0867 74 A6              1403 	mov	a,#0xA6
   0869 F0                 1404 	movx	@dptr,a
   086A 90 42 57           1405 	mov	dptr,#(_modulus + 0x0057)
   086D 74 06              1406 	mov	a,#0x06
   086F F0                 1407 	movx	@dptr,a
   0870 90 42 58           1408 	mov	dptr,#(_modulus + 0x0058)
   0873 74 04              1409 	mov	a,#0x04
   0875 F0                 1410 	movx	@dptr,a
   0876 90 42 59           1411 	mov	dptr,#(_modulus + 0x0059)
   0879 74 55              1412 	mov	a,#0x55
   087B F0                 1413 	movx	@dptr,a
   087C 90 42 5A           1414 	mov	dptr,#(_modulus + 0x005a)
   087F 74 CF              1415 	mov	a,#0xCF
   0881 F0                 1416 	movx	@dptr,a
   0882 90 42 5B           1417 	mov	dptr,#(_modulus + 0x005b)
   0885 74 68              1418 	mov	a,#0x68
   0887 F0                 1419 	movx	@dptr,a
   0888 90 42 5C           1420 	mov	dptr,#(_modulus + 0x005c)
   088B 74 92              1421 	mov	a,#0x92
   088D F0                 1422 	movx	@dptr,a
   088E 90 42 5D           1423 	mov	dptr,#(_modulus + 0x005d)
   0891 74 64              1424 	mov	a,#0x64
   0893 F0                 1425 	movx	@dptr,a
   0894 90 42 5E           1426 	mov	dptr,#(_modulus + 0x005e)
   0897 74 DB              1427 	mov	a,#0xDB
   0899 F0                 1428 	movx	@dptr,a
   089A 90 42 5F           1429 	mov	dptr,#(_modulus + 0x005f)
   089D 74 90              1430 	mov	a,#0x90
   089F F0                 1431 	movx	@dptr,a
   08A0 90 42 60           1432 	mov	dptr,#(_modulus + 0x0060)
   08A3 74 8B              1433 	mov	a,#0x8B
   08A5 F0                 1434 	movx	@dptr,a
   08A6 90 42 61           1435 	mov	dptr,#(_modulus + 0x0061)
   08A9 74 CF              1436 	mov	a,#0xCF
   08AB F0                 1437 	movx	@dptr,a
   08AC 90 42 62           1438 	mov	dptr,#(_modulus + 0x0062)
   08AF 74 58              1439 	mov	a,#0x58
   08B1 F0                 1440 	movx	@dptr,a
   08B2 90 42 63           1441 	mov	dptr,#(_modulus + 0x0063)
   08B5 74 50              1442 	mov	a,#0x50
   08B7 F0                 1443 	movx	@dptr,a
   08B8 90 42 64           1444 	mov	dptr,#(_modulus + 0x0064)
   08BB E4                 1445 	clr	a
   08BC F0                 1446 	movx	@dptr,a
   08BD 90 42 65           1447 	mov	dptr,#(_modulus + 0x0065)
   08C0 74 7B              1448 	mov	a,#0x7B
   08C2 F0                 1449 	movx	@dptr,a
   08C3 90 42 66           1450 	mov	dptr,#(_modulus + 0x0066)
   08C6 74 D3              1451 	mov	a,#0xD3
   08C8 F0                 1452 	movx	@dptr,a
   08C9 90 42 67           1453 	mov	dptr,#(_modulus + 0x0067)
   08CC 74 B6              1454 	mov	a,#0xB6
   08CE F0                 1455 	movx	@dptr,a
   08CF 90 42 68           1456 	mov	dptr,#(_modulus + 0x0068)
   08D2 74 E4              1457 	mov	a,#0xE4
   08D4 F0                 1458 	movx	@dptr,a
   08D5 90 42 69           1459 	mov	dptr,#(_modulus + 0x0069)
   08D8 74 CF              1460 	mov	a,#0xCF
   08DA F0                 1461 	movx	@dptr,a
   08DB 90 42 6A           1462 	mov	dptr,#(_modulus + 0x006a)
   08DE 74 60              1463 	mov	a,#0x60
   08E0 F0                 1464 	movx	@dptr,a
   08E1 90 42 6B           1465 	mov	dptr,#(_modulus + 0x006b)
   08E4 74 4A              1466 	mov	a,#0x4A
   08E6 F0                 1467 	movx	@dptr,a
   08E7 90 42 6C           1468 	mov	dptr,#(_modulus + 0x006c)
   08EA 74 69              1469 	mov	a,#0x69
   08EC F0                 1470 	movx	@dptr,a
   08ED 90 42 6D           1471 	mov	dptr,#(_modulus + 0x006d)
   08F0 74 C2              1472 	mov	a,#0xC2
   08F2 F0                 1473 	movx	@dptr,a
   08F3 90 42 6E           1474 	mov	dptr,#(_modulus + 0x006e)
   08F6 74 70              1475 	mov	a,#0x70
   08F8 F0                 1476 	movx	@dptr,a
   08F9 90 42 6F           1477 	mov	dptr,#(_modulus + 0x006f)
   08FC 74 3D              1478 	mov	a,#0x3D
   08FE F0                 1479 	movx	@dptr,a
   08FF 90 42 70           1480 	mov	dptr,#(_modulus + 0x0070)
   0902 74 0F              1481 	mov	a,#0x0F
   0904 F0                 1482 	movx	@dptr,a
   0905 90 42 71           1483 	mov	dptr,#(_modulus + 0x0071)
   0908 74 C4              1484 	mov	a,#0xC4
   090A F0                 1485 	movx	@dptr,a
   090B 90 42 72           1486 	mov	dptr,#(_modulus + 0x0072)
   090E 74 03              1487 	mov	a,#0x03
   0910 F0                 1488 	movx	@dptr,a
   0911 90 42 73           1489 	mov	dptr,#(_modulus + 0x0073)
   0914 74 2B              1490 	mov	a,#0x2B
   0916 F0                 1491 	movx	@dptr,a
   0917 90 42 74           1492 	mov	dptr,#(_modulus + 0x0074)
   091A 74 4D              1493 	mov	a,#0x4D
   091C F0                 1494 	movx	@dptr,a
   091D 90 42 75           1495 	mov	dptr,#(_modulus + 0x0075)
   0920 74 87              1496 	mov	a,#0x87
   0922 F0                 1497 	movx	@dptr,a
   0923 90 42 76           1498 	mov	dptr,#(_modulus + 0x0076)
   0926 74 FA              1499 	mov	a,#0xFA
   0928 F0                 1500 	movx	@dptr,a
   0929 90 42 77           1501 	mov	dptr,#(_modulus + 0x0077)
   092C 74 2C              1502 	mov	a,#0x2C
   092E F0                 1503 	movx	@dptr,a
   092F 90 42 78           1504 	mov	dptr,#(_modulus + 0x0078)
   0932 74 34              1505 	mov	a,#0x34
   0934 F0                 1506 	movx	@dptr,a
   0935 90 42 79           1507 	mov	dptr,#(_modulus + 0x0079)
   0938 74 7F              1508 	mov	a,#0x7F
   093A F0                 1509 	movx	@dptr,a
   093B 90 42 7A           1510 	mov	dptr,#(_modulus + 0x007a)
   093E 74 77              1511 	mov	a,#0x77
   0940 F0                 1512 	movx	@dptr,a
   0941 90 42 7B           1513 	mov	dptr,#(_modulus + 0x007b)
   0944 74 7A              1514 	mov	a,#0x7A
   0946 F0                 1515 	movx	@dptr,a
   0947 90 42 7C           1516 	mov	dptr,#(_modulus + 0x007c)
   094A 74 6A              1517 	mov	a,#0x6A
   094C F0                 1518 	movx	@dptr,a
   094D 90 42 7D           1519 	mov	dptr,#(_modulus + 0x007d)
   0950 74 85              1520 	mov	a,#0x85
   0952 F0                 1521 	movx	@dptr,a
   0953 90 42 7E           1522 	mov	dptr,#(_modulus + 0x007e)
   0956 74 48              1523 	mov	a,#0x48
   0958 F0                 1524 	movx	@dptr,a
   0959 90 42 7F           1525 	mov	dptr,#(_modulus + 0x007f)
   095C 74 9B              1526 	mov	a,#0x9B
   095E F0                 1527 	movx	@dptr,a
                           1528 ;	main.c:38: volatile __xdata __at (0x4300) unsigned char message[SIZE] = {0xE0, 0xFA, 0x7D, 0xF4, 0x9E, 0xFF, 0x31, 0x8A, 0x4A, 0x17, 0x7A, 0xE9, 0x37, 0x86, 0x15, 0x27, 0x2B, 0x29, 0x06, 0x53, 0xE1, 0x08, 0xD2, 0x11, 0xC6, 0xEF, 0x43, 0xB6, 0xC8, 0x93, 0x4F, 0x27, 0xD1, 0x62, 0xCF, 0x12, 0xC3, 0xE6, 0xA4, 0x32, 0x85, 0xA6, 0x4F, 0x26, 0x12, 0x66, 0x87, 0x5A, 0x8F, 0xAE, 0x57, 0xE2, 0x7C, 0x8E, 0xFB, 0xA6, 0xE3, 0x6A, 0x84, 0xF7, 0x92, 0x5D, 0x66, 0x09, 0x17, 0xFC, 0x4A, 0x98, 0x1E, 0xDA, 0xB7, 0xA1, 0x94, 0xE8, 0x59, 0xAE, 0x3A, 0xA3, 0x80, 0x13, 0x13, 0x81, 0x0A, 0x1C, 0x6F, 0x0C, 0x16, 0x67, 0x48, 0x2A, 0x1F, 0x40, 0x8F, 0x97, 0xBB, 0x55, 0x52, 0x35, 0x88, 0x65, 0xD8, 0x01, 0x8F, 0x77, 0x86, 0xA5, 0x55, 0x66, 0x53, 0x02, 0xF3, 0x41, 0xF4, 0x26, 0xCC, 0xD7, 0x0A, 0xEA, 0xE4, 0x3C, 0xA1, 0x65, 0xBA, 0x8D, 0x71, 0x08, 0xEE, 0x98};
   095F 90 43 00           1529 	mov	dptr,#_message
   0962 74 E0              1530 	mov	a,#0xE0
   0964 F0                 1531 	movx	@dptr,a
   0965 90 43 01           1532 	mov	dptr,#(_message + 0x0001)
   0968 74 FA              1533 	mov	a,#0xFA
   096A F0                 1534 	movx	@dptr,a
   096B 90 43 02           1535 	mov	dptr,#(_message + 0x0002)
   096E 74 7D              1536 	mov	a,#0x7D
   0970 F0                 1537 	movx	@dptr,a
   0971 90 43 03           1538 	mov	dptr,#(_message + 0x0003)
   0974 74 F4              1539 	mov	a,#0xF4
   0976 F0                 1540 	movx	@dptr,a
   0977 90 43 04           1541 	mov	dptr,#(_message + 0x0004)
   097A 74 9E              1542 	mov	a,#0x9E
   097C F0                 1543 	movx	@dptr,a
   097D 90 43 05           1544 	mov	dptr,#(_message + 0x0005)
   0980 74 FF              1545 	mov	a,#0xFF
   0982 F0                 1546 	movx	@dptr,a
   0983 90 43 06           1547 	mov	dptr,#(_message + 0x0006)
   0986 74 31              1548 	mov	a,#0x31
   0988 F0                 1549 	movx	@dptr,a
   0989 90 43 07           1550 	mov	dptr,#(_message + 0x0007)
   098C 74 8A              1551 	mov	a,#0x8A
   098E F0                 1552 	movx	@dptr,a
   098F 90 43 08           1553 	mov	dptr,#(_message + 0x0008)
   0992 74 4A              1554 	mov	a,#0x4A
   0994 F0                 1555 	movx	@dptr,a
   0995 90 43 09           1556 	mov	dptr,#(_message + 0x0009)
   0998 74 17              1557 	mov	a,#0x17
   099A F0                 1558 	movx	@dptr,a
   099B 90 43 0A           1559 	mov	dptr,#(_message + 0x000a)
   099E 74 7A              1560 	mov	a,#0x7A
   09A0 F0                 1561 	movx	@dptr,a
   09A1 90 43 0B           1562 	mov	dptr,#(_message + 0x000b)
   09A4 74 E9              1563 	mov	a,#0xE9
   09A6 F0                 1564 	movx	@dptr,a
   09A7 90 43 0C           1565 	mov	dptr,#(_message + 0x000c)
   09AA 74 37              1566 	mov	a,#0x37
   09AC F0                 1567 	movx	@dptr,a
   09AD 90 43 0D           1568 	mov	dptr,#(_message + 0x000d)
   09B0 74 86              1569 	mov	a,#0x86
   09B2 F0                 1570 	movx	@dptr,a
   09B3 90 43 0E           1571 	mov	dptr,#(_message + 0x000e)
   09B6 74 15              1572 	mov	a,#0x15
   09B8 F0                 1573 	movx	@dptr,a
   09B9 90 43 0F           1574 	mov	dptr,#(_message + 0x000f)
   09BC 74 27              1575 	mov	a,#0x27
   09BE F0                 1576 	movx	@dptr,a
   09BF 90 43 10           1577 	mov	dptr,#(_message + 0x0010)
   09C2 74 2B              1578 	mov	a,#0x2B
   09C4 F0                 1579 	movx	@dptr,a
   09C5 90 43 11           1580 	mov	dptr,#(_message + 0x0011)
   09C8 74 29              1581 	mov	a,#0x29
   09CA F0                 1582 	movx	@dptr,a
   09CB 90 43 12           1583 	mov	dptr,#(_message + 0x0012)
   09CE 74 06              1584 	mov	a,#0x06
   09D0 F0                 1585 	movx	@dptr,a
   09D1 90 43 13           1586 	mov	dptr,#(_message + 0x0013)
   09D4 74 53              1587 	mov	a,#0x53
   09D6 F0                 1588 	movx	@dptr,a
   09D7 90 43 14           1589 	mov	dptr,#(_message + 0x0014)
   09DA 74 E1              1590 	mov	a,#0xE1
   09DC F0                 1591 	movx	@dptr,a
   09DD 90 43 15           1592 	mov	dptr,#(_message + 0x0015)
   09E0 74 08              1593 	mov	a,#0x08
   09E2 F0                 1594 	movx	@dptr,a
   09E3 90 43 16           1595 	mov	dptr,#(_message + 0x0016)
   09E6 74 D2              1596 	mov	a,#0xD2
   09E8 F0                 1597 	movx	@dptr,a
   09E9 90 43 17           1598 	mov	dptr,#(_message + 0x0017)
   09EC 74 11              1599 	mov	a,#0x11
   09EE F0                 1600 	movx	@dptr,a
   09EF 90 43 18           1601 	mov	dptr,#(_message + 0x0018)
   09F2 74 C6              1602 	mov	a,#0xC6
   09F4 F0                 1603 	movx	@dptr,a
   09F5 90 43 19           1604 	mov	dptr,#(_message + 0x0019)
   09F8 74 EF              1605 	mov	a,#0xEF
   09FA F0                 1606 	movx	@dptr,a
   09FB 90 43 1A           1607 	mov	dptr,#(_message + 0x001a)
   09FE 74 43              1608 	mov	a,#0x43
   0A00 F0                 1609 	movx	@dptr,a
   0A01 90 43 1B           1610 	mov	dptr,#(_message + 0x001b)
   0A04 74 B6              1611 	mov	a,#0xB6
   0A06 F0                 1612 	movx	@dptr,a
   0A07 90 43 1C           1613 	mov	dptr,#(_message + 0x001c)
   0A0A 74 C8              1614 	mov	a,#0xC8
   0A0C F0                 1615 	movx	@dptr,a
   0A0D 90 43 1D           1616 	mov	dptr,#(_message + 0x001d)
   0A10 74 93              1617 	mov	a,#0x93
   0A12 F0                 1618 	movx	@dptr,a
   0A13 90 43 1E           1619 	mov	dptr,#(_message + 0x001e)
   0A16 74 4F              1620 	mov	a,#0x4F
   0A18 F0                 1621 	movx	@dptr,a
   0A19 90 43 1F           1622 	mov	dptr,#(_message + 0x001f)
   0A1C 74 27              1623 	mov	a,#0x27
   0A1E F0                 1624 	movx	@dptr,a
   0A1F 90 43 20           1625 	mov	dptr,#(_message + 0x0020)
   0A22 74 D1              1626 	mov	a,#0xD1
   0A24 F0                 1627 	movx	@dptr,a
   0A25 90 43 21           1628 	mov	dptr,#(_message + 0x0021)
   0A28 74 62              1629 	mov	a,#0x62
   0A2A F0                 1630 	movx	@dptr,a
   0A2B 90 43 22           1631 	mov	dptr,#(_message + 0x0022)
   0A2E 74 CF              1632 	mov	a,#0xCF
   0A30 F0                 1633 	movx	@dptr,a
   0A31 90 43 23           1634 	mov	dptr,#(_message + 0x0023)
   0A34 74 12              1635 	mov	a,#0x12
   0A36 F0                 1636 	movx	@dptr,a
   0A37 90 43 24           1637 	mov	dptr,#(_message + 0x0024)
   0A3A 74 C3              1638 	mov	a,#0xC3
   0A3C F0                 1639 	movx	@dptr,a
   0A3D 90 43 25           1640 	mov	dptr,#(_message + 0x0025)
   0A40 74 E6              1641 	mov	a,#0xE6
   0A42 F0                 1642 	movx	@dptr,a
   0A43 90 43 26           1643 	mov	dptr,#(_message + 0x0026)
   0A46 74 A4              1644 	mov	a,#0xA4
   0A48 F0                 1645 	movx	@dptr,a
   0A49 90 43 27           1646 	mov	dptr,#(_message + 0x0027)
   0A4C 74 32              1647 	mov	a,#0x32
   0A4E F0                 1648 	movx	@dptr,a
   0A4F 90 43 28           1649 	mov	dptr,#(_message + 0x0028)
   0A52 74 85              1650 	mov	a,#0x85
   0A54 F0                 1651 	movx	@dptr,a
   0A55 90 43 29           1652 	mov	dptr,#(_message + 0x0029)
   0A58 74 A6              1653 	mov	a,#0xA6
   0A5A F0                 1654 	movx	@dptr,a
   0A5B 90 43 2A           1655 	mov	dptr,#(_message + 0x002a)
   0A5E 74 4F              1656 	mov	a,#0x4F
   0A60 F0                 1657 	movx	@dptr,a
   0A61 90 43 2B           1658 	mov	dptr,#(_message + 0x002b)
   0A64 74 26              1659 	mov	a,#0x26
   0A66 F0                 1660 	movx	@dptr,a
   0A67 90 43 2C           1661 	mov	dptr,#(_message + 0x002c)
   0A6A 74 12              1662 	mov	a,#0x12
   0A6C F0                 1663 	movx	@dptr,a
   0A6D 90 43 2D           1664 	mov	dptr,#(_message + 0x002d)
   0A70 74 66              1665 	mov	a,#0x66
   0A72 F0                 1666 	movx	@dptr,a
   0A73 90 43 2E           1667 	mov	dptr,#(_message + 0x002e)
   0A76 74 87              1668 	mov	a,#0x87
   0A78 F0                 1669 	movx	@dptr,a
   0A79 90 43 2F           1670 	mov	dptr,#(_message + 0x002f)
   0A7C 74 5A              1671 	mov	a,#0x5A
   0A7E F0                 1672 	movx	@dptr,a
   0A7F 90 43 30           1673 	mov	dptr,#(_message + 0x0030)
   0A82 74 8F              1674 	mov	a,#0x8F
   0A84 F0                 1675 	movx	@dptr,a
   0A85 90 43 31           1676 	mov	dptr,#(_message + 0x0031)
   0A88 74 AE              1677 	mov	a,#0xAE
   0A8A F0                 1678 	movx	@dptr,a
   0A8B 90 43 32           1679 	mov	dptr,#(_message + 0x0032)
   0A8E 74 57              1680 	mov	a,#0x57
   0A90 F0                 1681 	movx	@dptr,a
   0A91 90 43 33           1682 	mov	dptr,#(_message + 0x0033)
   0A94 74 E2              1683 	mov	a,#0xE2
   0A96 F0                 1684 	movx	@dptr,a
   0A97 90 43 34           1685 	mov	dptr,#(_message + 0x0034)
   0A9A 74 7C              1686 	mov	a,#0x7C
   0A9C F0                 1687 	movx	@dptr,a
   0A9D 90 43 35           1688 	mov	dptr,#(_message + 0x0035)
   0AA0 74 8E              1689 	mov	a,#0x8E
   0AA2 F0                 1690 	movx	@dptr,a
   0AA3 90 43 36           1691 	mov	dptr,#(_message + 0x0036)
   0AA6 74 FB              1692 	mov	a,#0xFB
   0AA8 F0                 1693 	movx	@dptr,a
   0AA9 90 43 37           1694 	mov	dptr,#(_message + 0x0037)
   0AAC 74 A6              1695 	mov	a,#0xA6
   0AAE F0                 1696 	movx	@dptr,a
   0AAF 90 43 38           1697 	mov	dptr,#(_message + 0x0038)
   0AB2 74 E3              1698 	mov	a,#0xE3
   0AB4 F0                 1699 	movx	@dptr,a
   0AB5 90 43 39           1700 	mov	dptr,#(_message + 0x0039)
   0AB8 74 6A              1701 	mov	a,#0x6A
   0ABA F0                 1702 	movx	@dptr,a
   0ABB 90 43 3A           1703 	mov	dptr,#(_message + 0x003a)
   0ABE 74 84              1704 	mov	a,#0x84
   0AC0 F0                 1705 	movx	@dptr,a
   0AC1 90 43 3B           1706 	mov	dptr,#(_message + 0x003b)
   0AC4 74 F7              1707 	mov	a,#0xF7
   0AC6 F0                 1708 	movx	@dptr,a
   0AC7 90 43 3C           1709 	mov	dptr,#(_message + 0x003c)
   0ACA 74 92              1710 	mov	a,#0x92
   0ACC F0                 1711 	movx	@dptr,a
   0ACD 90 43 3D           1712 	mov	dptr,#(_message + 0x003d)
   0AD0 74 5D              1713 	mov	a,#0x5D
   0AD2 F0                 1714 	movx	@dptr,a
   0AD3 90 43 3E           1715 	mov	dptr,#(_message + 0x003e)
   0AD6 74 66              1716 	mov	a,#0x66
   0AD8 F0                 1717 	movx	@dptr,a
   0AD9 90 43 3F           1718 	mov	dptr,#(_message + 0x003f)
   0ADC 74 09              1719 	mov	a,#0x09
   0ADE F0                 1720 	movx	@dptr,a
   0ADF 90 43 40           1721 	mov	dptr,#(_message + 0x0040)
   0AE2 74 17              1722 	mov	a,#0x17
   0AE4 F0                 1723 	movx	@dptr,a
   0AE5 90 43 41           1724 	mov	dptr,#(_message + 0x0041)
   0AE8 74 FC              1725 	mov	a,#0xFC
   0AEA F0                 1726 	movx	@dptr,a
   0AEB 90 43 42           1727 	mov	dptr,#(_message + 0x0042)
   0AEE 74 4A              1728 	mov	a,#0x4A
   0AF0 F0                 1729 	movx	@dptr,a
   0AF1 90 43 43           1730 	mov	dptr,#(_message + 0x0043)
   0AF4 74 98              1731 	mov	a,#0x98
   0AF6 F0                 1732 	movx	@dptr,a
   0AF7 90 43 44           1733 	mov	dptr,#(_message + 0x0044)
   0AFA 74 1E              1734 	mov	a,#0x1E
   0AFC F0                 1735 	movx	@dptr,a
   0AFD 90 43 45           1736 	mov	dptr,#(_message + 0x0045)
   0B00 74 DA              1737 	mov	a,#0xDA
   0B02 F0                 1738 	movx	@dptr,a
   0B03 90 43 46           1739 	mov	dptr,#(_message + 0x0046)
   0B06 74 B7              1740 	mov	a,#0xB7
   0B08 F0                 1741 	movx	@dptr,a
   0B09 90 43 47           1742 	mov	dptr,#(_message + 0x0047)
   0B0C 74 A1              1743 	mov	a,#0xA1
   0B0E F0                 1744 	movx	@dptr,a
   0B0F 90 43 48           1745 	mov	dptr,#(_message + 0x0048)
   0B12 74 94              1746 	mov	a,#0x94
   0B14 F0                 1747 	movx	@dptr,a
   0B15 90 43 49           1748 	mov	dptr,#(_message + 0x0049)
   0B18 74 E8              1749 	mov	a,#0xE8
   0B1A F0                 1750 	movx	@dptr,a
   0B1B 90 43 4A           1751 	mov	dptr,#(_message + 0x004a)
   0B1E 74 59              1752 	mov	a,#0x59
   0B20 F0                 1753 	movx	@dptr,a
   0B21 90 43 4B           1754 	mov	dptr,#(_message + 0x004b)
   0B24 74 AE              1755 	mov	a,#0xAE
   0B26 F0                 1756 	movx	@dptr,a
   0B27 90 43 4C           1757 	mov	dptr,#(_message + 0x004c)
   0B2A 74 3A              1758 	mov	a,#0x3A
   0B2C F0                 1759 	movx	@dptr,a
   0B2D 90 43 4D           1760 	mov	dptr,#(_message + 0x004d)
   0B30 74 A3              1761 	mov	a,#0xA3
   0B32 F0                 1762 	movx	@dptr,a
   0B33 90 43 4E           1763 	mov	dptr,#(_message + 0x004e)
   0B36 74 80              1764 	mov	a,#0x80
   0B38 F0                 1765 	movx	@dptr,a
   0B39 90 43 4F           1766 	mov	dptr,#(_message + 0x004f)
   0B3C 74 13              1767 	mov	a,#0x13
   0B3E F0                 1768 	movx	@dptr,a
   0B3F 90 43 50           1769 	mov	dptr,#(_message + 0x0050)
   0B42 74 13              1770 	mov	a,#0x13
   0B44 F0                 1771 	movx	@dptr,a
   0B45 90 43 51           1772 	mov	dptr,#(_message + 0x0051)
   0B48 74 81              1773 	mov	a,#0x81
   0B4A F0                 1774 	movx	@dptr,a
   0B4B 90 43 52           1775 	mov	dptr,#(_message + 0x0052)
   0B4E 74 0A              1776 	mov	a,#0x0A
   0B50 F0                 1777 	movx	@dptr,a
   0B51 90 43 53           1778 	mov	dptr,#(_message + 0x0053)
   0B54 74 1C              1779 	mov	a,#0x1C
   0B56 F0                 1780 	movx	@dptr,a
   0B57 90 43 54           1781 	mov	dptr,#(_message + 0x0054)
   0B5A 74 6F              1782 	mov	a,#0x6F
   0B5C F0                 1783 	movx	@dptr,a
   0B5D 90 43 55           1784 	mov	dptr,#(_message + 0x0055)
   0B60 74 0C              1785 	mov	a,#0x0C
   0B62 F0                 1786 	movx	@dptr,a
   0B63 90 43 56           1787 	mov	dptr,#(_message + 0x0056)
   0B66 74 16              1788 	mov	a,#0x16
   0B68 F0                 1789 	movx	@dptr,a
   0B69 90 43 57           1790 	mov	dptr,#(_message + 0x0057)
   0B6C 74 67              1791 	mov	a,#0x67
   0B6E F0                 1792 	movx	@dptr,a
   0B6F 90 43 58           1793 	mov	dptr,#(_message + 0x0058)
   0B72 74 48              1794 	mov	a,#0x48
   0B74 F0                 1795 	movx	@dptr,a
   0B75 90 43 59           1796 	mov	dptr,#(_message + 0x0059)
   0B78 74 2A              1797 	mov	a,#0x2A
   0B7A F0                 1798 	movx	@dptr,a
   0B7B 90 43 5A           1799 	mov	dptr,#(_message + 0x005a)
   0B7E 74 1F              1800 	mov	a,#0x1F
   0B80 F0                 1801 	movx	@dptr,a
   0B81 90 43 5B           1802 	mov	dptr,#(_message + 0x005b)
   0B84 74 40              1803 	mov	a,#0x40
   0B86 F0                 1804 	movx	@dptr,a
   0B87 90 43 5C           1805 	mov	dptr,#(_message + 0x005c)
   0B8A 74 8F              1806 	mov	a,#0x8F
   0B8C F0                 1807 	movx	@dptr,a
   0B8D 90 43 5D           1808 	mov	dptr,#(_message + 0x005d)
   0B90 74 97              1809 	mov	a,#0x97
   0B92 F0                 1810 	movx	@dptr,a
   0B93 90 43 5E           1811 	mov	dptr,#(_message + 0x005e)
   0B96 74 BB              1812 	mov	a,#0xBB
   0B98 F0                 1813 	movx	@dptr,a
   0B99 90 43 5F           1814 	mov	dptr,#(_message + 0x005f)
   0B9C 74 55              1815 	mov	a,#0x55
   0B9E F0                 1816 	movx	@dptr,a
   0B9F 90 43 60           1817 	mov	dptr,#(_message + 0x0060)
   0BA2 74 52              1818 	mov	a,#0x52
   0BA4 F0                 1819 	movx	@dptr,a
   0BA5 90 43 61           1820 	mov	dptr,#(_message + 0x0061)
   0BA8 74 35              1821 	mov	a,#0x35
   0BAA F0                 1822 	movx	@dptr,a
   0BAB 90 43 62           1823 	mov	dptr,#(_message + 0x0062)
   0BAE 74 88              1824 	mov	a,#0x88
   0BB0 F0                 1825 	movx	@dptr,a
   0BB1 90 43 63           1826 	mov	dptr,#(_message + 0x0063)
   0BB4 74 65              1827 	mov	a,#0x65
   0BB6 F0                 1828 	movx	@dptr,a
   0BB7 90 43 64           1829 	mov	dptr,#(_message + 0x0064)
   0BBA 74 D8              1830 	mov	a,#0xD8
   0BBC F0                 1831 	movx	@dptr,a
   0BBD 90 43 65           1832 	mov	dptr,#(_message + 0x0065)
   0BC0 74 01              1833 	mov	a,#0x01
   0BC2 F0                 1834 	movx	@dptr,a
   0BC3 90 43 66           1835 	mov	dptr,#(_message + 0x0066)
   0BC6 74 8F              1836 	mov	a,#0x8F
   0BC8 F0                 1837 	movx	@dptr,a
   0BC9 90 43 67           1838 	mov	dptr,#(_message + 0x0067)
   0BCC 74 77              1839 	mov	a,#0x77
   0BCE F0                 1840 	movx	@dptr,a
   0BCF 90 43 68           1841 	mov	dptr,#(_message + 0x0068)
   0BD2 74 86              1842 	mov	a,#0x86
   0BD4 F0                 1843 	movx	@dptr,a
   0BD5 90 43 69           1844 	mov	dptr,#(_message + 0x0069)
   0BD8 74 A5              1845 	mov	a,#0xA5
   0BDA F0                 1846 	movx	@dptr,a
   0BDB 90 43 6A           1847 	mov	dptr,#(_message + 0x006a)
   0BDE 74 55              1848 	mov	a,#0x55
   0BE0 F0                 1849 	movx	@dptr,a
   0BE1 90 43 6B           1850 	mov	dptr,#(_message + 0x006b)
   0BE4 74 66              1851 	mov	a,#0x66
   0BE6 F0                 1852 	movx	@dptr,a
   0BE7 90 43 6C           1853 	mov	dptr,#(_message + 0x006c)
   0BEA 74 53              1854 	mov	a,#0x53
   0BEC F0                 1855 	movx	@dptr,a
   0BED 90 43 6D           1856 	mov	dptr,#(_message + 0x006d)
   0BF0 74 02              1857 	mov	a,#0x02
   0BF2 F0                 1858 	movx	@dptr,a
   0BF3 90 43 6E           1859 	mov	dptr,#(_message + 0x006e)
   0BF6 74 F3              1860 	mov	a,#0xF3
   0BF8 F0                 1861 	movx	@dptr,a
   0BF9 90 43 6F           1862 	mov	dptr,#(_message + 0x006f)
   0BFC 74 41              1863 	mov	a,#0x41
   0BFE F0                 1864 	movx	@dptr,a
   0BFF 90 43 70           1865 	mov	dptr,#(_message + 0x0070)
   0C02 74 F4              1866 	mov	a,#0xF4
   0C04 F0                 1867 	movx	@dptr,a
   0C05 90 43 71           1868 	mov	dptr,#(_message + 0x0071)
   0C08 74 26              1869 	mov	a,#0x26
   0C0A F0                 1870 	movx	@dptr,a
   0C0B 90 43 72           1871 	mov	dptr,#(_message + 0x0072)
   0C0E 74 CC              1872 	mov	a,#0xCC
   0C10 F0                 1873 	movx	@dptr,a
   0C11 90 43 73           1874 	mov	dptr,#(_message + 0x0073)
   0C14 74 D7              1875 	mov	a,#0xD7
   0C16 F0                 1876 	movx	@dptr,a
   0C17 90 43 74           1877 	mov	dptr,#(_message + 0x0074)
   0C1A 74 0A              1878 	mov	a,#0x0A
   0C1C F0                 1879 	movx	@dptr,a
   0C1D 90 43 75           1880 	mov	dptr,#(_message + 0x0075)
   0C20 74 EA              1881 	mov	a,#0xEA
   0C22 F0                 1882 	movx	@dptr,a
   0C23 90 43 76           1883 	mov	dptr,#(_message + 0x0076)
   0C26 74 E4              1884 	mov	a,#0xE4
   0C28 F0                 1885 	movx	@dptr,a
   0C29 90 43 77           1886 	mov	dptr,#(_message + 0x0077)
   0C2C 74 3C              1887 	mov	a,#0x3C
   0C2E F0                 1888 	movx	@dptr,a
   0C2F 90 43 78           1889 	mov	dptr,#(_message + 0x0078)
   0C32 74 A1              1890 	mov	a,#0xA1
   0C34 F0                 1891 	movx	@dptr,a
   0C35 90 43 79           1892 	mov	dptr,#(_message + 0x0079)
   0C38 74 65              1893 	mov	a,#0x65
   0C3A F0                 1894 	movx	@dptr,a
   0C3B 90 43 7A           1895 	mov	dptr,#(_message + 0x007a)
   0C3E 74 BA              1896 	mov	a,#0xBA
   0C40 F0                 1897 	movx	@dptr,a
   0C41 90 43 7B           1898 	mov	dptr,#(_message + 0x007b)
   0C44 74 8D              1899 	mov	a,#0x8D
   0C46 F0                 1900 	movx	@dptr,a
   0C47 90 43 7C           1901 	mov	dptr,#(_message + 0x007c)
   0C4A 74 71              1902 	mov	a,#0x71
   0C4C F0                 1903 	movx	@dptr,a
   0C4D 90 43 7D           1904 	mov	dptr,#(_message + 0x007d)
   0C50 74 08              1905 	mov	a,#0x08
   0C52 F0                 1906 	movx	@dptr,a
   0C53 90 43 7E           1907 	mov	dptr,#(_message + 0x007e)
   0C56 74 EE              1908 	mov	a,#0xEE
   0C58 F0                 1909 	movx	@dptr,a
   0C59 90 43 7F           1910 	mov	dptr,#(_message + 0x007f)
   0C5C 74 98              1911 	mov	a,#0x98
   0C5E F0                 1912 	movx	@dptr,a
                           1913 ;	main.c:39: volatile __xdata __at (0x4400) unsigned char publicKey[SIZE] = {0x01, 0x01};
   0C5F 90 44 00           1914 	mov	dptr,#_publicKey
   0C62 74 01              1915 	mov	a,#0x01
   0C64 F0                 1916 	movx	@dptr,a
   0C65 90 44 01           1917 	mov	dptr,#(_publicKey + 0x0001)
   0C68 74 01              1918 	mov	a,#0x01
   0C6A F0                 1919 	movx	@dptr,a
                           1920 ;	main.c:40: volatile __xdata __at (0x4500) unsigned char privateKey[SIZE] = {0x01, 0x23, 0xC5, 0xD2, 0x6A, 0xE6, 0x8B, 0x2B, 0xE7, 0x41, 0x5A, 0x8E, 0xBA, 0x08, 0x1A, 0x66, 0x97, 0xC4, 0xB7, 0x6E, 0x54, 0x5D, 0xC4, 0x99, 0x40, 0x63, 0x65, 0xED, 0x77, 0xCA, 0xCF, 0xEB, 0x75, 0xCF, 0x29, 0x3C, 0xE5, 0x27, 0x0B, 0x54, 0xD0, 0x11, 0x7E, 0xB2, 0x0B, 0x12, 0x9F, 0xBD, 0xBF, 0x2F, 0x51, 0x4C, 0x51, 0x6D, 0x2F, 0xF8, 0x2D, 0x62, 0xB4, 0x1E, 0xA5, 0xEC, 0xE9, 0xDE, 0x0B, 0xE9, 0x7A, 0x72, 0xAE, 0xA4, 0x56, 0xAF, 0xE3, 0xAF, 0x72, 0x54, 0x05, 0xBE, 0x14, 0xA1, 0x01, 0x4D, 0x0D, 0x8D, 0x02, 0x7F, 0xCA, 0xEF, 0xEC, 0x83, 0xE2, 0xA0, 0x75, 0x0A, 0xEF, 0x0C, 0x2C, 0x61, 0xC2, 0x5C, 0xDC, 0x95, 0xC3, 0x36, 0x63, 0x69, 0x6A, 0x76, 0x64, 0xD2, 0x57, 0x56, 0x7F, 0xE3, 0xC9, 0xCA, 0x11, 0x1F, 0xFD, 0xFC, 0x1A, 0x54, 0xA0, 0x70, 0x42, 0x97, 0xF7, 0x6D};
   0C6B 90 45 00           1921 	mov	dptr,#_privateKey
   0C6E 74 01              1922 	mov	a,#0x01
   0C70 F0                 1923 	movx	@dptr,a
   0C71 90 45 01           1924 	mov	dptr,#(_privateKey + 0x0001)
   0C74 74 23              1925 	mov	a,#0x23
   0C76 F0                 1926 	movx	@dptr,a
   0C77 90 45 02           1927 	mov	dptr,#(_privateKey + 0x0002)
   0C7A 74 C5              1928 	mov	a,#0xC5
   0C7C F0                 1929 	movx	@dptr,a
   0C7D 90 45 03           1930 	mov	dptr,#(_privateKey + 0x0003)
   0C80 74 D2              1931 	mov	a,#0xD2
   0C82 F0                 1932 	movx	@dptr,a
   0C83 90 45 04           1933 	mov	dptr,#(_privateKey + 0x0004)
   0C86 74 6A              1934 	mov	a,#0x6A
   0C88 F0                 1935 	movx	@dptr,a
   0C89 90 45 05           1936 	mov	dptr,#(_privateKey + 0x0005)
   0C8C 74 E6              1937 	mov	a,#0xE6
   0C8E F0                 1938 	movx	@dptr,a
   0C8F 90 45 06           1939 	mov	dptr,#(_privateKey + 0x0006)
   0C92 74 8B              1940 	mov	a,#0x8B
   0C94 F0                 1941 	movx	@dptr,a
   0C95 90 45 07           1942 	mov	dptr,#(_privateKey + 0x0007)
   0C98 74 2B              1943 	mov	a,#0x2B
   0C9A F0                 1944 	movx	@dptr,a
   0C9B 90 45 08           1945 	mov	dptr,#(_privateKey + 0x0008)
   0C9E 74 E7              1946 	mov	a,#0xE7
   0CA0 F0                 1947 	movx	@dptr,a
   0CA1 90 45 09           1948 	mov	dptr,#(_privateKey + 0x0009)
   0CA4 74 41              1949 	mov	a,#0x41
   0CA6 F0                 1950 	movx	@dptr,a
   0CA7 90 45 0A           1951 	mov	dptr,#(_privateKey + 0x000a)
   0CAA 74 5A              1952 	mov	a,#0x5A
   0CAC F0                 1953 	movx	@dptr,a
   0CAD 90 45 0B           1954 	mov	dptr,#(_privateKey + 0x000b)
   0CB0 74 8E              1955 	mov	a,#0x8E
   0CB2 F0                 1956 	movx	@dptr,a
   0CB3 90 45 0C           1957 	mov	dptr,#(_privateKey + 0x000c)
   0CB6 74 BA              1958 	mov	a,#0xBA
   0CB8 F0                 1959 	movx	@dptr,a
   0CB9 90 45 0D           1960 	mov	dptr,#(_privateKey + 0x000d)
   0CBC 74 08              1961 	mov	a,#0x08
   0CBE F0                 1962 	movx	@dptr,a
   0CBF 90 45 0E           1963 	mov	dptr,#(_privateKey + 0x000e)
   0CC2 74 1A              1964 	mov	a,#0x1A
   0CC4 F0                 1965 	movx	@dptr,a
   0CC5 90 45 0F           1966 	mov	dptr,#(_privateKey + 0x000f)
   0CC8 74 66              1967 	mov	a,#0x66
   0CCA F0                 1968 	movx	@dptr,a
   0CCB 90 45 10           1969 	mov	dptr,#(_privateKey + 0x0010)
   0CCE 74 97              1970 	mov	a,#0x97
   0CD0 F0                 1971 	movx	@dptr,a
   0CD1 90 45 11           1972 	mov	dptr,#(_privateKey + 0x0011)
   0CD4 74 C4              1973 	mov	a,#0xC4
   0CD6 F0                 1974 	movx	@dptr,a
   0CD7 90 45 12           1975 	mov	dptr,#(_privateKey + 0x0012)
   0CDA 74 B7              1976 	mov	a,#0xB7
   0CDC F0                 1977 	movx	@dptr,a
   0CDD 90 45 13           1978 	mov	dptr,#(_privateKey + 0x0013)
   0CE0 74 6E              1979 	mov	a,#0x6E
   0CE2 F0                 1980 	movx	@dptr,a
   0CE3 90 45 14           1981 	mov	dptr,#(_privateKey + 0x0014)
   0CE6 74 54              1982 	mov	a,#0x54
   0CE8 F0                 1983 	movx	@dptr,a
   0CE9 90 45 15           1984 	mov	dptr,#(_privateKey + 0x0015)
   0CEC 74 5D              1985 	mov	a,#0x5D
   0CEE F0                 1986 	movx	@dptr,a
   0CEF 90 45 16           1987 	mov	dptr,#(_privateKey + 0x0016)
   0CF2 74 C4              1988 	mov	a,#0xC4
   0CF4 F0                 1989 	movx	@dptr,a
   0CF5 90 45 17           1990 	mov	dptr,#(_privateKey + 0x0017)
   0CF8 74 99              1991 	mov	a,#0x99
   0CFA F0                 1992 	movx	@dptr,a
   0CFB 90 45 18           1993 	mov	dptr,#(_privateKey + 0x0018)
   0CFE 74 40              1994 	mov	a,#0x40
   0D00 F0                 1995 	movx	@dptr,a
   0D01 90 45 19           1996 	mov	dptr,#(_privateKey + 0x0019)
   0D04 74 63              1997 	mov	a,#0x63
   0D06 F0                 1998 	movx	@dptr,a
   0D07 90 45 1A           1999 	mov	dptr,#(_privateKey + 0x001a)
   0D0A 74 65              2000 	mov	a,#0x65
   0D0C F0                 2001 	movx	@dptr,a
   0D0D 90 45 1B           2002 	mov	dptr,#(_privateKey + 0x001b)
   0D10 74 ED              2003 	mov	a,#0xED
   0D12 F0                 2004 	movx	@dptr,a
   0D13 90 45 1C           2005 	mov	dptr,#(_privateKey + 0x001c)
   0D16 74 77              2006 	mov	a,#0x77
   0D18 F0                 2007 	movx	@dptr,a
   0D19 90 45 1D           2008 	mov	dptr,#(_privateKey + 0x001d)
   0D1C 74 CA              2009 	mov	a,#0xCA
   0D1E F0                 2010 	movx	@dptr,a
   0D1F 90 45 1E           2011 	mov	dptr,#(_privateKey + 0x001e)
   0D22 74 CF              2012 	mov	a,#0xCF
   0D24 F0                 2013 	movx	@dptr,a
   0D25 90 45 1F           2014 	mov	dptr,#(_privateKey + 0x001f)
   0D28 74 EB              2015 	mov	a,#0xEB
   0D2A F0                 2016 	movx	@dptr,a
   0D2B 90 45 20           2017 	mov	dptr,#(_privateKey + 0x0020)
   0D2E 74 75              2018 	mov	a,#0x75
   0D30 F0                 2019 	movx	@dptr,a
   0D31 90 45 21           2020 	mov	dptr,#(_privateKey + 0x0021)
   0D34 74 CF              2021 	mov	a,#0xCF
   0D36 F0                 2022 	movx	@dptr,a
   0D37 90 45 22           2023 	mov	dptr,#(_privateKey + 0x0022)
   0D3A 74 29              2024 	mov	a,#0x29
   0D3C F0                 2025 	movx	@dptr,a
   0D3D 90 45 23           2026 	mov	dptr,#(_privateKey + 0x0023)
   0D40 74 3C              2027 	mov	a,#0x3C
   0D42 F0                 2028 	movx	@dptr,a
   0D43 90 45 24           2029 	mov	dptr,#(_privateKey + 0x0024)
   0D46 74 E5              2030 	mov	a,#0xE5
   0D48 F0                 2031 	movx	@dptr,a
   0D49 90 45 25           2032 	mov	dptr,#(_privateKey + 0x0025)
   0D4C 74 27              2033 	mov	a,#0x27
   0D4E F0                 2034 	movx	@dptr,a
   0D4F 90 45 26           2035 	mov	dptr,#(_privateKey + 0x0026)
   0D52 74 0B              2036 	mov	a,#0x0B
   0D54 F0                 2037 	movx	@dptr,a
   0D55 90 45 27           2038 	mov	dptr,#(_privateKey + 0x0027)
   0D58 74 54              2039 	mov	a,#0x54
   0D5A F0                 2040 	movx	@dptr,a
   0D5B 90 45 28           2041 	mov	dptr,#(_privateKey + 0x0028)
   0D5E 74 D0              2042 	mov	a,#0xD0
   0D60 F0                 2043 	movx	@dptr,a
   0D61 90 45 29           2044 	mov	dptr,#(_privateKey + 0x0029)
   0D64 74 11              2045 	mov	a,#0x11
   0D66 F0                 2046 	movx	@dptr,a
   0D67 90 45 2A           2047 	mov	dptr,#(_privateKey + 0x002a)
   0D6A 74 7E              2048 	mov	a,#0x7E
   0D6C F0                 2049 	movx	@dptr,a
   0D6D 90 45 2B           2050 	mov	dptr,#(_privateKey + 0x002b)
   0D70 74 B2              2051 	mov	a,#0xB2
   0D72 F0                 2052 	movx	@dptr,a
   0D73 90 45 2C           2053 	mov	dptr,#(_privateKey + 0x002c)
   0D76 74 0B              2054 	mov	a,#0x0B
   0D78 F0                 2055 	movx	@dptr,a
   0D79 90 45 2D           2056 	mov	dptr,#(_privateKey + 0x002d)
   0D7C 74 12              2057 	mov	a,#0x12
   0D7E F0                 2058 	movx	@dptr,a
   0D7F 90 45 2E           2059 	mov	dptr,#(_privateKey + 0x002e)
   0D82 74 9F              2060 	mov	a,#0x9F
   0D84 F0                 2061 	movx	@dptr,a
   0D85 90 45 2F           2062 	mov	dptr,#(_privateKey + 0x002f)
   0D88 74 BD              2063 	mov	a,#0xBD
   0D8A F0                 2064 	movx	@dptr,a
   0D8B 90 45 30           2065 	mov	dptr,#(_privateKey + 0x0030)
   0D8E 74 BF              2066 	mov	a,#0xBF
   0D90 F0                 2067 	movx	@dptr,a
   0D91 90 45 31           2068 	mov	dptr,#(_privateKey + 0x0031)
   0D94 74 2F              2069 	mov	a,#0x2F
   0D96 F0                 2070 	movx	@dptr,a
   0D97 90 45 32           2071 	mov	dptr,#(_privateKey + 0x0032)
   0D9A 74 51              2072 	mov	a,#0x51
   0D9C F0                 2073 	movx	@dptr,a
   0D9D 90 45 33           2074 	mov	dptr,#(_privateKey + 0x0033)
   0DA0 74 4C              2075 	mov	a,#0x4C
   0DA2 F0                 2076 	movx	@dptr,a
   0DA3 90 45 34           2077 	mov	dptr,#(_privateKey + 0x0034)
   0DA6 74 51              2078 	mov	a,#0x51
   0DA8 F0                 2079 	movx	@dptr,a
   0DA9 90 45 35           2080 	mov	dptr,#(_privateKey + 0x0035)
   0DAC 74 6D              2081 	mov	a,#0x6D
   0DAE F0                 2082 	movx	@dptr,a
   0DAF 90 45 36           2083 	mov	dptr,#(_privateKey + 0x0036)
   0DB2 74 2F              2084 	mov	a,#0x2F
   0DB4 F0                 2085 	movx	@dptr,a
   0DB5 90 45 37           2086 	mov	dptr,#(_privateKey + 0x0037)
   0DB8 74 F8              2087 	mov	a,#0xF8
   0DBA F0                 2088 	movx	@dptr,a
   0DBB 90 45 38           2089 	mov	dptr,#(_privateKey + 0x0038)
   0DBE 74 2D              2090 	mov	a,#0x2D
   0DC0 F0                 2091 	movx	@dptr,a
   0DC1 90 45 39           2092 	mov	dptr,#(_privateKey + 0x0039)
   0DC4 74 62              2093 	mov	a,#0x62
   0DC6 F0                 2094 	movx	@dptr,a
   0DC7 90 45 3A           2095 	mov	dptr,#(_privateKey + 0x003a)
   0DCA 74 B4              2096 	mov	a,#0xB4
   0DCC F0                 2097 	movx	@dptr,a
   0DCD 90 45 3B           2098 	mov	dptr,#(_privateKey + 0x003b)
   0DD0 74 1E              2099 	mov	a,#0x1E
   0DD2 F0                 2100 	movx	@dptr,a
   0DD3 90 45 3C           2101 	mov	dptr,#(_privateKey + 0x003c)
   0DD6 74 A5              2102 	mov	a,#0xA5
   0DD8 F0                 2103 	movx	@dptr,a
   0DD9 90 45 3D           2104 	mov	dptr,#(_privateKey + 0x003d)
   0DDC 74 EC              2105 	mov	a,#0xEC
   0DDE F0                 2106 	movx	@dptr,a
   0DDF 90 45 3E           2107 	mov	dptr,#(_privateKey + 0x003e)
   0DE2 74 E9              2108 	mov	a,#0xE9
   0DE4 F0                 2109 	movx	@dptr,a
   0DE5 90 45 3F           2110 	mov	dptr,#(_privateKey + 0x003f)
   0DE8 74 DE              2111 	mov	a,#0xDE
   0DEA F0                 2112 	movx	@dptr,a
   0DEB 90 45 40           2113 	mov	dptr,#(_privateKey + 0x0040)
   0DEE 74 0B              2114 	mov	a,#0x0B
   0DF0 F0                 2115 	movx	@dptr,a
   0DF1 90 45 41           2116 	mov	dptr,#(_privateKey + 0x0041)
   0DF4 74 E9              2117 	mov	a,#0xE9
   0DF6 F0                 2118 	movx	@dptr,a
   0DF7 90 45 42           2119 	mov	dptr,#(_privateKey + 0x0042)
   0DFA 74 7A              2120 	mov	a,#0x7A
   0DFC F0                 2121 	movx	@dptr,a
   0DFD 90 45 43           2122 	mov	dptr,#(_privateKey + 0x0043)
   0E00 74 72              2123 	mov	a,#0x72
   0E02 F0                 2124 	movx	@dptr,a
   0E03 90 45 44           2125 	mov	dptr,#(_privateKey + 0x0044)
   0E06 74 AE              2126 	mov	a,#0xAE
   0E08 F0                 2127 	movx	@dptr,a
   0E09 90 45 45           2128 	mov	dptr,#(_privateKey + 0x0045)
   0E0C 74 A4              2129 	mov	a,#0xA4
   0E0E F0                 2130 	movx	@dptr,a
   0E0F 90 45 46           2131 	mov	dptr,#(_privateKey + 0x0046)
   0E12 74 56              2132 	mov	a,#0x56
   0E14 F0                 2133 	movx	@dptr,a
   0E15 90 45 47           2134 	mov	dptr,#(_privateKey + 0x0047)
   0E18 74 AF              2135 	mov	a,#0xAF
   0E1A F0                 2136 	movx	@dptr,a
   0E1B 90 45 48           2137 	mov	dptr,#(_privateKey + 0x0048)
   0E1E 74 E3              2138 	mov	a,#0xE3
   0E20 F0                 2139 	movx	@dptr,a
   0E21 90 45 49           2140 	mov	dptr,#(_privateKey + 0x0049)
   0E24 74 AF              2141 	mov	a,#0xAF
   0E26 F0                 2142 	movx	@dptr,a
   0E27 90 45 4A           2143 	mov	dptr,#(_privateKey + 0x004a)
   0E2A 74 72              2144 	mov	a,#0x72
   0E2C F0                 2145 	movx	@dptr,a
   0E2D 90 45 4B           2146 	mov	dptr,#(_privateKey + 0x004b)
   0E30 74 54              2147 	mov	a,#0x54
   0E32 F0                 2148 	movx	@dptr,a
   0E33 90 45 4C           2149 	mov	dptr,#(_privateKey + 0x004c)
   0E36 74 05              2150 	mov	a,#0x05
   0E38 F0                 2151 	movx	@dptr,a
   0E39 90 45 4D           2152 	mov	dptr,#(_privateKey + 0x004d)
   0E3C 74 BE              2153 	mov	a,#0xBE
   0E3E F0                 2154 	movx	@dptr,a
   0E3F 90 45 4E           2155 	mov	dptr,#(_privateKey + 0x004e)
   0E42 74 14              2156 	mov	a,#0x14
   0E44 F0                 2157 	movx	@dptr,a
   0E45 90 45 4F           2158 	mov	dptr,#(_privateKey + 0x004f)
   0E48 74 A1              2159 	mov	a,#0xA1
   0E4A F0                 2160 	movx	@dptr,a
   0E4B 90 45 50           2161 	mov	dptr,#(_privateKey + 0x0050)
   0E4E 74 01              2162 	mov	a,#0x01
   0E50 F0                 2163 	movx	@dptr,a
   0E51 90 45 51           2164 	mov	dptr,#(_privateKey + 0x0051)
   0E54 74 4D              2165 	mov	a,#0x4D
   0E56 F0                 2166 	movx	@dptr,a
   0E57 90 45 52           2167 	mov	dptr,#(_privateKey + 0x0052)
   0E5A 74 0D              2168 	mov	a,#0x0D
   0E5C F0                 2169 	movx	@dptr,a
   0E5D 90 45 53           2170 	mov	dptr,#(_privateKey + 0x0053)
   0E60 74 8D              2171 	mov	a,#0x8D
   0E62 F0                 2172 	movx	@dptr,a
   0E63 90 45 54           2173 	mov	dptr,#(_privateKey + 0x0054)
   0E66 74 02              2174 	mov	a,#0x02
   0E68 F0                 2175 	movx	@dptr,a
   0E69 90 45 55           2176 	mov	dptr,#(_privateKey + 0x0055)
   0E6C 74 7F              2177 	mov	a,#0x7F
   0E6E F0                 2178 	movx	@dptr,a
   0E6F 90 45 56           2179 	mov	dptr,#(_privateKey + 0x0056)
   0E72 74 CA              2180 	mov	a,#0xCA
   0E74 F0                 2181 	movx	@dptr,a
   0E75 90 45 57           2182 	mov	dptr,#(_privateKey + 0x0057)
   0E78 74 EF              2183 	mov	a,#0xEF
   0E7A F0                 2184 	movx	@dptr,a
   0E7B 90 45 58           2185 	mov	dptr,#(_privateKey + 0x0058)
   0E7E 74 EC              2186 	mov	a,#0xEC
   0E80 F0                 2187 	movx	@dptr,a
   0E81 90 45 59           2188 	mov	dptr,#(_privateKey + 0x0059)
   0E84 74 83              2189 	mov	a,#0x83
   0E86 F0                 2190 	movx	@dptr,a
   0E87 90 45 5A           2191 	mov	dptr,#(_privateKey + 0x005a)
   0E8A 74 E2              2192 	mov	a,#0xE2
   0E8C F0                 2193 	movx	@dptr,a
   0E8D 90 45 5B           2194 	mov	dptr,#(_privateKey + 0x005b)
   0E90 74 A0              2195 	mov	a,#0xA0
   0E92 F0                 2196 	movx	@dptr,a
   0E93 90 45 5C           2197 	mov	dptr,#(_privateKey + 0x005c)
   0E96 74 75              2198 	mov	a,#0x75
   0E98 F0                 2199 	movx	@dptr,a
   0E99 90 45 5D           2200 	mov	dptr,#(_privateKey + 0x005d)
   0E9C 74 0A              2201 	mov	a,#0x0A
   0E9E F0                 2202 	movx	@dptr,a
   0E9F 90 45 5E           2203 	mov	dptr,#(_privateKey + 0x005e)
   0EA2 74 EF              2204 	mov	a,#0xEF
   0EA4 F0                 2205 	movx	@dptr,a
   0EA5 90 45 5F           2206 	mov	dptr,#(_privateKey + 0x005f)
   0EA8 74 0C              2207 	mov	a,#0x0C
   0EAA F0                 2208 	movx	@dptr,a
   0EAB 90 45 60           2209 	mov	dptr,#(_privateKey + 0x0060)
   0EAE 74 2C              2210 	mov	a,#0x2C
   0EB0 F0                 2211 	movx	@dptr,a
   0EB1 90 45 61           2212 	mov	dptr,#(_privateKey + 0x0061)
   0EB4 74 61              2213 	mov	a,#0x61
   0EB6 F0                 2214 	movx	@dptr,a
   0EB7 90 45 62           2215 	mov	dptr,#(_privateKey + 0x0062)
   0EBA 74 C2              2216 	mov	a,#0xC2
   0EBC F0                 2217 	movx	@dptr,a
   0EBD 90 45 63           2218 	mov	dptr,#(_privateKey + 0x0063)
   0EC0 74 5C              2219 	mov	a,#0x5C
   0EC2 F0                 2220 	movx	@dptr,a
   0EC3 90 45 64           2221 	mov	dptr,#(_privateKey + 0x0064)
   0EC6 74 DC              2222 	mov	a,#0xDC
   0EC8 F0                 2223 	movx	@dptr,a
   0EC9 90 45 65           2224 	mov	dptr,#(_privateKey + 0x0065)
   0ECC 74 95              2225 	mov	a,#0x95
   0ECE F0                 2226 	movx	@dptr,a
   0ECF 90 45 66           2227 	mov	dptr,#(_privateKey + 0x0066)
   0ED2 74 C3              2228 	mov	a,#0xC3
   0ED4 F0                 2229 	movx	@dptr,a
   0ED5 90 45 67           2230 	mov	dptr,#(_privateKey + 0x0067)
   0ED8 74 36              2231 	mov	a,#0x36
   0EDA F0                 2232 	movx	@dptr,a
   0EDB 90 45 68           2233 	mov	dptr,#(_privateKey + 0x0068)
   0EDE 74 63              2234 	mov	a,#0x63
   0EE0 F0                 2235 	movx	@dptr,a
   0EE1 90 45 69           2236 	mov	dptr,#(_privateKey + 0x0069)
   0EE4 74 69              2237 	mov	a,#0x69
   0EE6 F0                 2238 	movx	@dptr,a
   0EE7 90 45 6A           2239 	mov	dptr,#(_privateKey + 0x006a)
   0EEA 74 6A              2240 	mov	a,#0x6A
   0EEC F0                 2241 	movx	@dptr,a
   0EED 90 45 6B           2242 	mov	dptr,#(_privateKey + 0x006b)
   0EF0 74 76              2243 	mov	a,#0x76
   0EF2 F0                 2244 	movx	@dptr,a
   0EF3 90 45 6C           2245 	mov	dptr,#(_privateKey + 0x006c)
   0EF6 74 64              2246 	mov	a,#0x64
   0EF8 F0                 2247 	movx	@dptr,a
   0EF9 90 45 6D           2248 	mov	dptr,#(_privateKey + 0x006d)
   0EFC 74 D2              2249 	mov	a,#0xD2
   0EFE F0                 2250 	movx	@dptr,a
   0EFF 90 45 6E           2251 	mov	dptr,#(_privateKey + 0x006e)
   0F02 74 57              2252 	mov	a,#0x57
   0F04 F0                 2253 	movx	@dptr,a
   0F05 90 45 6F           2254 	mov	dptr,#(_privateKey + 0x006f)
   0F08 74 56              2255 	mov	a,#0x56
   0F0A F0                 2256 	movx	@dptr,a
   0F0B 90 45 70           2257 	mov	dptr,#(_privateKey + 0x0070)
   0F0E 74 7F              2258 	mov	a,#0x7F
   0F10 F0                 2259 	movx	@dptr,a
   0F11 90 45 71           2260 	mov	dptr,#(_privateKey + 0x0071)
   0F14 74 E3              2261 	mov	a,#0xE3
   0F16 F0                 2262 	movx	@dptr,a
   0F17 90 45 72           2263 	mov	dptr,#(_privateKey + 0x0072)
   0F1A 74 C9              2264 	mov	a,#0xC9
   0F1C F0                 2265 	movx	@dptr,a
   0F1D 90 45 73           2266 	mov	dptr,#(_privateKey + 0x0073)
   0F20 74 CA              2267 	mov	a,#0xCA
   0F22 F0                 2268 	movx	@dptr,a
   0F23 90 45 74           2269 	mov	dptr,#(_privateKey + 0x0074)
   0F26 74 11              2270 	mov	a,#0x11
   0F28 F0                 2271 	movx	@dptr,a
   0F29 90 45 75           2272 	mov	dptr,#(_privateKey + 0x0075)
   0F2C 74 1F              2273 	mov	a,#0x1F
   0F2E F0                 2274 	movx	@dptr,a
   0F2F 90 45 76           2275 	mov	dptr,#(_privateKey + 0x0076)
   0F32 74 FD              2276 	mov	a,#0xFD
   0F34 F0                 2277 	movx	@dptr,a
   0F35 90 45 77           2278 	mov	dptr,#(_privateKey + 0x0077)
   0F38 74 FC              2279 	mov	a,#0xFC
   0F3A F0                 2280 	movx	@dptr,a
   0F3B 90 45 78           2281 	mov	dptr,#(_privateKey + 0x0078)
   0F3E 74 1A              2282 	mov	a,#0x1A
   0F40 F0                 2283 	movx	@dptr,a
   0F41 90 45 79           2284 	mov	dptr,#(_privateKey + 0x0079)
   0F44 74 54              2285 	mov	a,#0x54
   0F46 F0                 2286 	movx	@dptr,a
   0F47 90 45 7A           2287 	mov	dptr,#(_privateKey + 0x007a)
   0F4A 74 A0              2288 	mov	a,#0xA0
   0F4C F0                 2289 	movx	@dptr,a
   0F4D 90 45 7B           2290 	mov	dptr,#(_privateKey + 0x007b)
   0F50 74 70              2291 	mov	a,#0x70
   0F52 F0                 2292 	movx	@dptr,a
   0F53 90 45 7C           2293 	mov	dptr,#(_privateKey + 0x007c)
   0F56 74 42              2294 	mov	a,#0x42
   0F58 F0                 2295 	movx	@dptr,a
   0F59 90 45 7D           2296 	mov	dptr,#(_privateKey + 0x007d)
   0F5C 74 97              2297 	mov	a,#0x97
   0F5E F0                 2298 	movx	@dptr,a
   0F5F 90 45 7E           2299 	mov	dptr,#(_privateKey + 0x007e)
   0F62 74 F7              2300 	mov	a,#0xF7
   0F64 F0                 2301 	movx	@dptr,a
   0F65 90 45 7F           2302 	mov	dptr,#(_privateKey + 0x007f)
   0F68 74 6D              2303 	mov	a,#0x6D
   0F6A F0                 2304 	movx	@dptr,a
                           2305 	.area GSFINAL (CODE)
   0F6B 02 00 03           2306 	ljmp	__sdcc_program_startup
                           2307 ;--------------------------------------------------------
                           2308 ; Home
                           2309 ;--------------------------------------------------------
                           2310 	.area HOME    (CODE)
                           2311 	.area HOME    (CODE)
   0003                    2312 __sdcc_program_startup:
   0003 12 0F 6E           2313 	lcall	_main
                           2314 ;	return from main will lock up
   0006 80 FE              2315 	sjmp .
                           2316 ;--------------------------------------------------------
                           2317 ; code
                           2318 ;--------------------------------------------------------
                           2319 	.area CSEG    (CODE)
                           2320 ;------------------------------------------------------------
                           2321 ;Allocation info for local variables in function 'main'
                           2322 ;------------------------------------------------------------
                           2323 ;------------------------------------------------------------
                           2324 ;	main.c:64: int main() {
                           2325 ;	-----------------------------------------
                           2326 ;	 function main
                           2327 ;	-----------------------------------------
   0F6E                    2328 _main:
                    0002   2329 	ar2 = 0x02
                    0003   2330 	ar3 = 0x03
                    0004   2331 	ar4 = 0x04
                    0005   2332 	ar5 = 0x05
                    0006   2333 	ar6 = 0x06
                    0007   2334 	ar7 = 0x07
                    0000   2335 	ar0 = 0x00
                    0001   2336 	ar1 = 0x01
                           2337 ;	main.c:66: memcpy(sM, modulus, SIZE);
   0F6E 75 21 00           2338 	mov	_memcpy_PARM_2,#_modulus
   0F71 75 22 42           2339 	mov	(_memcpy_PARM_2 + 1),#(_modulus >> 8)
   0F74 75 23 00           2340 	mov	(_memcpy_PARM_2 + 2),#0x00
   0F77 75 24 80           2341 	mov	_memcpy_PARM_3,#0x80
   0F7A E4                 2342 	clr	a
   0F7B F5 25              2343 	mov	(_memcpy_PARM_3 + 1),a
   0F7D 90 21 01           2344 	mov	dptr,#_sM
   0F80 75 F0 00           2345 	mov	b,#0x00
   0F83 12 13 1A           2346 	lcall	_memcpy
                           2347 ;	main.c:68: montModExp(encryptedMessage, message, publicKey);
   0F86 75 11 00           2348 	mov	_montModExp_PARM_2,#_message
   0F89 75 12 43           2349 	mov	(_montModExp_PARM_2 + 1),#(_message >> 8)
   0F8C 75 13 00           2350 	mov	(_montModExp_PARM_2 + 2),#0x00
   0F8F 75 14 00           2351 	mov	_montModExp_PARM_3,#_publicKey
   0F92 75 15 44           2352 	mov	(_montModExp_PARM_3 + 1),#(_publicKey >> 8)
   0F95 75 16 00           2353 	mov	(_montModExp_PARM_3 + 2),#0x00
   0F98 90 50 00           2354 	mov	dptr,#_encryptedMessage
   0F9B 75 F0 00           2355 	mov	b,#0x00
   0F9E 12 10 D4           2356 	lcall	_montModExp
                           2357 ;	main.c:69: montModExp(decryptedMessage, encryptedMessage, privateKey);
   0FA1 75 11 00           2358 	mov	_montModExp_PARM_2,#_encryptedMessage
   0FA4 75 12 50           2359 	mov	(_montModExp_PARM_2 + 1),#(_encryptedMessage >> 8)
   0FA7 75 13 00           2360 	mov	(_montModExp_PARM_2 + 2),#0x00
   0FAA 75 14 00           2361 	mov	_montModExp_PARM_3,#_privateKey
   0FAD 75 15 45           2362 	mov	(_montModExp_PARM_3 + 1),#(_privateKey >> 8)
   0FB0 75 16 00           2363 	mov	(_montModExp_PARM_3 + 2),#0x00
   0FB3 90 51 00           2364 	mov	dptr,#_decryptedMessage
   0FB6 75 F0 00           2365 	mov	b,#0x00
   0FB9 12 10 D4           2366 	lcall	_montModExp
                           2367 ;	main.c:70: _terminate();
   0FBC 12 13 16           2368 	lcall	__terminate
                           2369 ;	main.c:71: return 0;
   0FBF 90 00 00           2370 	mov	dptr,#0x0000
   0FC2 22                 2371 	ret
                           2372 ;------------------------------------------------------------
                           2373 ;Allocation info for local variables in function 'montMultiply'
                           2374 ;------------------------------------------------------------
                           2375 ;a                         Allocated with name '_montMultiply_PARM_2'
                           2376 ;b                         Allocated with name '_montMultiply_PARM_3'
                           2377 ;r                         Allocated to registers r2 r3 r4 
                           2378 ;------------------------------------------------------------
                           2379 ;	main.c:74: void montMultiply(unsigned char *r, unsigned char *a, unsigned char *b, bool readResult) {
                           2380 ;	-----------------------------------------
                           2381 ;	 function montMultiply
                           2382 ;	-----------------------------------------
   0FC3                    2383 _montMultiply:
   0FC3 AA 82              2384 	mov	r2,dpl
   0FC5 AB 83              2385 	mov	r3,dph
   0FC7 AC F0              2386 	mov	r4,b
                           2387 ;	main.c:75: memcpy(sA, a, SIZE);
   0FC9 85 08 21           2388 	mov	_memcpy_PARM_2,_montMultiply_PARM_2
   0FCC 85 09 22           2389 	mov	(_memcpy_PARM_2 + 1),(_montMultiply_PARM_2 + 1)
   0FCF 85 0A 23           2390 	mov	(_memcpy_PARM_2 + 2),(_montMultiply_PARM_2 + 2)
   0FD2 75 24 80           2391 	mov	_memcpy_PARM_3,#0x80
   0FD5 E4                 2392 	clr	a
   0FD6 F5 25              2393 	mov	(_memcpy_PARM_3 + 1),a
   0FD8 90 20 00           2394 	mov	dptr,#_sA
   0FDB 75 F0 00           2395 	mov	b,#0x00
   0FDE C0 02              2396 	push	ar2
   0FE0 C0 03              2397 	push	ar3
   0FE2 C0 04              2398 	push	ar4
   0FE4 12 13 1A           2399 	lcall	_memcpy
                           2400 ;	main.c:76: memcpy(sB, b, SIZE);
   0FE7 85 0B 21           2401 	mov	_memcpy_PARM_2,_montMultiply_PARM_3
   0FEA 85 0C 22           2402 	mov	(_memcpy_PARM_2 + 1),(_montMultiply_PARM_3 + 1)
   0FED 85 0D 23           2403 	mov	(_memcpy_PARM_2 + 2),(_montMultiply_PARM_3 + 2)
   0FF0 75 24 80           2404 	mov	_memcpy_PARM_3,#0x80
   0FF3 E4                 2405 	clr	a
   0FF4 F5 25              2406 	mov	(_memcpy_PARM_3 + 1),a
   0FF6 90 20 81           2407 	mov	dptr,#_sB
   0FF9 75 F0 00           2408 	mov	b,#0x00
   0FFC 12 13 1A           2409 	lcall	_memcpy
                           2410 ;	main.c:78: _mul1_writeAll();
   0FFF 12 12 C4           2411 	lcall	__mul1_writeAll
                           2412 ;	main.c:79: _mul1_montgomery();
   1002 12 13 0F           2413 	lcall	__mul1_montgomery
   1005 D0 04              2414 	pop	ar4
   1007 D0 03              2415 	pop	ar3
   1009 D0 02              2416 	pop	ar2
                           2417 ;	main.c:81: if (readResult) {
   100B 30 00 27           2418 	jnb	_montMultiply_PARM_4,00103$
                           2419 ;	main.c:82: _mul1_readResult();
   100E C0 02              2420 	push	ar2
   1010 C0 03              2421 	push	ar3
   1012 C0 04              2422 	push	ar4
   1014 12 12 ED           2423 	lcall	__mul1_readResult
   1017 D0 04              2424 	pop	ar4
   1019 D0 03              2425 	pop	ar3
   101B D0 02              2426 	pop	ar2
                           2427 ;	main.c:83: memcpy(r, sR, SIZE);
   101D 75 21 00           2428 	mov	_memcpy_PARM_2,#_sR
   1020 75 22 30           2429 	mov	(_memcpy_PARM_2 + 1),#(_sR >> 8)
   1023 75 23 00           2430 	mov	(_memcpy_PARM_2 + 2),#0x00
   1026 75 24 80           2431 	mov	_memcpy_PARM_3,#0x80
   1029 E4                 2432 	clr	a
   102A F5 25              2433 	mov	(_memcpy_PARM_3 + 1),a
   102C 8A 82              2434 	mov	dpl,r2
   102E 8B 83              2435 	mov	dph,r3
   1030 8C F0              2436 	mov	b,r4
   1032 02 13 1A           2437 	ljmp	_memcpy
   1035                    2438 00103$:
   1035 22                 2439 	ret
                           2440 ;------------------------------------------------------------
                           2441 ;Allocation info for local variables in function 'montMultiply_One'
                           2442 ;------------------------------------------------------------
                           2443 ;a                         Allocated with name '_montMultiply_One_PARM_2'
                           2444 ;r                         Allocated to registers r2 r3 r4 
                           2445 ;------------------------------------------------------------
                           2446 ;	main.c:87: void montMultiply_One(unsigned char *r, unsigned char *a, bool readResult) {
                           2447 ;	-----------------------------------------
                           2448 ;	 function montMultiply_One
                           2449 ;	-----------------------------------------
   1036                    2450 _montMultiply_One:
   1036 AA 82              2451 	mov	r2,dpl
   1038 AB 83              2452 	mov	r3,dph
   103A AC F0              2453 	mov	r4,b
                           2454 ;	main.c:88: memcpy(sA, a, SIZE);
   103C 85 0E 21           2455 	mov	_memcpy_PARM_2,_montMultiply_One_PARM_2
   103F 85 0F 22           2456 	mov	(_memcpy_PARM_2 + 1),(_montMultiply_One_PARM_2 + 1)
   1042 85 10 23           2457 	mov	(_memcpy_PARM_2 + 2),(_montMultiply_One_PARM_2 + 2)
   1045 75 24 80           2458 	mov	_memcpy_PARM_3,#0x80
   1048 E4                 2459 	clr	a
   1049 F5 25              2460 	mov	(_memcpy_PARM_3 + 1),a
   104B 90 20 00           2461 	mov	dptr,#_sA
   104E 75 F0 00           2462 	mov	b,#0x00
   1051 C0 02              2463 	push	ar2
   1053 C0 03              2464 	push	ar3
   1055 C0 04              2465 	push	ar4
   1057 12 13 1A           2466 	lcall	_memcpy
                           2467 ;	main.c:90: _mul1_writeOne();
   105A 12 12 D5           2468 	lcall	__mul1_writeOne
                           2469 ;	main.c:91: _mul1_montgomery();
   105D 12 13 0F           2470 	lcall	__mul1_montgomery
   1060 D0 04              2471 	pop	ar4
   1062 D0 03              2472 	pop	ar3
   1064 D0 02              2473 	pop	ar2
                           2474 ;	main.c:93: if (readResult) {
   1066 30 01 27           2475 	jnb	_montMultiply_One_PARM_3,00103$
                           2476 ;	main.c:94: _mul1_readResult();
   1069 C0 02              2477 	push	ar2
   106B C0 03              2478 	push	ar3
   106D C0 04              2479 	push	ar4
   106F 12 12 ED           2480 	lcall	__mul1_readResult
   1072 D0 04              2481 	pop	ar4
   1074 D0 03              2482 	pop	ar3
   1076 D0 02              2483 	pop	ar2
                           2484 ;	main.c:95: memcpy(r, sR, SIZE);
   1078 75 21 00           2485 	mov	_memcpy_PARM_2,#_sR
   107B 75 22 30           2486 	mov	(_memcpy_PARM_2 + 1),#(_sR >> 8)
   107E 75 23 00           2487 	mov	(_memcpy_PARM_2 + 2),#0x00
   1081 75 24 80           2488 	mov	_memcpy_PARM_3,#0x80
   1084 E4                 2489 	clr	a
   1085 F5 25              2490 	mov	(_memcpy_PARM_3 + 1),a
   1087 8A 82              2491 	mov	dpl,r2
   1089 8B 83              2492 	mov	dph,r3
   108B 8C F0              2493 	mov	b,r4
   108D 02 13 1A           2494 	ljmp	_memcpy
   1090                    2495 00103$:
   1090 22                 2496 	ret
                           2497 ;------------------------------------------------------------
                           2498 ;Allocation info for local variables in function 'montMultiply_Result'
                           2499 ;------------------------------------------------------------
                           2500 ;r                         Allocated to registers r2 r3 r4 
                           2501 ;------------------------------------------------------------
                           2502 ;	main.c:99: void montMultiply_Result(unsigned char *r, bool readResult) {
                           2503 ;	-----------------------------------------
                           2504 ;	 function montMultiply_Result
                           2505 ;	-----------------------------------------
   1091                    2506 _montMultiply_Result:
   1091 AA 82              2507 	mov	r2,dpl
   1093 AB 83              2508 	mov	r3,dph
   1095 AC F0              2509 	mov	r4,b
                           2510 ;	main.c:100: _mul1_writeReg();
   1097 C0 02              2511 	push	ar2
   1099 C0 03              2512 	push	ar3
   109B C0 04              2513 	push	ar4
   109D 12 12 E6           2514 	lcall	__mul1_writeReg
                           2515 ;	main.c:101: _mul1_montgomery();
   10A0 12 13 0F           2516 	lcall	__mul1_montgomery
   10A3 D0 04              2517 	pop	ar4
   10A5 D0 03              2518 	pop	ar3
   10A7 D0 02              2519 	pop	ar2
                           2520 ;	main.c:103: if (readResult) {
   10A9 30 02 27           2521 	jnb	_montMultiply_Result_PARM_2,00103$
                           2522 ;	main.c:104: _mul1_readResult();
   10AC C0 02              2523 	push	ar2
   10AE C0 03              2524 	push	ar3
   10B0 C0 04              2525 	push	ar4
   10B2 12 12 ED           2526 	lcall	__mul1_readResult
   10B5 D0 04              2527 	pop	ar4
   10B7 D0 03              2528 	pop	ar3
   10B9 D0 02              2529 	pop	ar2
                           2530 ;	main.c:105: memcpy(r, sR, SIZE);
   10BB 75 21 00           2531 	mov	_memcpy_PARM_2,#_sR
   10BE 75 22 30           2532 	mov	(_memcpy_PARM_2 + 1),#(_sR >> 8)
   10C1 75 23 00           2533 	mov	(_memcpy_PARM_2 + 2),#0x00
   10C4 75 24 80           2534 	mov	_memcpy_PARM_3,#0x80
   10C7 E4                 2535 	clr	a
   10C8 F5 25              2536 	mov	(_memcpy_PARM_3 + 1),a
   10CA 8A 82              2537 	mov	dpl,r2
   10CC 8B 83              2538 	mov	dph,r3
   10CE 8C F0              2539 	mov	b,r4
   10D0 02 13 1A           2540 	ljmp	_memcpy
   10D3                    2541 00103$:
   10D3 22                 2542 	ret
                           2543 ;------------------------------------------------------------
                           2544 ;Allocation info for local variables in function 'montModExp'
                           2545 ;------------------------------------------------------------
                           2546 ;x                         Allocated with name '_montModExp_PARM_2'
                           2547 ;e                         Allocated with name '_montModExp_PARM_3'
                           2548 ;r                         Allocated with name '_montModExp_r_1_1'
                           2549 ;i                         Allocated to registers r7 r0 
                           2550 ;t                         Allocated with name '_montModExp_t_1_1'
                           2551 ;one                       Allocated with name '_montModExp_one_1_1'
                           2552 ;xTilde                    Allocated with name '_montModExp_xTilde_1_1'
                           2553 ;------------------------------------------------------------
                           2554 ;	main.c:109: void montModExp(unsigned char *r, unsigned char *x, unsigned char *e) {
                           2555 ;	-----------------------------------------
                           2556 ;	 function montModExp
                           2557 ;	-----------------------------------------
   10D4                    2558 _montModExp:
   10D4 85 82 17           2559 	mov	_montModExp_r_1_1,dpl
   10D7 85 83 18           2560 	mov	(_montModExp_r_1_1 + 1),dph
   10DA 85 F0 19           2561 	mov	(_montModExp_r_1_1 + 2),b
                           2562 ;	main.c:116: *one = 0x01;
   10DD 90 11 00           2563 	mov	dptr,#_montModExp_one_1_1
   10E0 74 01              2564 	mov	a,#0x01
   10E2 F0                 2565 	movx	@dptr,a
                           2566 ;	main.c:118: t = _findFirstOne(e);
   10E3 85 14 82           2567 	mov	dpl,_montModExp_PARM_3
   10E6 85 15 83           2568 	mov	dph,(_montModExp_PARM_3 + 1)
   10E9 85 16 F0           2569 	mov	b,(_montModExp_PARM_3 + 2)
   10EC 12 12 15           2570 	lcall	__findFirstOne
   10EF 85 82 1A           2571 	mov	_montModExp_t_1_1,dpl
   10F2 85 83 1B           2572 	mov	(_montModExp_t_1_1 + 1),dph
                           2573 ;	main.c:120: montMultiply(xTilde, x, r2modm, true);
   10F5 75 0B 00           2574 	mov	_montMultiply_PARM_3,#_r2modm
   10F8 75 0C 41           2575 	mov	(_montMultiply_PARM_3 + 1),#(_r2modm >> 8)
   10FB 75 0D 00           2576 	mov	(_montMultiply_PARM_3 + 2),#0x00
   10FE 85 11 08           2577 	mov	_montMultiply_PARM_2,_montModExp_PARM_2
   1101 85 12 09           2578 	mov	(_montMultiply_PARM_2 + 1),(_montModExp_PARM_2 + 1)
   1104 85 13 0A           2579 	mov	(_montMultiply_PARM_2 + 2),(_montModExp_PARM_2 + 2)
   1107 D2 00              2580 	setb	_montMultiply_PARM_4
   1109 90 12 00           2581 	mov	dptr,#_montModExp_xTilde_1_1
   110C 75 F0 00           2582 	mov	b,#0x00
   110F 12 0F C3           2583 	lcall	_montMultiply
                           2584 ;	main.c:122: memcpy(sR, rmodm, SIZE);
   1112 75 21 00           2585 	mov	_memcpy_PARM_2,#_rmodm
   1115 75 22 40           2586 	mov	(_memcpy_PARM_2 + 1),#(_rmodm >> 8)
   1118 75 23 00           2587 	mov	(_memcpy_PARM_2 + 2),#0x00
   111B 75 24 80           2588 	mov	_memcpy_PARM_3,#0x80
   111E E4                 2589 	clr	a
   111F F5 25              2590 	mov	(_memcpy_PARM_3 + 1),a
   1121 90 30 00           2591 	mov	dptr,#_sR
   1124 75 F0 00           2592 	mov	b,#0x00
   1127 12 13 1A           2593 	lcall	_memcpy
                           2594 ;	main.c:123: _mul1_writeResult();
   112A 12 12 FE           2595 	lcall	__mul1_writeResult
                           2596 ;	main.c:125: for (i = 0; i <= t; i++) {
   112D 7F 00              2597 	mov	r7,#0x00
   112F 78 00              2598 	mov	r0,#0x00
   1131                    2599 00105$:
   1131 C3                 2600 	clr	c
   1132 E5 1A              2601 	mov	a,_montModExp_t_1_1
   1134 9F                 2602 	subb	a,r7
   1135 E5 1B              2603 	mov	a,(_montModExp_t_1_1 + 1)
   1137 98                 2604 	subb	a,r0
   1138 50 03              2605 	jnc	00116$
   113A 02 11 FE           2606 	ljmp	00108$
   113D                    2607 00116$:
                           2608 ;	main.c:126: if (i != 0)
   113D EF                 2609 	mov	a,r7
   113E 48                 2610 	orl	a,r0
   113F 60 55              2611 	jz	00102$
                           2612 ;	main.c:127: montMultiply_Result(r, ((e[(t-i)/8] >> (t-i)%8)) & 1);
   1141 E5 1A              2613 	mov	a,_montModExp_t_1_1
   1143 C3                 2614 	clr	c
   1144 9F                 2615 	subb	a,r7
   1145 F9                 2616 	mov	r1,a
   1146 E5 1B              2617 	mov	a,(_montModExp_t_1_1 + 1)
   1148 98                 2618 	subb	a,r0
   1149 89 03              2619 	mov	ar3,r1
   114B C4                 2620 	swap	a
   114C 23                 2621 	rl	a
   114D CB                 2622 	xch	a,r3
   114E C4                 2623 	swap	a
   114F 23                 2624 	rl	a
   1150 54 1F              2625 	anl	a,#0x1f
   1152 6B                 2626 	xrl	a,r3
   1153 CB                 2627 	xch	a,r3
   1154 54 1F              2628 	anl	a,#0x1f
   1156 CB                 2629 	xch	a,r3
   1157 6B                 2630 	xrl	a,r3
   1158 CB                 2631 	xch	a,r3
   1159 FC                 2632 	mov	r4,a
   115A EB                 2633 	mov	a,r3
   115B 25 14              2634 	add	a,_montModExp_PARM_3
   115D FB                 2635 	mov	r3,a
   115E EC                 2636 	mov	a,r4
   115F 35 15              2637 	addc	a,(_montModExp_PARM_3 + 1)
   1161 FC                 2638 	mov	r4,a
   1162 AD 16              2639 	mov	r5,(_montModExp_PARM_3 + 2)
   1164 8B 82              2640 	mov	dpl,r3
   1166 8C 83              2641 	mov	dph,r4
   1168 8D F0              2642 	mov	b,r5
   116A 12 13 8B           2643 	lcall	__gptrget
   116D FB                 2644 	mov	r3,a
   116E 53 01 07           2645 	anl	ar1,#0x07
   1171 7A 00              2646 	mov	r2,#0x00
   1173 89 F0              2647 	mov	b,r1
   1175 05 F0              2648 	inc	b
   1177 EB                 2649 	mov	a,r3
   1178 80 02              2650 	sjmp	00119$
   117A                    2651 00118$:
   117A C3                 2652 	clr	c
   117B 13                 2653 	rrc	a
   117C                    2654 00119$:
   117C D5 F0 FB           2655 	djnz	b,00118$
   117F 13                 2656 	rrc	a
   1180 92 02              2657 	mov	_montMultiply_Result_PARM_2,c
   1182 85 17 82           2658 	mov	dpl,_montModExp_r_1_1
   1185 85 18 83           2659 	mov	dph,(_montModExp_r_1_1 + 1)
   1188 85 19 F0           2660 	mov	b,(_montModExp_r_1_1 + 2)
   118B C0 07              2661 	push	ar7
   118D C0 00              2662 	push	ar0
   118F 12 10 91           2663 	lcall	_montMultiply_Result
   1192 D0 00              2664 	pop	ar0
   1194 D0 07              2665 	pop	ar7
   1196                    2666 00102$:
                           2667 ;	main.c:128: if (((e[(t-i)/8] >> (t-i)%8)) & 1)
   1196 E5 1A              2668 	mov	a,_montModExp_t_1_1
   1198 C3                 2669 	clr	c
   1199 9F                 2670 	subb	a,r7
   119A FA                 2671 	mov	r2,a
   119B E5 1B              2672 	mov	a,(_montModExp_t_1_1 + 1)
   119D 98                 2673 	subb	a,r0
   119E 8A 04              2674 	mov	ar4,r2
   11A0 C4                 2675 	swap	a
   11A1 23                 2676 	rl	a
   11A2 CC                 2677 	xch	a,r4
   11A3 C4                 2678 	swap	a
   11A4 23                 2679 	rl	a
   11A5 54 1F              2680 	anl	a,#0x1f
   11A7 6C                 2681 	xrl	a,r4
   11A8 CC                 2682 	xch	a,r4
   11A9 54 1F              2683 	anl	a,#0x1f
   11AB CC                 2684 	xch	a,r4
   11AC 6C                 2685 	xrl	a,r4
   11AD CC                 2686 	xch	a,r4
   11AE FD                 2687 	mov	r5,a
   11AF EC                 2688 	mov	a,r4
   11B0 25 14              2689 	add	a,_montModExp_PARM_3
   11B2 FC                 2690 	mov	r4,a
   11B3 ED                 2691 	mov	a,r5
   11B4 35 15              2692 	addc	a,(_montModExp_PARM_3 + 1)
   11B6 FD                 2693 	mov	r5,a
   11B7 AE 16              2694 	mov	r6,(_montModExp_PARM_3 + 2)
   11B9 8C 82              2695 	mov	dpl,r4
   11BB 8D 83              2696 	mov	dph,r5
   11BD 8E F0              2697 	mov	b,r6
   11BF 12 13 8B           2698 	lcall	__gptrget
   11C2 FC                 2699 	mov	r4,a
   11C3 53 02 07           2700 	anl	ar2,#0x07
   11C6 7B 00              2701 	mov	r3,#0x00
   11C8 8A F0              2702 	mov	b,r2
   11CA 05 F0              2703 	inc	b
   11CC EC                 2704 	mov	a,r4
   11CD 80 02              2705 	sjmp	00121$
   11CF                    2706 00120$:
   11CF C3                 2707 	clr	c
   11D0 13                 2708 	rrc	a
   11D1                    2709 00121$:
   11D1 D5 F0 FB           2710 	djnz	b,00120$
   11D4 30 E0 1F           2711 	jnb	acc.0,00107$
                           2712 ;	main.c:129: montMultiply_One(r, xTilde, false);
   11D7 75 0E 00           2713 	mov	_montMultiply_One_PARM_2,#_montModExp_xTilde_1_1
   11DA 75 0F 12           2714 	mov	(_montMultiply_One_PARM_2 + 1),#(_montModExp_xTilde_1_1 >> 8)
   11DD 75 10 00           2715 	mov	(_montMultiply_One_PARM_2 + 2),#0x00
   11E0 C2 01              2716 	clr	_montMultiply_One_PARM_3
   11E2 85 17 82           2717 	mov	dpl,_montModExp_r_1_1
   11E5 85 18 83           2718 	mov	dph,(_montModExp_r_1_1 + 1)
   11E8 85 19 F0           2719 	mov	b,(_montModExp_r_1_1 + 2)
   11EB C0 07              2720 	push	ar7
   11ED C0 00              2721 	push	ar0
   11EF 12 10 36           2722 	lcall	_montMultiply_One
   11F2 D0 00              2723 	pop	ar0
   11F4 D0 07              2724 	pop	ar7
   11F6                    2725 00107$:
                           2726 ;	main.c:125: for (i = 0; i <= t; i++) {
   11F6 0F                 2727 	inc	r7
   11F7 BF 00 01           2728 	cjne	r7,#0x00,00123$
   11FA 08                 2729 	inc	r0
   11FB                    2730 00123$:
   11FB 02 11 31           2731 	ljmp	00105$
   11FE                    2732 00108$:
                           2733 ;	main.c:132: montMultiply_One(r, one, true);
   11FE 75 0E 00           2734 	mov	_montMultiply_One_PARM_2,#_montModExp_one_1_1
   1201 75 0F 11           2735 	mov	(_montMultiply_One_PARM_2 + 1),#(_montModExp_one_1_1 >> 8)
   1204 75 10 00           2736 	mov	(_montMultiply_One_PARM_2 + 2),#0x00
   1207 D2 01              2737 	setb	_montMultiply_One_PARM_3
   1209 85 17 82           2738 	mov	dpl,_montModExp_r_1_1
   120C 85 18 83           2739 	mov	dph,(_montModExp_r_1_1 + 1)
   120F 85 19 F0           2740 	mov	b,(_montModExp_r_1_1 + 2)
   1212 02 10 36           2741 	ljmp	_montMultiply_One
                           2742 ;------------------------------------------------------------
                           2743 ;Allocation info for local variables in function '_findFirstOne'
                           2744 ;------------------------------------------------------------
                           2745 ;e                         Allocated with name '__findFirstOne_e_1_1'
                           2746 ;i                         Allocated with name '__findFirstOne_i_1_1'
                           2747 ;j                         Allocated to registers r6 
                           2748 ;------------------------------------------------------------
                           2749 ;	main.c:136: unsigned short _findFirstOne(unsigned char *e) {
                           2750 ;	-----------------------------------------
                           2751 ;	 function _findFirstOne
                           2752 ;	-----------------------------------------
   1215                    2753 __findFirstOne:
   1215 85 82 21           2754 	mov	__findFirstOne_e_1_1,dpl
   1218 85 83 22           2755 	mov	(__findFirstOne_e_1_1 + 1),dph
   121B 85 F0 23           2756 	mov	(__findFirstOne_e_1_1 + 2),b
                           2757 ;	main.c:140: for (i = 0; i < SIZE; i++) {
   121E 75 24 00           2758 	mov	__findFirstOne_i_1_1,#0x00
   1221                    2759 00109$:
   1221 74 80              2760 	mov	a,#0x100 - 0x80
   1223 25 24              2761 	add	a,__findFirstOne_i_1_1
   1225 50 03              2762 	jnc	00121$
   1227 02 12 C0           2763 	ljmp	00112$
   122A                    2764 00121$:
                           2765 ;	main.c:141: if (e[(SIZE-1)-i] != 0) {
   122A AE 24              2766 	mov	r6,__findFirstOne_i_1_1
   122C 7F 00              2767 	mov	r7,#0x00
   122E 74 7F              2768 	mov	a,#0x7F
   1230 C3                 2769 	clr	c
   1231 9E                 2770 	subb	a,r6
   1232 FE                 2771 	mov	r6,a
   1233 E4                 2772 	clr	a
   1234 9F                 2773 	subb	a,r7
   1235 FF                 2774 	mov	r7,a
   1236 EE                 2775 	mov	a,r6
   1237 25 21              2776 	add	a,__findFirstOne_e_1_1
   1239 FE                 2777 	mov	r6,a
   123A EF                 2778 	mov	a,r7
   123B 35 22              2779 	addc	a,(__findFirstOne_e_1_1 + 1)
   123D FF                 2780 	mov	r7,a
   123E A8 23              2781 	mov	r0,(__findFirstOne_e_1_1 + 2)
   1240 8E 82              2782 	mov	dpl,r6
   1242 8F 83              2783 	mov	dph,r7
   1244 88 F0              2784 	mov	b,r0
   1246 12 13 8B           2785 	lcall	__gptrget
   1249 70 03              2786 	jnz	00122$
   124B 02 12 BB           2787 	ljmp	00111$
   124E                    2788 00122$:
                           2789 ;	main.c:142: for (j = 0; j < 8; j++) {
   124E 7E 00              2790 	mov	r6,#0x00
   1250                    2791 00105$:
   1250 BE 08 00           2792 	cjne	r6,#0x08,00123$
   1253                    2793 00123$:
   1253 50 66              2794 	jnc	00111$
                           2795 ;	main.c:143: if (e[(SIZE-1)-i] >> (7-j) & 1)
   1255 AF 24              2796 	mov	r7,__findFirstOne_i_1_1
   1257 78 00              2797 	mov	r0,#0x00
   1259 74 7F              2798 	mov	a,#0x7F
   125B C3                 2799 	clr	c
   125C 9F                 2800 	subb	a,r7
   125D F9                 2801 	mov	r1,a
   125E E4                 2802 	clr	a
   125F 98                 2803 	subb	a,r0
   1260 FA                 2804 	mov	r2,a
   1261 E9                 2805 	mov	a,r1
   1262 25 21              2806 	add	a,__findFirstOne_e_1_1
   1264 F9                 2807 	mov	r1,a
   1265 EA                 2808 	mov	a,r2
   1266 35 22              2809 	addc	a,(__findFirstOne_e_1_1 + 1)
   1268 FA                 2810 	mov	r2,a
   1269 AB 23              2811 	mov	r3,(__findFirstOne_e_1_1 + 2)
   126B 89 82              2812 	mov	dpl,r1
   126D 8A 83              2813 	mov	dph,r2
   126F 8B F0              2814 	mov	b,r3
   1271 12 13 8B           2815 	lcall	__gptrget
   1274 F9                 2816 	mov	r1,a
   1275 8E 02              2817 	mov	ar2,r6
   1277 7B 00              2818 	mov	r3,#0x00
   1279 74 07              2819 	mov	a,#0x07
   127B C3                 2820 	clr	c
   127C 9A                 2821 	subb	a,r2
   127D FC                 2822 	mov	r4,a
   127E E4                 2823 	clr	a
   127F 9B                 2824 	subb	a,r3
   1280 FD                 2825 	mov	r5,a
   1281 8C F0              2826 	mov	b,r4
   1283 05 F0              2827 	inc	b
   1285 E9                 2828 	mov	a,r1
   1286 80 02              2829 	sjmp	00126$
   1288                    2830 00125$:
   1288 C3                 2831 	clr	c
   1289 13                 2832 	rrc	a
   128A                    2833 00126$:
   128A D5 F0 FB           2834 	djnz	b,00125$
   128D 30 E0 27           2835 	jnb	acc.0,00107$
                           2836 ;	main.c:144: return 8*((SIZE-1)-i) + (7-j);
   1290 74 7F              2837 	mov	a,#0x7F
   1292 C3                 2838 	clr	c
   1293 9F                 2839 	subb	a,r7
   1294 FF                 2840 	mov	r7,a
   1295 E4                 2841 	clr	a
   1296 98                 2842 	subb	a,r0
   1297 C4                 2843 	swap	a
   1298 03                 2844 	rr	a
   1299 54 F8              2845 	anl	a,#0xf8
   129B CF                 2846 	xch	a,r7
   129C C4                 2847 	swap	a
   129D 03                 2848 	rr	a
   129E CF                 2849 	xch	a,r7
   129F 6F                 2850 	xrl	a,r7
   12A0 CF                 2851 	xch	a,r7
   12A1 54 F8              2852 	anl	a,#0xf8
   12A3 CF                 2853 	xch	a,r7
   12A4 6F                 2854 	xrl	a,r7
   12A5 F8                 2855 	mov	r0,a
   12A6 74 07              2856 	mov	a,#0x07
   12A8 C3                 2857 	clr	c
   12A9 9A                 2858 	subb	a,r2
   12AA FA                 2859 	mov	r2,a
   12AB E4                 2860 	clr	a
   12AC 9B                 2861 	subb	a,r3
   12AD FB                 2862 	mov	r3,a
   12AE EA                 2863 	mov	a,r2
   12AF 2F                 2864 	add	a,r7
   12B0 F5 82              2865 	mov	dpl,a
   12B2 EB                 2866 	mov	a,r3
   12B3 38                 2867 	addc	a,r0
   12B4 F5 83              2868 	mov	dph,a
   12B6 22                 2869 	ret
   12B7                    2870 00107$:
                           2871 ;	main.c:142: for (j = 0; j < 8; j++) {
   12B7 0E                 2872 	inc	r6
   12B8 02 12 50           2873 	ljmp	00105$
   12BB                    2874 00111$:
                           2875 ;	main.c:140: for (i = 0; i < SIZE; i++) {
   12BB 05 24              2876 	inc	__findFirstOne_i_1_1
   12BD 02 12 21           2877 	ljmp	00109$
   12C0                    2878 00112$:
                           2879 ;	main.c:149: return 0;
   12C0 90 00 00           2880 	mov	dptr,#0x0000
   12C3 22                 2881 	ret
                           2882 ;------------------------------------------------------------
                           2883 ;Allocation info for local variables in function '_mul1_writeAll'
                           2884 ;------------------------------------------------------------
                           2885 ;------------------------------------------------------------
                           2886 ;	main.c:152: void _mul1_writeAll() {
                           2887 ;	-----------------------------------------
                           2888 ;	 function _mul1_writeAll
                           2889 ;	-----------------------------------------
   12C4                    2890 __mul1_writeAll:
                           2891 ;	main.c:153: P1 = 0;
   12C4 75 90 00           2892 	mov	_P1,#0x00
                           2893 ;	main.c:155: P0 = INS_MUL1_WRITE_ALL;
   12C7 75 80 10           2894 	mov	_P0,#0x10
                           2895 ;	main.c:156: P0 = INS_IDLE;
   12CA 75 80 00           2896 	mov	_P0,#0x00
                           2897 ;	main.c:158: while (P1 == 0) {}
   12CD                    2898 00101$:
   12CD E5 90              2899 	mov	a,_P1
   12CF 60 FC              2900 	jz	00101$
                           2901 ;	main.c:159: P0 = INS_ACK;
   12D1 75 80 01           2902 	mov	_P0,#0x01
   12D4 22                 2903 	ret
                           2904 ;------------------------------------------------------------
                           2905 ;Allocation info for local variables in function '_mul1_writeOne'
                           2906 ;------------------------------------------------------------
                           2907 ;------------------------------------------------------------
                           2908 ;	main.c:162: void _mul1_writeOne() {
                           2909 ;	-----------------------------------------
                           2910 ;	 function _mul1_writeOne
                           2911 ;	-----------------------------------------
   12D5                    2912 __mul1_writeOne:
                           2913 ;	main.c:163: P1 = 0;
   12D5 75 90 00           2914 	mov	_P1,#0x00
                           2915 ;	main.c:165: P0 = INS_MUL1_WRITE_ONE;
   12D8 75 80 11           2916 	mov	_P0,#0x11
                           2917 ;	main.c:166: P0 = INS_IDLE;
   12DB 75 80 00           2918 	mov	_P0,#0x00
                           2919 ;	main.c:168: while (P1 == 0) {}
   12DE                    2920 00101$:
   12DE E5 90              2921 	mov	a,_P1
   12E0 60 FC              2922 	jz	00101$
                           2923 ;	main.c:169: P0 = INS_ACK;
   12E2 75 80 01           2924 	mov	_P0,#0x01
   12E5 22                 2925 	ret
                           2926 ;------------------------------------------------------------
                           2927 ;Allocation info for local variables in function '_mul1_writeReg'
                           2928 ;------------------------------------------------------------
                           2929 ;------------------------------------------------------------
                           2930 ;	main.c:172: void _mul1_writeReg() {
                           2931 ;	-----------------------------------------
                           2932 ;	 function _mul1_writeReg
                           2933 ;	-----------------------------------------
   12E6                    2934 __mul1_writeReg:
                           2935 ;	main.c:173: P0 = INS_MUL1_WRITE_REG;
   12E6 75 80 12           2936 	mov	_P0,#0x12
                           2937 ;	main.c:174: P0 = INS_IDLE;
   12E9 75 80 00           2938 	mov	_P0,#0x00
   12EC 22                 2939 	ret
                           2940 ;------------------------------------------------------------
                           2941 ;Allocation info for local variables in function '_mul1_readResult'
                           2942 ;------------------------------------------------------------
                           2943 ;------------------------------------------------------------
                           2944 ;	main.c:177: void _mul1_readResult() {
                           2945 ;	-----------------------------------------
                           2946 ;	 function _mul1_readResult
                           2947 ;	-----------------------------------------
   12ED                    2948 __mul1_readResult:
                           2949 ;	main.c:178: P1 = 0;
   12ED 75 90 00           2950 	mov	_P1,#0x00
                           2951 ;	main.c:180: P0 = INS_MUL1_READ_RESULT;
   12F0 75 80 13           2952 	mov	_P0,#0x13
                           2953 ;	main.c:181: while (P1 == 0) {}
   12F3                    2954 00101$:
   12F3 E5 90              2955 	mov	a,_P1
   12F5 60 FC              2956 	jz	00101$
                           2957 ;	main.c:182: P0 = INS_ACK;
   12F7 75 80 01           2958 	mov	_P0,#0x01
                           2959 ;	main.c:184: P0 = INS_IDLE;
   12FA 75 80 00           2960 	mov	_P0,#0x00
   12FD 22                 2961 	ret
                           2962 ;------------------------------------------------------------
                           2963 ;Allocation info for local variables in function '_mul1_writeResult'
                           2964 ;------------------------------------------------------------
                           2965 ;------------------------------------------------------------
                           2966 ;	main.c:187: void _mul1_writeResult() {
                           2967 ;	-----------------------------------------
                           2968 ;	 function _mul1_writeResult
                           2969 ;	-----------------------------------------
   12FE                    2970 __mul1_writeResult:
                           2971 ;	main.c:188: P1 = 0;
   12FE 75 90 00           2972 	mov	_P1,#0x00
                           2973 ;	main.c:190: P0 = INS_MUL1_WRITE_RESULT;
   1301 75 80 14           2974 	mov	_P0,#0x14
                           2975 ;	main.c:191: P0 = INS_IDLE;
   1304 75 80 00           2976 	mov	_P0,#0x00
                           2977 ;	main.c:193: while (P1 == 0) {}
   1307                    2978 00101$:
   1307 E5 90              2979 	mov	a,_P1
   1309 60 FC              2980 	jz	00101$
                           2981 ;	main.c:194: P0 = INS_ACK;
   130B 75 80 01           2982 	mov	_P0,#0x01
   130E 22                 2983 	ret
                           2984 ;------------------------------------------------------------
                           2985 ;Allocation info for local variables in function '_mul1_montgomery'
                           2986 ;------------------------------------------------------------
                           2987 ;------------------------------------------------------------
                           2988 ;	main.c:197: void _mul1_montgomery() {
                           2989 ;	-----------------------------------------
                           2990 ;	 function _mul1_montgomery
                           2991 ;	-----------------------------------------
   130F                    2992 __mul1_montgomery:
                           2993 ;	main.c:198: P0 = INS_MUL1_MONTGOMERY;
   130F 75 80 15           2994 	mov	_P0,#0x15
                           2995 ;	main.c:199: P0 = INS_IDLE;
   1312 75 80 00           2996 	mov	_P0,#0x00
   1315 22                 2997 	ret
                           2998 ;------------------------------------------------------------
                           2999 ;Allocation info for local variables in function '_terminate'
                           3000 ;------------------------------------------------------------
                           3001 ;------------------------------------------------------------
                           3002 ;	main.c:202: void _terminate() {
                           3003 ;	-----------------------------------------
                           3004 ;	 function _terminate
                           3005 ;	-----------------------------------------
   1316                    3006 __terminate:
                           3007 ;	main.c:203: P3 = 0x55;
   1316 75 B0 55           3008 	mov	_P3,#0x55
   1319 22                 3009 	ret
                           3010 	.area CSEG    (CODE)
                           3011 	.area CONST   (CODE)
                           3012 	.area XINIT   (CODE)
                           3013 	.area CABS    (ABS,CODE)
