                              1 ;--------------------------------------------------------
                              2 ; File Created by SDCC : free open source ANSI-C Compiler
                              3 ; Version 2.9.0 #5416 (Feb  3 2010) (UNIX)
                              4 ; This file was generated Sat Aug  3 02:25:29 2013
                              5 ;--------------------------------------------------------
                              6 	.module main
                              7 	.optsdcc -mmcs51 --model-small
                              8 	
                              9 ;--------------------------------------------------------
                             10 ; Public variables in this module
                             11 ;--------------------------------------------------------
                             12 	.globl _main
                             13 	.globl _CY
                             14 	.globl _AC
                             15 	.globl _F0
                             16 	.globl _RS1
                             17 	.globl _RS0
                             18 	.globl _OV
                             19 	.globl _F1
                             20 	.globl _P
                             21 	.globl _PS
                             22 	.globl _PT1
                             23 	.globl _PX1
                             24 	.globl _PT0
                             25 	.globl _PX0
                             26 	.globl _RD
                             27 	.globl _WR
                             28 	.globl _T1
                             29 	.globl _T0
                             30 	.globl _INT1
                             31 	.globl _INT0
                             32 	.globl _TXD
                             33 	.globl _RXD
                             34 	.globl _P3_7
                             35 	.globl _P3_6
                             36 	.globl _P3_5
                             37 	.globl _P3_4
                             38 	.globl _P3_3
                             39 	.globl _P3_2
                             40 	.globl _P3_1
                             41 	.globl _P3_0
                             42 	.globl _EA
                             43 	.globl _ES
                             44 	.globl _ET1
                             45 	.globl _EX1
                             46 	.globl _ET0
                             47 	.globl _EX0
                             48 	.globl _P2_7
                             49 	.globl _P2_6
                             50 	.globl _P2_5
                             51 	.globl _P2_4
                             52 	.globl _P2_3
                             53 	.globl _P2_2
                             54 	.globl _P2_1
                             55 	.globl _P2_0
                             56 	.globl _SM0
                             57 	.globl _SM1
                             58 	.globl _SM2
                             59 	.globl _REN
                             60 	.globl _TB8
                             61 	.globl _RB8
                             62 	.globl _TI
                             63 	.globl _RI
                             64 	.globl _P1_7
                             65 	.globl _P1_6
                             66 	.globl _P1_5
                             67 	.globl _P1_4
                             68 	.globl _P1_3
                             69 	.globl _P1_2
                             70 	.globl _P1_1
                             71 	.globl _P1_0
                             72 	.globl _TF1
                             73 	.globl _TR1
                             74 	.globl _TF0
                             75 	.globl _TR0
                             76 	.globl _IE1
                             77 	.globl _IT1
                             78 	.globl _IE0
                             79 	.globl _IT0
                             80 	.globl _P0_7
                             81 	.globl _P0_6
                             82 	.globl _P0_5
                             83 	.globl _P0_4
                             84 	.globl _P0_3
                             85 	.globl _P0_2
                             86 	.globl _P0_1
                             87 	.globl _P0_0
                             88 	.globl _B
                             89 	.globl _ACC
                             90 	.globl _PSW
                             91 	.globl _IP
                             92 	.globl _P3
                             93 	.globl _IE
                             94 	.globl _P2
                             95 	.globl _SBUF
                             96 	.globl _SCON
                             97 	.globl _P1
                             98 	.globl _TH1
                             99 	.globl _TH0
                            100 	.globl _TL1
                            101 	.globl _TL0
                            102 	.globl _TMOD
                            103 	.globl _TCON
                            104 	.globl _PCON
                            105 	.globl _DPH
                            106 	.globl _DPL
                            107 	.globl _SP
                            108 	.globl _P0
                            109 	.globl _r2modm
                            110 	.globl _rmodm
                            111 	.globl _privateKey
                            112 	.globl _publicKey
                            113 	.globl _message
                            114 	.globl _modulus
                            115 	.globl _decryptedMessage
                            116 	.globl _encryptedMessage
                            117 	.globl _montModExp_PARM_6
                            118 	.globl _montModExp_PARM_5
                            119 	.globl _montModExp_PARM_4
                            120 	.globl _montModExp_PARM_3
                            121 	.globl _montModExp_PARM_2
                            122 	.globl _montModExp
                            123 ;--------------------------------------------------------
                            124 ; special function registers
                            125 ;--------------------------------------------------------
                            126 	.area RSEG    (DATA)
                    0080    127 _P0	=	0x0080
                    0081    128 _SP	=	0x0081
                    0082    129 _DPL	=	0x0082
                    0083    130 _DPH	=	0x0083
                    0087    131 _PCON	=	0x0087
                    0088    132 _TCON	=	0x0088
                    0089    133 _TMOD	=	0x0089
                    008A    134 _TL0	=	0x008a
                    008B    135 _TL1	=	0x008b
                    008C    136 _TH0	=	0x008c
                    008D    137 _TH1	=	0x008d
                    0090    138 _P1	=	0x0090
                    0098    139 _SCON	=	0x0098
                    0099    140 _SBUF	=	0x0099
                    00A0    141 _P2	=	0x00a0
                    00A8    142 _IE	=	0x00a8
                    00B0    143 _P3	=	0x00b0
                    00B8    144 _IP	=	0x00b8
                    00D0    145 _PSW	=	0x00d0
                    00E0    146 _ACC	=	0x00e0
                    00F0    147 _B	=	0x00f0
                            148 ;--------------------------------------------------------
                            149 ; special function bits
                            150 ;--------------------------------------------------------
                            151 	.area RSEG    (DATA)
                    0080    152 _P0_0	=	0x0080
                    0081    153 _P0_1	=	0x0081
                    0082    154 _P0_2	=	0x0082
                    0083    155 _P0_3	=	0x0083
                    0084    156 _P0_4	=	0x0084
                    0085    157 _P0_5	=	0x0085
                    0086    158 _P0_6	=	0x0086
                    0087    159 _P0_7	=	0x0087
                    0088    160 _IT0	=	0x0088
                    0089    161 _IE0	=	0x0089
                    008A    162 _IT1	=	0x008a
                    008B    163 _IE1	=	0x008b
                    008C    164 _TR0	=	0x008c
                    008D    165 _TF0	=	0x008d
                    008E    166 _TR1	=	0x008e
                    008F    167 _TF1	=	0x008f
                    0090    168 _P1_0	=	0x0090
                    0091    169 _P1_1	=	0x0091
                    0092    170 _P1_2	=	0x0092
                    0093    171 _P1_3	=	0x0093
                    0094    172 _P1_4	=	0x0094
                    0095    173 _P1_5	=	0x0095
                    0096    174 _P1_6	=	0x0096
                    0097    175 _P1_7	=	0x0097
                    0098    176 _RI	=	0x0098
                    0099    177 _TI	=	0x0099
                    009A    178 _RB8	=	0x009a
                    009B    179 _TB8	=	0x009b
                    009C    180 _REN	=	0x009c
                    009D    181 _SM2	=	0x009d
                    009E    182 _SM1	=	0x009e
                    009F    183 _SM0	=	0x009f
                    00A0    184 _P2_0	=	0x00a0
                    00A1    185 _P2_1	=	0x00a1
                    00A2    186 _P2_2	=	0x00a2
                    00A3    187 _P2_3	=	0x00a3
                    00A4    188 _P2_4	=	0x00a4
                    00A5    189 _P2_5	=	0x00a5
                    00A6    190 _P2_6	=	0x00a6
                    00A7    191 _P2_7	=	0x00a7
                    00A8    192 _EX0	=	0x00a8
                    00A9    193 _ET0	=	0x00a9
                    00AA    194 _EX1	=	0x00aa
                    00AB    195 _ET1	=	0x00ab
                    00AC    196 _ES	=	0x00ac
                    00AF    197 _EA	=	0x00af
                    00B0    198 _P3_0	=	0x00b0
                    00B1    199 _P3_1	=	0x00b1
                    00B2    200 _P3_2	=	0x00b2
                    00B3    201 _P3_3	=	0x00b3
                    00B4    202 _P3_4	=	0x00b4
                    00B5    203 _P3_5	=	0x00b5
                    00B6    204 _P3_6	=	0x00b6
                    00B7    205 _P3_7	=	0x00b7
                    00B0    206 _RXD	=	0x00b0
                    00B1    207 _TXD	=	0x00b1
                    00B2    208 _INT0	=	0x00b2
                    00B3    209 _INT1	=	0x00b3
                    00B4    210 _T0	=	0x00b4
                    00B5    211 _T1	=	0x00b5
                    00B6    212 _WR	=	0x00b6
                    00B7    213 _RD	=	0x00b7
                    00B8    214 _PX0	=	0x00b8
                    00B9    215 _PT0	=	0x00b9
                    00BA    216 _PX1	=	0x00ba
                    00BB    217 _PT1	=	0x00bb
                    00BC    218 _PS	=	0x00bc
                    00D0    219 _P	=	0x00d0
                    00D1    220 _F1	=	0x00d1
                    00D2    221 _OV	=	0x00d2
                    00D3    222 _RS0	=	0x00d3
                    00D4    223 _RS1	=	0x00d4
                    00D5    224 _F0	=	0x00d5
                    00D6    225 _AC	=	0x00d6
                    00D7    226 _CY	=	0x00d7
                            227 ;--------------------------------------------------------
                            228 ; overlayable register banks
                            229 ;--------------------------------------------------------
                            230 	.area REG_BANK_0	(REL,OVR,DATA)
   0000                     231 	.ds 8
                            232 ;--------------------------------------------------------
                            233 ; internal ram data
                            234 ;--------------------------------------------------------
                            235 	.area DSEG    (DATA)
   0000                     236 _montModExp_PARM_2:
   0000                     237 	.ds 1
   0001                     238 _montModExp_PARM_3:
   0001                     239 	.ds 3
   0004                     240 _montModExp_PARM_4:
   0004                     241 	.ds 1
   0005                     242 _montModExp_PARM_5:
   0005                     243 	.ds 1
   0006                     244 _montModExp_PARM_6:
   0006                     245 	.ds 1
   0007                     246 _montModExp_r_1_1:
   0007                     247 	.ds 1
   0008                     248 _montModExp_i_1_1:
   0008                     249 	.ds 1
   0009                     250 _montModExp_t_1_1:
   0009                     251 	.ds 2
                            252 ;--------------------------------------------------------
                            253 ; overlayable items in internal ram 
                            254 ;--------------------------------------------------------
                            255 	.area	OSEG    (OVR,DATA)
                            256 	.area	OSEG    (OVR,DATA)
                            257 	.area	OSEG    (OVR,DATA)
                            258 	.area	OSEG    (OVR,DATA)
                            259 	.area	OSEG    (OVR,DATA)
                            260 ;--------------------------------------------------------
                            261 ; Stack segment in internal ram 
                            262 ;--------------------------------------------------------
                            263 	.area	SSEG	(DATA)
   0000                     264 __start__stack:
   0000                     265 	.ds	1
                            266 
                            267 ;--------------------------------------------------------
                            268 ; indirectly addressable internal ram data
                            269 ;--------------------------------------------------------
                            270 	.area ISEG    (DATA)
                            271 ;--------------------------------------------------------
                            272 ; absolute internal ram data
                            273 ;--------------------------------------------------------
                            274 	.area IABS    (ABS,DATA)
                            275 	.area IABS    (ABS,DATA)
                            276 ;--------------------------------------------------------
                            277 ; bit data
                            278 ;--------------------------------------------------------
                            279 	.area BSEG    (BIT)
                            280 ;--------------------------------------------------------
                            281 ; paged external ram data
                            282 ;--------------------------------------------------------
                            283 	.area PSEG    (PAG,XDATA)
                            284 ;--------------------------------------------------------
                            285 ; external ram data
                            286 ;--------------------------------------------------------
                            287 	.area XSEG    (XDATA)
                    2000    288 _encryptedMessage	=	0x2000
                    2100    289 _decryptedMessage	=	0x2100
                    0000    290 _montModExp_one_1_1	=	0x0000
                            291 ;--------------------------------------------------------
                            292 ; absolute external ram data
                            293 ;--------------------------------------------------------
                            294 	.area XABS    (ABS,XDATA)
   1000                     295 	.org 0x1000
   1000                     296 _modulus::
   1000                     297 	.ds 128
   1100                     298 	.org 0x1100
   1100                     299 _message::
   1100                     300 	.ds 128
   1200                     301 	.org 0x1200
   1200                     302 _publicKey::
   1200                     303 	.ds 128
   1300                     304 	.org 0x1300
   1300                     305 _privateKey::
   1300                     306 	.ds 128
   1400                     307 	.org 0x1400
   1400                     308 _rmodm::
   1400                     309 	.ds 128
   1500                     310 	.org 0x1500
   1500                     311 _r2modm::
   1500                     312 	.ds 128
                            313 ;--------------------------------------------------------
                            314 ; external initialized ram data
                            315 ;--------------------------------------------------------
                            316 	.area XISEG   (XDATA)
                            317 	.area HOME    (CODE)
                            318 	.area GSINIT0 (CODE)
                            319 	.area GSINIT1 (CODE)
                            320 	.area GSINIT2 (CODE)
                            321 	.area GSINIT3 (CODE)
                            322 	.area GSINIT4 (CODE)
                            323 	.area GSINIT5 (CODE)
                            324 	.area GSINIT  (CODE)
                            325 	.area GSFINAL (CODE)
                            326 	.area CSEG    (CODE)
                            327 ;--------------------------------------------------------
                            328 ; interrupt vector 
                            329 ;--------------------------------------------------------
                            330 	.area HOME    (CODE)
   0000                     331 __interrupt_vect:
   0000 02s00r00            332 	ljmp	__sdcc_gsinit_startup
                            333 ;--------------------------------------------------------
                            334 ; global & static initialisations
                            335 ;--------------------------------------------------------
                            336 	.area HOME    (CODE)
                            337 	.area GSINIT  (CODE)
                            338 	.area GSFINAL (CODE)
                            339 	.area GSINIT  (CODE)
                            340 	.globl __sdcc_gsinit_startup
                            341 	.globl __sdcc_program_startup
                            342 	.globl __start__stack
                            343 	.globl __mcs51_genXINIT
                            344 	.globl __mcs51_genXRAMCLEAR
                            345 	.globl __mcs51_genRAMCLEAR
                            346 ;	main.c:23: volatile __xdata __at (0x1000) unsigned char modulus[SIZE] = {0x6B, 0xF3, 0x61, 0x86, 0x13, 0x2C, 0xF5, 0x1B, 0xCA, 0x94, 0x9F, 0x12, 0xDA, 0xDA, 0xCC, 0x26, 0xD9, 0x73, 0x2E, 0x66, 0x11, 0x63, 0xEE, 0x72, 0x43, 0x40, 0x97, 0x55, 0x4C, 0x06, 0x20, 0x23, 0x7F, 0x47, 0xD7, 0x9F, 0xD4, 0xDE, 0xFC, 0x76, 0x10, 0xD3, 0x19, 0x6C, 0x90, 0x44, 0x58, 0xA9, 0xD7, 0x4A, 0x66, 0x28, 0x96, 0x24, 0x94, 0xF6, 0x08, 0xF4, 0x7B, 0x1A, 0x4D, 0x07, 0x86, 0x3B, 0x2A, 0x84, 0xF9, 0xBA, 0x4A, 0xDD, 0x3D, 0xD7, 0x07, 0x85, 0xC6, 0x67, 0x18, 0x5B, 0xAB, 0xBA, 0x5D, 0xF2, 0x35, 0x4E, 0xC4, 0x61, 0xA6, 0x06, 0x04, 0x55, 0xCF, 0x68, 0x92, 0x64, 0xDB, 0x90, 0x8B, 0xCF, 0x58, 0x50, 0x00, 0x7B, 0xD3, 0xB6, 0xE4, 0xCF, 0x60, 0x4A, 0x69, 0xC2, 0x70, 0x3D, 0x0F, 0xC4, 0x03, 0x2B, 0x4D, 0x87, 0xFA, 0x2C, 0x34, 0x7F, 0x77, 0x7A, 0x6A, 0x85, 0x48, 0x9B};
   0000 90s10r00            347 	mov	dptr,#_modulus
   0003 74 6B               348 	mov	a,#0x6B
   0005 F0                  349 	movx	@dptr,a
   0006 90s10r01            350 	mov	dptr,#(_modulus + 0x0001)
   0009 74 F3               351 	mov	a,#0xF3
   000B F0                  352 	movx	@dptr,a
   000C 90s10r02            353 	mov	dptr,#(_modulus + 0x0002)
   000F 74 61               354 	mov	a,#0x61
   0011 F0                  355 	movx	@dptr,a
   0012 90s10r03            356 	mov	dptr,#(_modulus + 0x0003)
   0015 74 86               357 	mov	a,#0x86
   0017 F0                  358 	movx	@dptr,a
   0018 90s10r04            359 	mov	dptr,#(_modulus + 0x0004)
   001B 74 13               360 	mov	a,#0x13
   001D F0                  361 	movx	@dptr,a
   001E 90s10r05            362 	mov	dptr,#(_modulus + 0x0005)
   0021 74 2C               363 	mov	a,#0x2C
   0023 F0                  364 	movx	@dptr,a
   0024 90s10r06            365 	mov	dptr,#(_modulus + 0x0006)
   0027 74 F5               366 	mov	a,#0xF5
   0029 F0                  367 	movx	@dptr,a
   002A 90s10r07            368 	mov	dptr,#(_modulus + 0x0007)
   002D 74 1B               369 	mov	a,#0x1B
   002F F0                  370 	movx	@dptr,a
   0030 90s10r08            371 	mov	dptr,#(_modulus + 0x0008)
   0033 74 CA               372 	mov	a,#0xCA
   0035 F0                  373 	movx	@dptr,a
   0036 90s10r09            374 	mov	dptr,#(_modulus + 0x0009)
   0039 74 94               375 	mov	a,#0x94
   003B F0                  376 	movx	@dptr,a
   003C 90s10r0A            377 	mov	dptr,#(_modulus + 0x000a)
   003F 74 9F               378 	mov	a,#0x9F
   0041 F0                  379 	movx	@dptr,a
   0042 90s10r0B            380 	mov	dptr,#(_modulus + 0x000b)
   0045 74 12               381 	mov	a,#0x12
   0047 F0                  382 	movx	@dptr,a
   0048 90s10r0C            383 	mov	dptr,#(_modulus + 0x000c)
   004B 74 DA               384 	mov	a,#0xDA
   004D F0                  385 	movx	@dptr,a
   004E 90s10r0D            386 	mov	dptr,#(_modulus + 0x000d)
   0051 74 DA               387 	mov	a,#0xDA
   0053 F0                  388 	movx	@dptr,a
   0054 90s10r0E            389 	mov	dptr,#(_modulus + 0x000e)
   0057 74 CC               390 	mov	a,#0xCC
   0059 F0                  391 	movx	@dptr,a
   005A 90s10r0F            392 	mov	dptr,#(_modulus + 0x000f)
   005D 74 26               393 	mov	a,#0x26
   005F F0                  394 	movx	@dptr,a
   0060 90s10r10            395 	mov	dptr,#(_modulus + 0x0010)
   0063 74 D9               396 	mov	a,#0xD9
   0065 F0                  397 	movx	@dptr,a
   0066 90s10r11            398 	mov	dptr,#(_modulus + 0x0011)
   0069 74 73               399 	mov	a,#0x73
   006B F0                  400 	movx	@dptr,a
   006C 90s10r12            401 	mov	dptr,#(_modulus + 0x0012)
   006F 74 2E               402 	mov	a,#0x2E
   0071 F0                  403 	movx	@dptr,a
   0072 90s10r13            404 	mov	dptr,#(_modulus + 0x0013)
   0075 74 66               405 	mov	a,#0x66
   0077 F0                  406 	movx	@dptr,a
   0078 90s10r14            407 	mov	dptr,#(_modulus + 0x0014)
   007B 74 11               408 	mov	a,#0x11
   007D F0                  409 	movx	@dptr,a
   007E 90s10r15            410 	mov	dptr,#(_modulus + 0x0015)
   0081 74 63               411 	mov	a,#0x63
   0083 F0                  412 	movx	@dptr,a
   0084 90s10r16            413 	mov	dptr,#(_modulus + 0x0016)
   0087 74 EE               414 	mov	a,#0xEE
   0089 F0                  415 	movx	@dptr,a
   008A 90s10r17            416 	mov	dptr,#(_modulus + 0x0017)
   008D 74 72               417 	mov	a,#0x72
   008F F0                  418 	movx	@dptr,a
   0090 90s10r18            419 	mov	dptr,#(_modulus + 0x0018)
   0093 74 43               420 	mov	a,#0x43
   0095 F0                  421 	movx	@dptr,a
   0096 90s10r19            422 	mov	dptr,#(_modulus + 0x0019)
   0099 74 40               423 	mov	a,#0x40
   009B F0                  424 	movx	@dptr,a
   009C 90s10r1A            425 	mov	dptr,#(_modulus + 0x001a)
   009F 74 97               426 	mov	a,#0x97
   00A1 F0                  427 	movx	@dptr,a
   00A2 90s10r1B            428 	mov	dptr,#(_modulus + 0x001b)
   00A5 74 55               429 	mov	a,#0x55
   00A7 F0                  430 	movx	@dptr,a
   00A8 90s10r1C            431 	mov	dptr,#(_modulus + 0x001c)
   00AB 74 4C               432 	mov	a,#0x4C
   00AD F0                  433 	movx	@dptr,a
   00AE 90s10r1D            434 	mov	dptr,#(_modulus + 0x001d)
   00B1 74 06               435 	mov	a,#0x06
   00B3 F0                  436 	movx	@dptr,a
   00B4 90s10r1E            437 	mov	dptr,#(_modulus + 0x001e)
   00B7 74 20               438 	mov	a,#0x20
   00B9 F0                  439 	movx	@dptr,a
   00BA 90s10r1F            440 	mov	dptr,#(_modulus + 0x001f)
   00BD 74 23               441 	mov	a,#0x23
   00BF F0                  442 	movx	@dptr,a
   00C0 90s10r20            443 	mov	dptr,#(_modulus + 0x0020)
   00C3 74 7F               444 	mov	a,#0x7F
   00C5 F0                  445 	movx	@dptr,a
   00C6 90s10r21            446 	mov	dptr,#(_modulus + 0x0021)
   00C9 74 47               447 	mov	a,#0x47
   00CB F0                  448 	movx	@dptr,a
   00CC 90s10r22            449 	mov	dptr,#(_modulus + 0x0022)
   00CF 74 D7               450 	mov	a,#0xD7
   00D1 F0                  451 	movx	@dptr,a
   00D2 90s10r23            452 	mov	dptr,#(_modulus + 0x0023)
   00D5 74 9F               453 	mov	a,#0x9F
   00D7 F0                  454 	movx	@dptr,a
   00D8 90s10r24            455 	mov	dptr,#(_modulus + 0x0024)
   00DB 74 D4               456 	mov	a,#0xD4
   00DD F0                  457 	movx	@dptr,a
   00DE 90s10r25            458 	mov	dptr,#(_modulus + 0x0025)
   00E1 74 DE               459 	mov	a,#0xDE
   00E3 F0                  460 	movx	@dptr,a
   00E4 90s10r26            461 	mov	dptr,#(_modulus + 0x0026)
   00E7 74 FC               462 	mov	a,#0xFC
   00E9 F0                  463 	movx	@dptr,a
   00EA 90s10r27            464 	mov	dptr,#(_modulus + 0x0027)
   00ED 74 76               465 	mov	a,#0x76
   00EF F0                  466 	movx	@dptr,a
   00F0 90s10r28            467 	mov	dptr,#(_modulus + 0x0028)
   00F3 74 10               468 	mov	a,#0x10
   00F5 F0                  469 	movx	@dptr,a
   00F6 90s10r29            470 	mov	dptr,#(_modulus + 0x0029)
   00F9 74 D3               471 	mov	a,#0xD3
   00FB F0                  472 	movx	@dptr,a
   00FC 90s10r2A            473 	mov	dptr,#(_modulus + 0x002a)
   00FF 74 19               474 	mov	a,#0x19
   0101 F0                  475 	movx	@dptr,a
   0102 90s10r2B            476 	mov	dptr,#(_modulus + 0x002b)
   0105 74 6C               477 	mov	a,#0x6C
   0107 F0                  478 	movx	@dptr,a
   0108 90s10r2C            479 	mov	dptr,#(_modulus + 0x002c)
   010B 74 90               480 	mov	a,#0x90
   010D F0                  481 	movx	@dptr,a
   010E 90s10r2D            482 	mov	dptr,#(_modulus + 0x002d)
   0111 74 44               483 	mov	a,#0x44
   0113 F0                  484 	movx	@dptr,a
   0114 90s10r2E            485 	mov	dptr,#(_modulus + 0x002e)
   0117 74 58               486 	mov	a,#0x58
   0119 F0                  487 	movx	@dptr,a
   011A 90s10r2F            488 	mov	dptr,#(_modulus + 0x002f)
   011D 74 A9               489 	mov	a,#0xA9
   011F F0                  490 	movx	@dptr,a
   0120 90s10r30            491 	mov	dptr,#(_modulus + 0x0030)
   0123 74 D7               492 	mov	a,#0xD7
   0125 F0                  493 	movx	@dptr,a
   0126 90s10r31            494 	mov	dptr,#(_modulus + 0x0031)
   0129 74 4A               495 	mov	a,#0x4A
   012B F0                  496 	movx	@dptr,a
   012C 90s10r32            497 	mov	dptr,#(_modulus + 0x0032)
   012F 74 66               498 	mov	a,#0x66
   0131 F0                  499 	movx	@dptr,a
   0132 90s10r33            500 	mov	dptr,#(_modulus + 0x0033)
   0135 74 28               501 	mov	a,#0x28
   0137 F0                  502 	movx	@dptr,a
   0138 90s10r34            503 	mov	dptr,#(_modulus + 0x0034)
   013B 74 96               504 	mov	a,#0x96
   013D F0                  505 	movx	@dptr,a
   013E 90s10r35            506 	mov	dptr,#(_modulus + 0x0035)
   0141 74 24               507 	mov	a,#0x24
   0143 F0                  508 	movx	@dptr,a
   0144 90s10r36            509 	mov	dptr,#(_modulus + 0x0036)
   0147 74 94               510 	mov	a,#0x94
   0149 F0                  511 	movx	@dptr,a
   014A 90s10r37            512 	mov	dptr,#(_modulus + 0x0037)
   014D 74 F6               513 	mov	a,#0xF6
   014F F0                  514 	movx	@dptr,a
   0150 90s10r38            515 	mov	dptr,#(_modulus + 0x0038)
   0153 74 08               516 	mov	a,#0x08
   0155 F0                  517 	movx	@dptr,a
   0156 90s10r39            518 	mov	dptr,#(_modulus + 0x0039)
   0159 74 F4               519 	mov	a,#0xF4
   015B F0                  520 	movx	@dptr,a
   015C 90s10r3A            521 	mov	dptr,#(_modulus + 0x003a)
   015F 74 7B               522 	mov	a,#0x7B
   0161 F0                  523 	movx	@dptr,a
   0162 90s10r3B            524 	mov	dptr,#(_modulus + 0x003b)
   0165 74 1A               525 	mov	a,#0x1A
   0167 F0                  526 	movx	@dptr,a
   0168 90s10r3C            527 	mov	dptr,#(_modulus + 0x003c)
   016B 74 4D               528 	mov	a,#0x4D
   016D F0                  529 	movx	@dptr,a
   016E 90s10r3D            530 	mov	dptr,#(_modulus + 0x003d)
   0171 74 07               531 	mov	a,#0x07
   0173 F0                  532 	movx	@dptr,a
   0174 90s10r3E            533 	mov	dptr,#(_modulus + 0x003e)
   0177 74 86               534 	mov	a,#0x86
   0179 F0                  535 	movx	@dptr,a
   017A 90s10r3F            536 	mov	dptr,#(_modulus + 0x003f)
   017D 74 3B               537 	mov	a,#0x3B
   017F F0                  538 	movx	@dptr,a
   0180 90s10r40            539 	mov	dptr,#(_modulus + 0x0040)
   0183 74 2A               540 	mov	a,#0x2A
   0185 F0                  541 	movx	@dptr,a
   0186 90s10r41            542 	mov	dptr,#(_modulus + 0x0041)
   0189 74 84               543 	mov	a,#0x84
   018B F0                  544 	movx	@dptr,a
   018C 90s10r42            545 	mov	dptr,#(_modulus + 0x0042)
   018F 74 F9               546 	mov	a,#0xF9
   0191 F0                  547 	movx	@dptr,a
   0192 90s10r43            548 	mov	dptr,#(_modulus + 0x0043)
   0195 74 BA               549 	mov	a,#0xBA
   0197 F0                  550 	movx	@dptr,a
   0198 90s10r44            551 	mov	dptr,#(_modulus + 0x0044)
   019B 74 4A               552 	mov	a,#0x4A
   019D F0                  553 	movx	@dptr,a
   019E 90s10r45            554 	mov	dptr,#(_modulus + 0x0045)
   01A1 74 DD               555 	mov	a,#0xDD
   01A3 F0                  556 	movx	@dptr,a
   01A4 90s10r46            557 	mov	dptr,#(_modulus + 0x0046)
   01A7 74 3D               558 	mov	a,#0x3D
   01A9 F0                  559 	movx	@dptr,a
   01AA 90s10r47            560 	mov	dptr,#(_modulus + 0x0047)
   01AD 74 D7               561 	mov	a,#0xD7
   01AF F0                  562 	movx	@dptr,a
   01B0 90s10r48            563 	mov	dptr,#(_modulus + 0x0048)
   01B3 74 07               564 	mov	a,#0x07
   01B5 F0                  565 	movx	@dptr,a
   01B6 90s10r49            566 	mov	dptr,#(_modulus + 0x0049)
   01B9 74 85               567 	mov	a,#0x85
   01BB F0                  568 	movx	@dptr,a
   01BC 90s10r4A            569 	mov	dptr,#(_modulus + 0x004a)
   01BF 74 C6               570 	mov	a,#0xC6
   01C1 F0                  571 	movx	@dptr,a
   01C2 90s10r4B            572 	mov	dptr,#(_modulus + 0x004b)
   01C5 74 67               573 	mov	a,#0x67
   01C7 F0                  574 	movx	@dptr,a
   01C8 90s10r4C            575 	mov	dptr,#(_modulus + 0x004c)
   01CB 74 18               576 	mov	a,#0x18
   01CD F0                  577 	movx	@dptr,a
   01CE 90s10r4D            578 	mov	dptr,#(_modulus + 0x004d)
   01D1 74 5B               579 	mov	a,#0x5B
   01D3 F0                  580 	movx	@dptr,a
   01D4 90s10r4E            581 	mov	dptr,#(_modulus + 0x004e)
   01D7 74 AB               582 	mov	a,#0xAB
   01D9 F0                  583 	movx	@dptr,a
   01DA 90s10r4F            584 	mov	dptr,#(_modulus + 0x004f)
   01DD 74 BA               585 	mov	a,#0xBA
   01DF F0                  586 	movx	@dptr,a
   01E0 90s10r50            587 	mov	dptr,#(_modulus + 0x0050)
   01E3 74 5D               588 	mov	a,#0x5D
   01E5 F0                  589 	movx	@dptr,a
   01E6 90s10r51            590 	mov	dptr,#(_modulus + 0x0051)
   01E9 74 F2               591 	mov	a,#0xF2
   01EB F0                  592 	movx	@dptr,a
   01EC 90s10r52            593 	mov	dptr,#(_modulus + 0x0052)
   01EF 74 35               594 	mov	a,#0x35
   01F1 F0                  595 	movx	@dptr,a
   01F2 90s10r53            596 	mov	dptr,#(_modulus + 0x0053)
   01F5 74 4E               597 	mov	a,#0x4E
   01F7 F0                  598 	movx	@dptr,a
   01F8 90s10r54            599 	mov	dptr,#(_modulus + 0x0054)
   01FB 74 C4               600 	mov	a,#0xC4
   01FD F0                  601 	movx	@dptr,a
   01FE 90s10r55            602 	mov	dptr,#(_modulus + 0x0055)
   0201 74 61               603 	mov	a,#0x61
   0203 F0                  604 	movx	@dptr,a
   0204 90s10r56            605 	mov	dptr,#(_modulus + 0x0056)
   0207 74 A6               606 	mov	a,#0xA6
   0209 F0                  607 	movx	@dptr,a
   020A 90s10r57            608 	mov	dptr,#(_modulus + 0x0057)
   020D 74 06               609 	mov	a,#0x06
   020F F0                  610 	movx	@dptr,a
   0210 90s10r58            611 	mov	dptr,#(_modulus + 0x0058)
   0213 74 04               612 	mov	a,#0x04
   0215 F0                  613 	movx	@dptr,a
   0216 90s10r59            614 	mov	dptr,#(_modulus + 0x0059)
   0219 74 55               615 	mov	a,#0x55
   021B F0                  616 	movx	@dptr,a
   021C 90s10r5A            617 	mov	dptr,#(_modulus + 0x005a)
   021F 74 CF               618 	mov	a,#0xCF
   0221 F0                  619 	movx	@dptr,a
   0222 90s10r5B            620 	mov	dptr,#(_modulus + 0x005b)
   0225 74 68               621 	mov	a,#0x68
   0227 F0                  622 	movx	@dptr,a
   0228 90s10r5C            623 	mov	dptr,#(_modulus + 0x005c)
   022B 74 92               624 	mov	a,#0x92
   022D F0                  625 	movx	@dptr,a
   022E 90s10r5D            626 	mov	dptr,#(_modulus + 0x005d)
   0231 74 64               627 	mov	a,#0x64
   0233 F0                  628 	movx	@dptr,a
   0234 90s10r5E            629 	mov	dptr,#(_modulus + 0x005e)
   0237 74 DB               630 	mov	a,#0xDB
   0239 F0                  631 	movx	@dptr,a
   023A 90s10r5F            632 	mov	dptr,#(_modulus + 0x005f)
   023D 74 90               633 	mov	a,#0x90
   023F F0                  634 	movx	@dptr,a
   0240 90s10r60            635 	mov	dptr,#(_modulus + 0x0060)
   0243 74 8B               636 	mov	a,#0x8B
   0245 F0                  637 	movx	@dptr,a
   0246 90s10r61            638 	mov	dptr,#(_modulus + 0x0061)
   0249 74 CF               639 	mov	a,#0xCF
   024B F0                  640 	movx	@dptr,a
   024C 90s10r62            641 	mov	dptr,#(_modulus + 0x0062)
   024F 74 58               642 	mov	a,#0x58
   0251 F0                  643 	movx	@dptr,a
   0252 90s10r63            644 	mov	dptr,#(_modulus + 0x0063)
   0255 74 50               645 	mov	a,#0x50
   0257 F0                  646 	movx	@dptr,a
   0258 90s10r64            647 	mov	dptr,#(_modulus + 0x0064)
   025B E4                  648 	clr	a
   025C F0                  649 	movx	@dptr,a
   025D 90s10r65            650 	mov	dptr,#(_modulus + 0x0065)
   0260 74 7B               651 	mov	a,#0x7B
   0262 F0                  652 	movx	@dptr,a
   0263 90s10r66            653 	mov	dptr,#(_modulus + 0x0066)
   0266 74 D3               654 	mov	a,#0xD3
   0268 F0                  655 	movx	@dptr,a
   0269 90s10r67            656 	mov	dptr,#(_modulus + 0x0067)
   026C 74 B6               657 	mov	a,#0xB6
   026E F0                  658 	movx	@dptr,a
   026F 90s10r68            659 	mov	dptr,#(_modulus + 0x0068)
   0272 74 E4               660 	mov	a,#0xE4
   0274 F0                  661 	movx	@dptr,a
   0275 90s10r69            662 	mov	dptr,#(_modulus + 0x0069)
   0278 74 CF               663 	mov	a,#0xCF
   027A F0                  664 	movx	@dptr,a
   027B 90s10r6A            665 	mov	dptr,#(_modulus + 0x006a)
   027E 74 60               666 	mov	a,#0x60
   0280 F0                  667 	movx	@dptr,a
   0281 90s10r6B            668 	mov	dptr,#(_modulus + 0x006b)
   0284 74 4A               669 	mov	a,#0x4A
   0286 F0                  670 	movx	@dptr,a
   0287 90s10r6C            671 	mov	dptr,#(_modulus + 0x006c)
   028A 74 69               672 	mov	a,#0x69
   028C F0                  673 	movx	@dptr,a
   028D 90s10r6D            674 	mov	dptr,#(_modulus + 0x006d)
   0290 74 C2               675 	mov	a,#0xC2
   0292 F0                  676 	movx	@dptr,a
   0293 90s10r6E            677 	mov	dptr,#(_modulus + 0x006e)
   0296 74 70               678 	mov	a,#0x70
   0298 F0                  679 	movx	@dptr,a
   0299 90s10r6F            680 	mov	dptr,#(_modulus + 0x006f)
   029C 74 3D               681 	mov	a,#0x3D
   029E F0                  682 	movx	@dptr,a
   029F 90s10r70            683 	mov	dptr,#(_modulus + 0x0070)
   02A2 74 0F               684 	mov	a,#0x0F
   02A4 F0                  685 	movx	@dptr,a
   02A5 90s10r71            686 	mov	dptr,#(_modulus + 0x0071)
   02A8 74 C4               687 	mov	a,#0xC4
   02AA F0                  688 	movx	@dptr,a
   02AB 90s10r72            689 	mov	dptr,#(_modulus + 0x0072)
   02AE 74 03               690 	mov	a,#0x03
   02B0 F0                  691 	movx	@dptr,a
   02B1 90s10r73            692 	mov	dptr,#(_modulus + 0x0073)
   02B4 74 2B               693 	mov	a,#0x2B
   02B6 F0                  694 	movx	@dptr,a
   02B7 90s10r74            695 	mov	dptr,#(_modulus + 0x0074)
   02BA 74 4D               696 	mov	a,#0x4D
   02BC F0                  697 	movx	@dptr,a
   02BD 90s10r75            698 	mov	dptr,#(_modulus + 0x0075)
   02C0 74 87               699 	mov	a,#0x87
   02C2 F0                  700 	movx	@dptr,a
   02C3 90s10r76            701 	mov	dptr,#(_modulus + 0x0076)
   02C6 74 FA               702 	mov	a,#0xFA
   02C8 F0                  703 	movx	@dptr,a
   02C9 90s10r77            704 	mov	dptr,#(_modulus + 0x0077)
   02CC 74 2C               705 	mov	a,#0x2C
   02CE F0                  706 	movx	@dptr,a
   02CF 90s10r78            707 	mov	dptr,#(_modulus + 0x0078)
   02D2 74 34               708 	mov	a,#0x34
   02D4 F0                  709 	movx	@dptr,a
   02D5 90s10r79            710 	mov	dptr,#(_modulus + 0x0079)
   02D8 74 7F               711 	mov	a,#0x7F
   02DA F0                  712 	movx	@dptr,a
   02DB 90s10r7A            713 	mov	dptr,#(_modulus + 0x007a)
   02DE 74 77               714 	mov	a,#0x77
   02E0 F0                  715 	movx	@dptr,a
   02E1 90s10r7B            716 	mov	dptr,#(_modulus + 0x007b)
   02E4 74 7A               717 	mov	a,#0x7A
   02E6 F0                  718 	movx	@dptr,a
   02E7 90s10r7C            719 	mov	dptr,#(_modulus + 0x007c)
   02EA 74 6A               720 	mov	a,#0x6A
   02EC F0                  721 	movx	@dptr,a
   02ED 90s10r7D            722 	mov	dptr,#(_modulus + 0x007d)
   02F0 74 85               723 	mov	a,#0x85
   02F2 F0                  724 	movx	@dptr,a
   02F3 90s10r7E            725 	mov	dptr,#(_modulus + 0x007e)
   02F6 74 48               726 	mov	a,#0x48
   02F8 F0                  727 	movx	@dptr,a
   02F9 90s10r7F            728 	mov	dptr,#(_modulus + 0x007f)
   02FC 74 9B               729 	mov	a,#0x9B
   02FE F0                  730 	movx	@dptr,a
                            731 ;	main.c:24: volatile __xdata __at (0x1100) unsigned char message[SIZE] = {0xE0, 0xFA, 0x7D, 0xF4, 0x9E, 0xFF, 0x31, 0x8A, 0x4A, 0x17, 0x7A, 0xE9, 0x37, 0x86, 0x15, 0x27, 0x2B, 0x29, 0x06, 0x53, 0xE1, 0x08, 0xD2, 0x11, 0xC6, 0xEF, 0x43, 0xB6, 0xC8, 0x93, 0x4F, 0x27, 0xD1, 0x62, 0xCF, 0x12, 0xC3, 0xE6, 0xA4, 0x32, 0x85, 0xA6, 0x4F, 0x26, 0x12, 0x66, 0x87, 0x5A, 0x8F, 0xAE, 0x57, 0xE2, 0x7C, 0x8E, 0xFB, 0xA6, 0xE3, 0x6A, 0x84, 0xF7, 0x92, 0x5D, 0x66, 0x09, 0x17, 0xFC, 0x4A, 0x98, 0x1E, 0xDA, 0xB7, 0xA1, 0x94, 0xE8, 0x59, 0xAE, 0x3A, 0xA3, 0x80, 0x13, 0x13, 0x81, 0x0A, 0x1C, 0x6F, 0x0C, 0x16, 0x67, 0x48, 0x2A, 0x1F, 0x40, 0x8F, 0x97, 0xBB, 0x55, 0x52, 0x35, 0x88, 0x65, 0xD8, 0x01, 0x8F, 0x77, 0x86, 0xA5, 0x55, 0x66, 0x53, 0x02, 0xF3, 0x41, 0xF4, 0x26, 0xCC, 0xD7, 0x0A, 0xEA, 0xE4, 0x3C, 0xA1, 0x65, 0xBA, 0x8D, 0x71, 0x08, 0xEE, 0x98};
   02FF 90s11r00            732 	mov	dptr,#_message
   0302 74 E0               733 	mov	a,#0xE0
   0304 F0                  734 	movx	@dptr,a
   0305 90s11r01            735 	mov	dptr,#(_message + 0x0001)
   0308 74 FA               736 	mov	a,#0xFA
   030A F0                  737 	movx	@dptr,a
   030B 90s11r02            738 	mov	dptr,#(_message + 0x0002)
   030E 74 7D               739 	mov	a,#0x7D
   0310 F0                  740 	movx	@dptr,a
   0311 90s11r03            741 	mov	dptr,#(_message + 0x0003)
   0314 74 F4               742 	mov	a,#0xF4
   0316 F0                  743 	movx	@dptr,a
   0317 90s11r04            744 	mov	dptr,#(_message + 0x0004)
   031A 74 9E               745 	mov	a,#0x9E
   031C F0                  746 	movx	@dptr,a
   031D 90s11r05            747 	mov	dptr,#(_message + 0x0005)
   0320 74 FF               748 	mov	a,#0xFF
   0322 F0                  749 	movx	@dptr,a
   0323 90s11r06            750 	mov	dptr,#(_message + 0x0006)
   0326 74 31               751 	mov	a,#0x31
   0328 F0                  752 	movx	@dptr,a
   0329 90s11r07            753 	mov	dptr,#(_message + 0x0007)
   032C 74 8A               754 	mov	a,#0x8A
   032E F0                  755 	movx	@dptr,a
   032F 90s11r08            756 	mov	dptr,#(_message + 0x0008)
   0332 74 4A               757 	mov	a,#0x4A
   0334 F0                  758 	movx	@dptr,a
   0335 90s11r09            759 	mov	dptr,#(_message + 0x0009)
   0338 74 17               760 	mov	a,#0x17
   033A F0                  761 	movx	@dptr,a
   033B 90s11r0A            762 	mov	dptr,#(_message + 0x000a)
   033E 74 7A               763 	mov	a,#0x7A
   0340 F0                  764 	movx	@dptr,a
   0341 90s11r0B            765 	mov	dptr,#(_message + 0x000b)
   0344 74 E9               766 	mov	a,#0xE9
   0346 F0                  767 	movx	@dptr,a
   0347 90s11r0C            768 	mov	dptr,#(_message + 0x000c)
   034A 74 37               769 	mov	a,#0x37
   034C F0                  770 	movx	@dptr,a
   034D 90s11r0D            771 	mov	dptr,#(_message + 0x000d)
   0350 74 86               772 	mov	a,#0x86
   0352 F0                  773 	movx	@dptr,a
   0353 90s11r0E            774 	mov	dptr,#(_message + 0x000e)
   0356 74 15               775 	mov	a,#0x15
   0358 F0                  776 	movx	@dptr,a
   0359 90s11r0F            777 	mov	dptr,#(_message + 0x000f)
   035C 74 27               778 	mov	a,#0x27
   035E F0                  779 	movx	@dptr,a
   035F 90s11r10            780 	mov	dptr,#(_message + 0x0010)
   0362 74 2B               781 	mov	a,#0x2B
   0364 F0                  782 	movx	@dptr,a
   0365 90s11r11            783 	mov	dptr,#(_message + 0x0011)
   0368 74 29               784 	mov	a,#0x29
   036A F0                  785 	movx	@dptr,a
   036B 90s11r12            786 	mov	dptr,#(_message + 0x0012)
   036E 74 06               787 	mov	a,#0x06
   0370 F0                  788 	movx	@dptr,a
   0371 90s11r13            789 	mov	dptr,#(_message + 0x0013)
   0374 74 53               790 	mov	a,#0x53
   0376 F0                  791 	movx	@dptr,a
   0377 90s11r14            792 	mov	dptr,#(_message + 0x0014)
   037A 74 E1               793 	mov	a,#0xE1
   037C F0                  794 	movx	@dptr,a
   037D 90s11r15            795 	mov	dptr,#(_message + 0x0015)
   0380 74 08               796 	mov	a,#0x08
   0382 F0                  797 	movx	@dptr,a
   0383 90s11r16            798 	mov	dptr,#(_message + 0x0016)
   0386 74 D2               799 	mov	a,#0xD2
   0388 F0                  800 	movx	@dptr,a
   0389 90s11r17            801 	mov	dptr,#(_message + 0x0017)
   038C 74 11               802 	mov	a,#0x11
   038E F0                  803 	movx	@dptr,a
   038F 90s11r18            804 	mov	dptr,#(_message + 0x0018)
   0392 74 C6               805 	mov	a,#0xC6
   0394 F0                  806 	movx	@dptr,a
   0395 90s11r19            807 	mov	dptr,#(_message + 0x0019)
   0398 74 EF               808 	mov	a,#0xEF
   039A F0                  809 	movx	@dptr,a
   039B 90s11r1A            810 	mov	dptr,#(_message + 0x001a)
   039E 74 43               811 	mov	a,#0x43
   03A0 F0                  812 	movx	@dptr,a
   03A1 90s11r1B            813 	mov	dptr,#(_message + 0x001b)
   03A4 74 B6               814 	mov	a,#0xB6
   03A6 F0                  815 	movx	@dptr,a
   03A7 90s11r1C            816 	mov	dptr,#(_message + 0x001c)
   03AA 74 C8               817 	mov	a,#0xC8
   03AC F0                  818 	movx	@dptr,a
   03AD 90s11r1D            819 	mov	dptr,#(_message + 0x001d)
   03B0 74 93               820 	mov	a,#0x93
   03B2 F0                  821 	movx	@dptr,a
   03B3 90s11r1E            822 	mov	dptr,#(_message + 0x001e)
   03B6 74 4F               823 	mov	a,#0x4F
   03B8 F0                  824 	movx	@dptr,a
   03B9 90s11r1F            825 	mov	dptr,#(_message + 0x001f)
   03BC 74 27               826 	mov	a,#0x27
   03BE F0                  827 	movx	@dptr,a
   03BF 90s11r20            828 	mov	dptr,#(_message + 0x0020)
   03C2 74 D1               829 	mov	a,#0xD1
   03C4 F0                  830 	movx	@dptr,a
   03C5 90s11r21            831 	mov	dptr,#(_message + 0x0021)
   03C8 74 62               832 	mov	a,#0x62
   03CA F0                  833 	movx	@dptr,a
   03CB 90s11r22            834 	mov	dptr,#(_message + 0x0022)
   03CE 74 CF               835 	mov	a,#0xCF
   03D0 F0                  836 	movx	@dptr,a
   03D1 90s11r23            837 	mov	dptr,#(_message + 0x0023)
   03D4 74 12               838 	mov	a,#0x12
   03D6 F0                  839 	movx	@dptr,a
   03D7 90s11r24            840 	mov	dptr,#(_message + 0x0024)
   03DA 74 C3               841 	mov	a,#0xC3
   03DC F0                  842 	movx	@dptr,a
   03DD 90s11r25            843 	mov	dptr,#(_message + 0x0025)
   03E0 74 E6               844 	mov	a,#0xE6
   03E2 F0                  845 	movx	@dptr,a
   03E3 90s11r26            846 	mov	dptr,#(_message + 0x0026)
   03E6 74 A4               847 	mov	a,#0xA4
   03E8 F0                  848 	movx	@dptr,a
   03E9 90s11r27            849 	mov	dptr,#(_message + 0x0027)
   03EC 74 32               850 	mov	a,#0x32
   03EE F0                  851 	movx	@dptr,a
   03EF 90s11r28            852 	mov	dptr,#(_message + 0x0028)
   03F2 74 85               853 	mov	a,#0x85
   03F4 F0                  854 	movx	@dptr,a
   03F5 90s11r29            855 	mov	dptr,#(_message + 0x0029)
   03F8 74 A6               856 	mov	a,#0xA6
   03FA F0                  857 	movx	@dptr,a
   03FB 90s11r2A            858 	mov	dptr,#(_message + 0x002a)
   03FE 74 4F               859 	mov	a,#0x4F
   0400 F0                  860 	movx	@dptr,a
   0401 90s11r2B            861 	mov	dptr,#(_message + 0x002b)
   0404 74 26               862 	mov	a,#0x26
   0406 F0                  863 	movx	@dptr,a
   0407 90s11r2C            864 	mov	dptr,#(_message + 0x002c)
   040A 74 12               865 	mov	a,#0x12
   040C F0                  866 	movx	@dptr,a
   040D 90s11r2D            867 	mov	dptr,#(_message + 0x002d)
   0410 74 66               868 	mov	a,#0x66
   0412 F0                  869 	movx	@dptr,a
   0413 90s11r2E            870 	mov	dptr,#(_message + 0x002e)
   0416 74 87               871 	mov	a,#0x87
   0418 F0                  872 	movx	@dptr,a
   0419 90s11r2F            873 	mov	dptr,#(_message + 0x002f)
   041C 74 5A               874 	mov	a,#0x5A
   041E F0                  875 	movx	@dptr,a
   041F 90s11r30            876 	mov	dptr,#(_message + 0x0030)
   0422 74 8F               877 	mov	a,#0x8F
   0424 F0                  878 	movx	@dptr,a
   0425 90s11r31            879 	mov	dptr,#(_message + 0x0031)
   0428 74 AE               880 	mov	a,#0xAE
   042A F0                  881 	movx	@dptr,a
   042B 90s11r32            882 	mov	dptr,#(_message + 0x0032)
   042E 74 57               883 	mov	a,#0x57
   0430 F0                  884 	movx	@dptr,a
   0431 90s11r33            885 	mov	dptr,#(_message + 0x0033)
   0434 74 E2               886 	mov	a,#0xE2
   0436 F0                  887 	movx	@dptr,a
   0437 90s11r34            888 	mov	dptr,#(_message + 0x0034)
   043A 74 7C               889 	mov	a,#0x7C
   043C F0                  890 	movx	@dptr,a
   043D 90s11r35            891 	mov	dptr,#(_message + 0x0035)
   0440 74 8E               892 	mov	a,#0x8E
   0442 F0                  893 	movx	@dptr,a
   0443 90s11r36            894 	mov	dptr,#(_message + 0x0036)
   0446 74 FB               895 	mov	a,#0xFB
   0448 F0                  896 	movx	@dptr,a
   0449 90s11r37            897 	mov	dptr,#(_message + 0x0037)
   044C 74 A6               898 	mov	a,#0xA6
   044E F0                  899 	movx	@dptr,a
   044F 90s11r38            900 	mov	dptr,#(_message + 0x0038)
   0452 74 E3               901 	mov	a,#0xE3
   0454 F0                  902 	movx	@dptr,a
   0455 90s11r39            903 	mov	dptr,#(_message + 0x0039)
   0458 74 6A               904 	mov	a,#0x6A
   045A F0                  905 	movx	@dptr,a
   045B 90s11r3A            906 	mov	dptr,#(_message + 0x003a)
   045E 74 84               907 	mov	a,#0x84
   0460 F0                  908 	movx	@dptr,a
   0461 90s11r3B            909 	mov	dptr,#(_message + 0x003b)
   0464 74 F7               910 	mov	a,#0xF7
   0466 F0                  911 	movx	@dptr,a
   0467 90s11r3C            912 	mov	dptr,#(_message + 0x003c)
   046A 74 92               913 	mov	a,#0x92
   046C F0                  914 	movx	@dptr,a
   046D 90s11r3D            915 	mov	dptr,#(_message + 0x003d)
   0470 74 5D               916 	mov	a,#0x5D
   0472 F0                  917 	movx	@dptr,a
   0473 90s11r3E            918 	mov	dptr,#(_message + 0x003e)
   0476 74 66               919 	mov	a,#0x66
   0478 F0                  920 	movx	@dptr,a
   0479 90s11r3F            921 	mov	dptr,#(_message + 0x003f)
   047C 74 09               922 	mov	a,#0x09
   047E F0                  923 	movx	@dptr,a
   047F 90s11r40            924 	mov	dptr,#(_message + 0x0040)
   0482 74 17               925 	mov	a,#0x17
   0484 F0                  926 	movx	@dptr,a
   0485 90s11r41            927 	mov	dptr,#(_message + 0x0041)
   0488 74 FC               928 	mov	a,#0xFC
   048A F0                  929 	movx	@dptr,a
   048B 90s11r42            930 	mov	dptr,#(_message + 0x0042)
   048E 74 4A               931 	mov	a,#0x4A
   0490 F0                  932 	movx	@dptr,a
   0491 90s11r43            933 	mov	dptr,#(_message + 0x0043)
   0494 74 98               934 	mov	a,#0x98
   0496 F0                  935 	movx	@dptr,a
   0497 90s11r44            936 	mov	dptr,#(_message + 0x0044)
   049A 74 1E               937 	mov	a,#0x1E
   049C F0                  938 	movx	@dptr,a
   049D 90s11r45            939 	mov	dptr,#(_message + 0x0045)
   04A0 74 DA               940 	mov	a,#0xDA
   04A2 F0                  941 	movx	@dptr,a
   04A3 90s11r46            942 	mov	dptr,#(_message + 0x0046)
   04A6 74 B7               943 	mov	a,#0xB7
   04A8 F0                  944 	movx	@dptr,a
   04A9 90s11r47            945 	mov	dptr,#(_message + 0x0047)
   04AC 74 A1               946 	mov	a,#0xA1
   04AE F0                  947 	movx	@dptr,a
   04AF 90s11r48            948 	mov	dptr,#(_message + 0x0048)
   04B2 74 94               949 	mov	a,#0x94
   04B4 F0                  950 	movx	@dptr,a
   04B5 90s11r49            951 	mov	dptr,#(_message + 0x0049)
   04B8 74 E8               952 	mov	a,#0xE8
   04BA F0                  953 	movx	@dptr,a
   04BB 90s11r4A            954 	mov	dptr,#(_message + 0x004a)
   04BE 74 59               955 	mov	a,#0x59
   04C0 F0                  956 	movx	@dptr,a
   04C1 90s11r4B            957 	mov	dptr,#(_message + 0x004b)
   04C4 74 AE               958 	mov	a,#0xAE
   04C6 F0                  959 	movx	@dptr,a
   04C7 90s11r4C            960 	mov	dptr,#(_message + 0x004c)
   04CA 74 3A               961 	mov	a,#0x3A
   04CC F0                  962 	movx	@dptr,a
   04CD 90s11r4D            963 	mov	dptr,#(_message + 0x004d)
   04D0 74 A3               964 	mov	a,#0xA3
   04D2 F0                  965 	movx	@dptr,a
   04D3 90s11r4E            966 	mov	dptr,#(_message + 0x004e)
   04D6 74 80               967 	mov	a,#0x80
   04D8 F0                  968 	movx	@dptr,a
   04D9 90s11r4F            969 	mov	dptr,#(_message + 0x004f)
   04DC 74 13               970 	mov	a,#0x13
   04DE F0                  971 	movx	@dptr,a
   04DF 90s11r50            972 	mov	dptr,#(_message + 0x0050)
   04E2 74 13               973 	mov	a,#0x13
   04E4 F0                  974 	movx	@dptr,a
   04E5 90s11r51            975 	mov	dptr,#(_message + 0x0051)
   04E8 74 81               976 	mov	a,#0x81
   04EA F0                  977 	movx	@dptr,a
   04EB 90s11r52            978 	mov	dptr,#(_message + 0x0052)
   04EE 74 0A               979 	mov	a,#0x0A
   04F0 F0                  980 	movx	@dptr,a
   04F1 90s11r53            981 	mov	dptr,#(_message + 0x0053)
   04F4 74 1C               982 	mov	a,#0x1C
   04F6 F0                  983 	movx	@dptr,a
   04F7 90s11r54            984 	mov	dptr,#(_message + 0x0054)
   04FA 74 6F               985 	mov	a,#0x6F
   04FC F0                  986 	movx	@dptr,a
   04FD 90s11r55            987 	mov	dptr,#(_message + 0x0055)
   0500 74 0C               988 	mov	a,#0x0C
   0502 F0                  989 	movx	@dptr,a
   0503 90s11r56            990 	mov	dptr,#(_message + 0x0056)
   0506 74 16               991 	mov	a,#0x16
   0508 F0                  992 	movx	@dptr,a
   0509 90s11r57            993 	mov	dptr,#(_message + 0x0057)
   050C 74 67               994 	mov	a,#0x67
   050E F0                  995 	movx	@dptr,a
   050F 90s11r58            996 	mov	dptr,#(_message + 0x0058)
   0512 74 48               997 	mov	a,#0x48
   0514 F0                  998 	movx	@dptr,a
   0515 90s11r59            999 	mov	dptr,#(_message + 0x0059)
   0518 74 2A              1000 	mov	a,#0x2A
   051A F0                 1001 	movx	@dptr,a
   051B 90s11r5A           1002 	mov	dptr,#(_message + 0x005a)
   051E 74 1F              1003 	mov	a,#0x1F
   0520 F0                 1004 	movx	@dptr,a
   0521 90s11r5B           1005 	mov	dptr,#(_message + 0x005b)
   0524 74 40              1006 	mov	a,#0x40
   0526 F0                 1007 	movx	@dptr,a
   0527 90s11r5C           1008 	mov	dptr,#(_message + 0x005c)
   052A 74 8F              1009 	mov	a,#0x8F
   052C F0                 1010 	movx	@dptr,a
   052D 90s11r5D           1011 	mov	dptr,#(_message + 0x005d)
   0530 74 97              1012 	mov	a,#0x97
   0532 F0                 1013 	movx	@dptr,a
   0533 90s11r5E           1014 	mov	dptr,#(_message + 0x005e)
   0536 74 BB              1015 	mov	a,#0xBB
   0538 F0                 1016 	movx	@dptr,a
   0539 90s11r5F           1017 	mov	dptr,#(_message + 0x005f)
   053C 74 55              1018 	mov	a,#0x55
   053E F0                 1019 	movx	@dptr,a
   053F 90s11r60           1020 	mov	dptr,#(_message + 0x0060)
   0542 74 52              1021 	mov	a,#0x52
   0544 F0                 1022 	movx	@dptr,a
   0545 90s11r61           1023 	mov	dptr,#(_message + 0x0061)
   0548 74 35              1024 	mov	a,#0x35
   054A F0                 1025 	movx	@dptr,a
   054B 90s11r62           1026 	mov	dptr,#(_message + 0x0062)
   054E 74 88              1027 	mov	a,#0x88
   0550 F0                 1028 	movx	@dptr,a
   0551 90s11r63           1029 	mov	dptr,#(_message + 0x0063)
   0554 74 65              1030 	mov	a,#0x65
   0556 F0                 1031 	movx	@dptr,a
   0557 90s11r64           1032 	mov	dptr,#(_message + 0x0064)
   055A 74 D8              1033 	mov	a,#0xD8
   055C F0                 1034 	movx	@dptr,a
   055D 90s11r65           1035 	mov	dptr,#(_message + 0x0065)
   0560 74 01              1036 	mov	a,#0x01
   0562 F0                 1037 	movx	@dptr,a
   0563 90s11r66           1038 	mov	dptr,#(_message + 0x0066)
   0566 74 8F              1039 	mov	a,#0x8F
   0568 F0                 1040 	movx	@dptr,a
   0569 90s11r67           1041 	mov	dptr,#(_message + 0x0067)
   056C 74 77              1042 	mov	a,#0x77
   056E F0                 1043 	movx	@dptr,a
   056F 90s11r68           1044 	mov	dptr,#(_message + 0x0068)
   0572 74 86              1045 	mov	a,#0x86
   0574 F0                 1046 	movx	@dptr,a
   0575 90s11r69           1047 	mov	dptr,#(_message + 0x0069)
   0578 74 A5              1048 	mov	a,#0xA5
   057A F0                 1049 	movx	@dptr,a
   057B 90s11r6A           1050 	mov	dptr,#(_message + 0x006a)
   057E 74 55              1051 	mov	a,#0x55
   0580 F0                 1052 	movx	@dptr,a
   0581 90s11r6B           1053 	mov	dptr,#(_message + 0x006b)
   0584 74 66              1054 	mov	a,#0x66
   0586 F0                 1055 	movx	@dptr,a
   0587 90s11r6C           1056 	mov	dptr,#(_message + 0x006c)
   058A 74 53              1057 	mov	a,#0x53
   058C F0                 1058 	movx	@dptr,a
   058D 90s11r6D           1059 	mov	dptr,#(_message + 0x006d)
   0590 74 02              1060 	mov	a,#0x02
   0592 F0                 1061 	movx	@dptr,a
   0593 90s11r6E           1062 	mov	dptr,#(_message + 0x006e)
   0596 74 F3              1063 	mov	a,#0xF3
   0598 F0                 1064 	movx	@dptr,a
   0599 90s11r6F           1065 	mov	dptr,#(_message + 0x006f)
   059C 74 41              1066 	mov	a,#0x41
   059E F0                 1067 	movx	@dptr,a
   059F 90s11r70           1068 	mov	dptr,#(_message + 0x0070)
   05A2 74 F4              1069 	mov	a,#0xF4
   05A4 F0                 1070 	movx	@dptr,a
   05A5 90s11r71           1071 	mov	dptr,#(_message + 0x0071)
   05A8 74 26              1072 	mov	a,#0x26
   05AA F0                 1073 	movx	@dptr,a
   05AB 90s11r72           1074 	mov	dptr,#(_message + 0x0072)
   05AE 74 CC              1075 	mov	a,#0xCC
   05B0 F0                 1076 	movx	@dptr,a
   05B1 90s11r73           1077 	mov	dptr,#(_message + 0x0073)
   05B4 74 D7              1078 	mov	a,#0xD7
   05B6 F0                 1079 	movx	@dptr,a
   05B7 90s11r74           1080 	mov	dptr,#(_message + 0x0074)
   05BA 74 0A              1081 	mov	a,#0x0A
   05BC F0                 1082 	movx	@dptr,a
   05BD 90s11r75           1083 	mov	dptr,#(_message + 0x0075)
   05C0 74 EA              1084 	mov	a,#0xEA
   05C2 F0                 1085 	movx	@dptr,a
   05C3 90s11r76           1086 	mov	dptr,#(_message + 0x0076)
   05C6 74 E4              1087 	mov	a,#0xE4
   05C8 F0                 1088 	movx	@dptr,a
   05C9 90s11r77           1089 	mov	dptr,#(_message + 0x0077)
   05CC 74 3C              1090 	mov	a,#0x3C
   05CE F0                 1091 	movx	@dptr,a
   05CF 90s11r78           1092 	mov	dptr,#(_message + 0x0078)
   05D2 74 A1              1093 	mov	a,#0xA1
   05D4 F0                 1094 	movx	@dptr,a
   05D5 90s11r79           1095 	mov	dptr,#(_message + 0x0079)
   05D8 74 65              1096 	mov	a,#0x65
   05DA F0                 1097 	movx	@dptr,a
   05DB 90s11r7A           1098 	mov	dptr,#(_message + 0x007a)
   05DE 74 BA              1099 	mov	a,#0xBA
   05E0 F0                 1100 	movx	@dptr,a
   05E1 90s11r7B           1101 	mov	dptr,#(_message + 0x007b)
   05E4 74 8D              1102 	mov	a,#0x8D
   05E6 F0                 1103 	movx	@dptr,a
   05E7 90s11r7C           1104 	mov	dptr,#(_message + 0x007c)
   05EA 74 71              1105 	mov	a,#0x71
   05EC F0                 1106 	movx	@dptr,a
   05ED 90s11r7D           1107 	mov	dptr,#(_message + 0x007d)
   05F0 74 08              1108 	mov	a,#0x08
   05F2 F0                 1109 	movx	@dptr,a
   05F3 90s11r7E           1110 	mov	dptr,#(_message + 0x007e)
   05F6 74 EE              1111 	mov	a,#0xEE
   05F8 F0                 1112 	movx	@dptr,a
   05F9 90s11r7F           1113 	mov	dptr,#(_message + 0x007f)
   05FC 74 98              1114 	mov	a,#0x98
   05FE F0                 1115 	movx	@dptr,a
                           1116 ;	main.c:25: volatile __xdata __at (0x1200) unsigned char publicKey[SIZE] = {0x01, 0x01};
   05FF 90s12r00           1117 	mov	dptr,#_publicKey
   0602 74 01              1118 	mov	a,#0x01
   0604 F0                 1119 	movx	@dptr,a
   0605 90s12r01           1120 	mov	dptr,#(_publicKey + 0x0001)
   0608 74 01              1121 	mov	a,#0x01
   060A F0                 1122 	movx	@dptr,a
                           1123 ;	main.c:26: volatile __xdata __at (0x1300) unsigned char privateKey[SIZE] = {0x01, 0x23, 0xC5, 0xD2, 0x6A, 0xE6, 0x8B, 0x2B, 0xE7, 0x41, 0x5A, 0x8E, 0xBA, 0x08, 0x1A, 0x66, 0x97, 0xC4, 0xB7, 0x6E, 0x54, 0x5D, 0xC4, 0x99, 0x40, 0x63, 0x65, 0xED, 0x77, 0xCA, 0xCF, 0xEB, 0x75, 0xCF, 0x29, 0x3C, 0xE5, 0x27, 0x0B, 0x54, 0xD0, 0x11, 0x7E, 0xB2, 0x0B, 0x12, 0x9F, 0xBD, 0xBF, 0x2F, 0x51, 0x4C, 0x51, 0x6D, 0x2F, 0xF8, 0x2D, 0x62, 0xB4, 0x1E, 0xA5, 0xEC, 0xE9, 0xDE, 0x0B, 0xE9, 0x7A, 0x72, 0xAE, 0xA4, 0x56, 0xAF, 0xE3, 0xAF, 0x72, 0x54, 0x05, 0xBE, 0x14, 0xA1, 0x01, 0x4D, 0x0D, 0x8D, 0x02, 0x7F, 0xCA, 0xEF, 0xEC, 0x83, 0xE2, 0xA0, 0x75, 0x0A, 0xEF, 0x0C, 0x2C, 0x61, 0xC2, 0x5C, 0xDC, 0x95, 0xC3, 0x36, 0x63, 0x69, 0x6A, 0x76, 0x64, 0xD2, 0x57, 0x56, 0x7F, 0xE3, 0xC9, 0xCA, 0x11, 0x1F, 0xFD, 0xFC, 0x1A, 0x54, 0xA0, 0x70, 0x42, 0x97, 0xF7, 0x6D};
   060B 90s13r00           1124 	mov	dptr,#_privateKey
   060E 74 01              1125 	mov	a,#0x01
   0610 F0                 1126 	movx	@dptr,a
   0611 90s13r01           1127 	mov	dptr,#(_privateKey + 0x0001)
   0614 74 23              1128 	mov	a,#0x23
   0616 F0                 1129 	movx	@dptr,a
   0617 90s13r02           1130 	mov	dptr,#(_privateKey + 0x0002)
   061A 74 C5              1131 	mov	a,#0xC5
   061C F0                 1132 	movx	@dptr,a
   061D 90s13r03           1133 	mov	dptr,#(_privateKey + 0x0003)
   0620 74 D2              1134 	mov	a,#0xD2
   0622 F0                 1135 	movx	@dptr,a
   0623 90s13r04           1136 	mov	dptr,#(_privateKey + 0x0004)
   0626 74 6A              1137 	mov	a,#0x6A
   0628 F0                 1138 	movx	@dptr,a
   0629 90s13r05           1139 	mov	dptr,#(_privateKey + 0x0005)
   062C 74 E6              1140 	mov	a,#0xE6
   062E F0                 1141 	movx	@dptr,a
   062F 90s13r06           1142 	mov	dptr,#(_privateKey + 0x0006)
   0632 74 8B              1143 	mov	a,#0x8B
   0634 F0                 1144 	movx	@dptr,a
   0635 90s13r07           1145 	mov	dptr,#(_privateKey + 0x0007)
   0638 74 2B              1146 	mov	a,#0x2B
   063A F0                 1147 	movx	@dptr,a
   063B 90s13r08           1148 	mov	dptr,#(_privateKey + 0x0008)
   063E 74 E7              1149 	mov	a,#0xE7
   0640 F0                 1150 	movx	@dptr,a
   0641 90s13r09           1151 	mov	dptr,#(_privateKey + 0x0009)
   0644 74 41              1152 	mov	a,#0x41
   0646 F0                 1153 	movx	@dptr,a
   0647 90s13r0A           1154 	mov	dptr,#(_privateKey + 0x000a)
   064A 74 5A              1155 	mov	a,#0x5A
   064C F0                 1156 	movx	@dptr,a
   064D 90s13r0B           1157 	mov	dptr,#(_privateKey + 0x000b)
   0650 74 8E              1158 	mov	a,#0x8E
   0652 F0                 1159 	movx	@dptr,a
   0653 90s13r0C           1160 	mov	dptr,#(_privateKey + 0x000c)
   0656 74 BA              1161 	mov	a,#0xBA
   0658 F0                 1162 	movx	@dptr,a
   0659 90s13r0D           1163 	mov	dptr,#(_privateKey + 0x000d)
   065C 74 08              1164 	mov	a,#0x08
   065E F0                 1165 	movx	@dptr,a
   065F 90s13r0E           1166 	mov	dptr,#(_privateKey + 0x000e)
   0662 74 1A              1167 	mov	a,#0x1A
   0664 F0                 1168 	movx	@dptr,a
   0665 90s13r0F           1169 	mov	dptr,#(_privateKey + 0x000f)
   0668 74 66              1170 	mov	a,#0x66
   066A F0                 1171 	movx	@dptr,a
   066B 90s13r10           1172 	mov	dptr,#(_privateKey + 0x0010)
   066E 74 97              1173 	mov	a,#0x97
   0670 F0                 1174 	movx	@dptr,a
   0671 90s13r11           1175 	mov	dptr,#(_privateKey + 0x0011)
   0674 74 C4              1176 	mov	a,#0xC4
   0676 F0                 1177 	movx	@dptr,a
   0677 90s13r12           1178 	mov	dptr,#(_privateKey + 0x0012)
   067A 74 B7              1179 	mov	a,#0xB7
   067C F0                 1180 	movx	@dptr,a
   067D 90s13r13           1181 	mov	dptr,#(_privateKey + 0x0013)
   0680 74 6E              1182 	mov	a,#0x6E
   0682 F0                 1183 	movx	@dptr,a
   0683 90s13r14           1184 	mov	dptr,#(_privateKey + 0x0014)
   0686 74 54              1185 	mov	a,#0x54
   0688 F0                 1186 	movx	@dptr,a
   0689 90s13r15           1187 	mov	dptr,#(_privateKey + 0x0015)
   068C 74 5D              1188 	mov	a,#0x5D
   068E F0                 1189 	movx	@dptr,a
   068F 90s13r16           1190 	mov	dptr,#(_privateKey + 0x0016)
   0692 74 C4              1191 	mov	a,#0xC4
   0694 F0                 1192 	movx	@dptr,a
   0695 90s13r17           1193 	mov	dptr,#(_privateKey + 0x0017)
   0698 74 99              1194 	mov	a,#0x99
   069A F0                 1195 	movx	@dptr,a
   069B 90s13r18           1196 	mov	dptr,#(_privateKey + 0x0018)
   069E 74 40              1197 	mov	a,#0x40
   06A0 F0                 1198 	movx	@dptr,a
   06A1 90s13r19           1199 	mov	dptr,#(_privateKey + 0x0019)
   06A4 74 63              1200 	mov	a,#0x63
   06A6 F0                 1201 	movx	@dptr,a
   06A7 90s13r1A           1202 	mov	dptr,#(_privateKey + 0x001a)
   06AA 74 65              1203 	mov	a,#0x65
   06AC F0                 1204 	movx	@dptr,a
   06AD 90s13r1B           1205 	mov	dptr,#(_privateKey + 0x001b)
   06B0 74 ED              1206 	mov	a,#0xED
   06B2 F0                 1207 	movx	@dptr,a
   06B3 90s13r1C           1208 	mov	dptr,#(_privateKey + 0x001c)
   06B6 74 77              1209 	mov	a,#0x77
   06B8 F0                 1210 	movx	@dptr,a
   06B9 90s13r1D           1211 	mov	dptr,#(_privateKey + 0x001d)
   06BC 74 CA              1212 	mov	a,#0xCA
   06BE F0                 1213 	movx	@dptr,a
   06BF 90s13r1E           1214 	mov	dptr,#(_privateKey + 0x001e)
   06C2 74 CF              1215 	mov	a,#0xCF
   06C4 F0                 1216 	movx	@dptr,a
   06C5 90s13r1F           1217 	mov	dptr,#(_privateKey + 0x001f)
   06C8 74 EB              1218 	mov	a,#0xEB
   06CA F0                 1219 	movx	@dptr,a
   06CB 90s13r20           1220 	mov	dptr,#(_privateKey + 0x0020)
   06CE 74 75              1221 	mov	a,#0x75
   06D0 F0                 1222 	movx	@dptr,a
   06D1 90s13r21           1223 	mov	dptr,#(_privateKey + 0x0021)
   06D4 74 CF              1224 	mov	a,#0xCF
   06D6 F0                 1225 	movx	@dptr,a
   06D7 90s13r22           1226 	mov	dptr,#(_privateKey + 0x0022)
   06DA 74 29              1227 	mov	a,#0x29
   06DC F0                 1228 	movx	@dptr,a
   06DD 90s13r23           1229 	mov	dptr,#(_privateKey + 0x0023)
   06E0 74 3C              1230 	mov	a,#0x3C
   06E2 F0                 1231 	movx	@dptr,a
   06E3 90s13r24           1232 	mov	dptr,#(_privateKey + 0x0024)
   06E6 74 E5              1233 	mov	a,#0xE5
   06E8 F0                 1234 	movx	@dptr,a
   06E9 90s13r25           1235 	mov	dptr,#(_privateKey + 0x0025)
   06EC 74 27              1236 	mov	a,#0x27
   06EE F0                 1237 	movx	@dptr,a
   06EF 90s13r26           1238 	mov	dptr,#(_privateKey + 0x0026)
   06F2 74 0B              1239 	mov	a,#0x0B
   06F4 F0                 1240 	movx	@dptr,a
   06F5 90s13r27           1241 	mov	dptr,#(_privateKey + 0x0027)
   06F8 74 54              1242 	mov	a,#0x54
   06FA F0                 1243 	movx	@dptr,a
   06FB 90s13r28           1244 	mov	dptr,#(_privateKey + 0x0028)
   06FE 74 D0              1245 	mov	a,#0xD0
   0700 F0                 1246 	movx	@dptr,a
   0701 90s13r29           1247 	mov	dptr,#(_privateKey + 0x0029)
   0704 74 11              1248 	mov	a,#0x11
   0706 F0                 1249 	movx	@dptr,a
   0707 90s13r2A           1250 	mov	dptr,#(_privateKey + 0x002a)
   070A 74 7E              1251 	mov	a,#0x7E
   070C F0                 1252 	movx	@dptr,a
   070D 90s13r2B           1253 	mov	dptr,#(_privateKey + 0x002b)
   0710 74 B2              1254 	mov	a,#0xB2
   0712 F0                 1255 	movx	@dptr,a
   0713 90s13r2C           1256 	mov	dptr,#(_privateKey + 0x002c)
   0716 74 0B              1257 	mov	a,#0x0B
   0718 F0                 1258 	movx	@dptr,a
   0719 90s13r2D           1259 	mov	dptr,#(_privateKey + 0x002d)
   071C 74 12              1260 	mov	a,#0x12
   071E F0                 1261 	movx	@dptr,a
   071F 90s13r2E           1262 	mov	dptr,#(_privateKey + 0x002e)
   0722 74 9F              1263 	mov	a,#0x9F
   0724 F0                 1264 	movx	@dptr,a
   0725 90s13r2F           1265 	mov	dptr,#(_privateKey + 0x002f)
   0728 74 BD              1266 	mov	a,#0xBD
   072A F0                 1267 	movx	@dptr,a
   072B 90s13r30           1268 	mov	dptr,#(_privateKey + 0x0030)
   072E 74 BF              1269 	mov	a,#0xBF
   0730 F0                 1270 	movx	@dptr,a
   0731 90s13r31           1271 	mov	dptr,#(_privateKey + 0x0031)
   0734 74 2F              1272 	mov	a,#0x2F
   0736 F0                 1273 	movx	@dptr,a
   0737 90s13r32           1274 	mov	dptr,#(_privateKey + 0x0032)
   073A 74 51              1275 	mov	a,#0x51
   073C F0                 1276 	movx	@dptr,a
   073D 90s13r33           1277 	mov	dptr,#(_privateKey + 0x0033)
   0740 74 4C              1278 	mov	a,#0x4C
   0742 F0                 1279 	movx	@dptr,a
   0743 90s13r34           1280 	mov	dptr,#(_privateKey + 0x0034)
   0746 74 51              1281 	mov	a,#0x51
   0748 F0                 1282 	movx	@dptr,a
   0749 90s13r35           1283 	mov	dptr,#(_privateKey + 0x0035)
   074C 74 6D              1284 	mov	a,#0x6D
   074E F0                 1285 	movx	@dptr,a
   074F 90s13r36           1286 	mov	dptr,#(_privateKey + 0x0036)
   0752 74 2F              1287 	mov	a,#0x2F
   0754 F0                 1288 	movx	@dptr,a
   0755 90s13r37           1289 	mov	dptr,#(_privateKey + 0x0037)
   0758 74 F8              1290 	mov	a,#0xF8
   075A F0                 1291 	movx	@dptr,a
   075B 90s13r38           1292 	mov	dptr,#(_privateKey + 0x0038)
   075E 74 2D              1293 	mov	a,#0x2D
   0760 F0                 1294 	movx	@dptr,a
   0761 90s13r39           1295 	mov	dptr,#(_privateKey + 0x0039)
   0764 74 62              1296 	mov	a,#0x62
   0766 F0                 1297 	movx	@dptr,a
   0767 90s13r3A           1298 	mov	dptr,#(_privateKey + 0x003a)
   076A 74 B4              1299 	mov	a,#0xB4
   076C F0                 1300 	movx	@dptr,a
   076D 90s13r3B           1301 	mov	dptr,#(_privateKey + 0x003b)
   0770 74 1E              1302 	mov	a,#0x1E
   0772 F0                 1303 	movx	@dptr,a
   0773 90s13r3C           1304 	mov	dptr,#(_privateKey + 0x003c)
   0776 74 A5              1305 	mov	a,#0xA5
   0778 F0                 1306 	movx	@dptr,a
   0779 90s13r3D           1307 	mov	dptr,#(_privateKey + 0x003d)
   077C 74 EC              1308 	mov	a,#0xEC
   077E F0                 1309 	movx	@dptr,a
   077F 90s13r3E           1310 	mov	dptr,#(_privateKey + 0x003e)
   0782 74 E9              1311 	mov	a,#0xE9
   0784 F0                 1312 	movx	@dptr,a
   0785 90s13r3F           1313 	mov	dptr,#(_privateKey + 0x003f)
   0788 74 DE              1314 	mov	a,#0xDE
   078A F0                 1315 	movx	@dptr,a
   078B 90s13r40           1316 	mov	dptr,#(_privateKey + 0x0040)
   078E 74 0B              1317 	mov	a,#0x0B
   0790 F0                 1318 	movx	@dptr,a
   0791 90s13r41           1319 	mov	dptr,#(_privateKey + 0x0041)
   0794 74 E9              1320 	mov	a,#0xE9
   0796 F0                 1321 	movx	@dptr,a
   0797 90s13r42           1322 	mov	dptr,#(_privateKey + 0x0042)
   079A 74 7A              1323 	mov	a,#0x7A
   079C F0                 1324 	movx	@dptr,a
   079D 90s13r43           1325 	mov	dptr,#(_privateKey + 0x0043)
   07A0 74 72              1326 	mov	a,#0x72
   07A2 F0                 1327 	movx	@dptr,a
   07A3 90s13r44           1328 	mov	dptr,#(_privateKey + 0x0044)
   07A6 74 AE              1329 	mov	a,#0xAE
   07A8 F0                 1330 	movx	@dptr,a
   07A9 90s13r45           1331 	mov	dptr,#(_privateKey + 0x0045)
   07AC 74 A4              1332 	mov	a,#0xA4
   07AE F0                 1333 	movx	@dptr,a
   07AF 90s13r46           1334 	mov	dptr,#(_privateKey + 0x0046)
   07B2 74 56              1335 	mov	a,#0x56
   07B4 F0                 1336 	movx	@dptr,a
   07B5 90s13r47           1337 	mov	dptr,#(_privateKey + 0x0047)
   07B8 74 AF              1338 	mov	a,#0xAF
   07BA F0                 1339 	movx	@dptr,a
   07BB 90s13r48           1340 	mov	dptr,#(_privateKey + 0x0048)
   07BE 74 E3              1341 	mov	a,#0xE3
   07C0 F0                 1342 	movx	@dptr,a
   07C1 90s13r49           1343 	mov	dptr,#(_privateKey + 0x0049)
   07C4 74 AF              1344 	mov	a,#0xAF
   07C6 F0                 1345 	movx	@dptr,a
   07C7 90s13r4A           1346 	mov	dptr,#(_privateKey + 0x004a)
   07CA 74 72              1347 	mov	a,#0x72
   07CC F0                 1348 	movx	@dptr,a
   07CD 90s13r4B           1349 	mov	dptr,#(_privateKey + 0x004b)
   07D0 74 54              1350 	mov	a,#0x54
   07D2 F0                 1351 	movx	@dptr,a
   07D3 90s13r4C           1352 	mov	dptr,#(_privateKey + 0x004c)
   07D6 74 05              1353 	mov	a,#0x05
   07D8 F0                 1354 	movx	@dptr,a
   07D9 90s13r4D           1355 	mov	dptr,#(_privateKey + 0x004d)
   07DC 74 BE              1356 	mov	a,#0xBE
   07DE F0                 1357 	movx	@dptr,a
   07DF 90s13r4E           1358 	mov	dptr,#(_privateKey + 0x004e)
   07E2 74 14              1359 	mov	a,#0x14
   07E4 F0                 1360 	movx	@dptr,a
   07E5 90s13r4F           1361 	mov	dptr,#(_privateKey + 0x004f)
   07E8 74 A1              1362 	mov	a,#0xA1
   07EA F0                 1363 	movx	@dptr,a
   07EB 90s13r50           1364 	mov	dptr,#(_privateKey + 0x0050)
   07EE 74 01              1365 	mov	a,#0x01
   07F0 F0                 1366 	movx	@dptr,a
   07F1 90s13r51           1367 	mov	dptr,#(_privateKey + 0x0051)
   07F4 74 4D              1368 	mov	a,#0x4D
   07F6 F0                 1369 	movx	@dptr,a
   07F7 90s13r52           1370 	mov	dptr,#(_privateKey + 0x0052)
   07FA 74 0D              1371 	mov	a,#0x0D
   07FC F0                 1372 	movx	@dptr,a
   07FD 90s13r53           1373 	mov	dptr,#(_privateKey + 0x0053)
   0800 74 8D              1374 	mov	a,#0x8D
   0802 F0                 1375 	movx	@dptr,a
   0803 90s13r54           1376 	mov	dptr,#(_privateKey + 0x0054)
   0806 74 02              1377 	mov	a,#0x02
   0808 F0                 1378 	movx	@dptr,a
   0809 90s13r55           1379 	mov	dptr,#(_privateKey + 0x0055)
   080C 74 7F              1380 	mov	a,#0x7F
   080E F0                 1381 	movx	@dptr,a
   080F 90s13r56           1382 	mov	dptr,#(_privateKey + 0x0056)
   0812 74 CA              1383 	mov	a,#0xCA
   0814 F0                 1384 	movx	@dptr,a
   0815 90s13r57           1385 	mov	dptr,#(_privateKey + 0x0057)
   0818 74 EF              1386 	mov	a,#0xEF
   081A F0                 1387 	movx	@dptr,a
   081B 90s13r58           1388 	mov	dptr,#(_privateKey + 0x0058)
   081E 74 EC              1389 	mov	a,#0xEC
   0820 F0                 1390 	movx	@dptr,a
   0821 90s13r59           1391 	mov	dptr,#(_privateKey + 0x0059)
   0824 74 83              1392 	mov	a,#0x83
   0826 F0                 1393 	movx	@dptr,a
   0827 90s13r5A           1394 	mov	dptr,#(_privateKey + 0x005a)
   082A 74 E2              1395 	mov	a,#0xE2
   082C F0                 1396 	movx	@dptr,a
   082D 90s13r5B           1397 	mov	dptr,#(_privateKey + 0x005b)
   0830 74 A0              1398 	mov	a,#0xA0
   0832 F0                 1399 	movx	@dptr,a
   0833 90s13r5C           1400 	mov	dptr,#(_privateKey + 0x005c)
   0836 74 75              1401 	mov	a,#0x75
   0838 F0                 1402 	movx	@dptr,a
   0839 90s13r5D           1403 	mov	dptr,#(_privateKey + 0x005d)
   083C 74 0A              1404 	mov	a,#0x0A
   083E F0                 1405 	movx	@dptr,a
   083F 90s13r5E           1406 	mov	dptr,#(_privateKey + 0x005e)
   0842 74 EF              1407 	mov	a,#0xEF
   0844 F0                 1408 	movx	@dptr,a
   0845 90s13r5F           1409 	mov	dptr,#(_privateKey + 0x005f)
   0848 74 0C              1410 	mov	a,#0x0C
   084A F0                 1411 	movx	@dptr,a
   084B 90s13r60           1412 	mov	dptr,#(_privateKey + 0x0060)
   084E 74 2C              1413 	mov	a,#0x2C
   0850 F0                 1414 	movx	@dptr,a
   0851 90s13r61           1415 	mov	dptr,#(_privateKey + 0x0061)
   0854 74 61              1416 	mov	a,#0x61
   0856 F0                 1417 	movx	@dptr,a
   0857 90s13r62           1418 	mov	dptr,#(_privateKey + 0x0062)
   085A 74 C2              1419 	mov	a,#0xC2
   085C F0                 1420 	movx	@dptr,a
   085D 90s13r63           1421 	mov	dptr,#(_privateKey + 0x0063)
   0860 74 5C              1422 	mov	a,#0x5C
   0862 F0                 1423 	movx	@dptr,a
   0863 90s13r64           1424 	mov	dptr,#(_privateKey + 0x0064)
   0866 74 DC              1425 	mov	a,#0xDC
   0868 F0                 1426 	movx	@dptr,a
   0869 90s13r65           1427 	mov	dptr,#(_privateKey + 0x0065)
   086C 74 95              1428 	mov	a,#0x95
   086E F0                 1429 	movx	@dptr,a
   086F 90s13r66           1430 	mov	dptr,#(_privateKey + 0x0066)
   0872 74 C3              1431 	mov	a,#0xC3
   0874 F0                 1432 	movx	@dptr,a
   0875 90s13r67           1433 	mov	dptr,#(_privateKey + 0x0067)
   0878 74 36              1434 	mov	a,#0x36
   087A F0                 1435 	movx	@dptr,a
   087B 90s13r68           1436 	mov	dptr,#(_privateKey + 0x0068)
   087E 74 63              1437 	mov	a,#0x63
   0880 F0                 1438 	movx	@dptr,a
   0881 90s13r69           1439 	mov	dptr,#(_privateKey + 0x0069)
   0884 74 69              1440 	mov	a,#0x69
   0886 F0                 1441 	movx	@dptr,a
   0887 90s13r6A           1442 	mov	dptr,#(_privateKey + 0x006a)
   088A 74 6A              1443 	mov	a,#0x6A
   088C F0                 1444 	movx	@dptr,a
   088D 90s13r6B           1445 	mov	dptr,#(_privateKey + 0x006b)
   0890 74 76              1446 	mov	a,#0x76
   0892 F0                 1447 	movx	@dptr,a
   0893 90s13r6C           1448 	mov	dptr,#(_privateKey + 0x006c)
   0896 74 64              1449 	mov	a,#0x64
   0898 F0                 1450 	movx	@dptr,a
   0899 90s13r6D           1451 	mov	dptr,#(_privateKey + 0x006d)
   089C 74 D2              1452 	mov	a,#0xD2
   089E F0                 1453 	movx	@dptr,a
   089F 90s13r6E           1454 	mov	dptr,#(_privateKey + 0x006e)
   08A2 74 57              1455 	mov	a,#0x57
   08A4 F0                 1456 	movx	@dptr,a
   08A5 90s13r6F           1457 	mov	dptr,#(_privateKey + 0x006f)
   08A8 74 56              1458 	mov	a,#0x56
   08AA F0                 1459 	movx	@dptr,a
   08AB 90s13r70           1460 	mov	dptr,#(_privateKey + 0x0070)
   08AE 74 7F              1461 	mov	a,#0x7F
   08B0 F0                 1462 	movx	@dptr,a
   08B1 90s13r71           1463 	mov	dptr,#(_privateKey + 0x0071)
   08B4 74 E3              1464 	mov	a,#0xE3
   08B6 F0                 1465 	movx	@dptr,a
   08B7 90s13r72           1466 	mov	dptr,#(_privateKey + 0x0072)
   08BA 74 C9              1467 	mov	a,#0xC9
   08BC F0                 1468 	movx	@dptr,a
   08BD 90s13r73           1469 	mov	dptr,#(_privateKey + 0x0073)
   08C0 74 CA              1470 	mov	a,#0xCA
   08C2 F0                 1471 	movx	@dptr,a
   08C3 90s13r74           1472 	mov	dptr,#(_privateKey + 0x0074)
   08C6 74 11              1473 	mov	a,#0x11
   08C8 F0                 1474 	movx	@dptr,a
   08C9 90s13r75           1475 	mov	dptr,#(_privateKey + 0x0075)
   08CC 74 1F              1476 	mov	a,#0x1F
   08CE F0                 1477 	movx	@dptr,a
   08CF 90s13r76           1478 	mov	dptr,#(_privateKey + 0x0076)
   08D2 74 FD              1479 	mov	a,#0xFD
   08D4 F0                 1480 	movx	@dptr,a
   08D5 90s13r77           1481 	mov	dptr,#(_privateKey + 0x0077)
   08D8 74 FC              1482 	mov	a,#0xFC
   08DA F0                 1483 	movx	@dptr,a
   08DB 90s13r78           1484 	mov	dptr,#(_privateKey + 0x0078)
   08DE 74 1A              1485 	mov	a,#0x1A
   08E0 F0                 1486 	movx	@dptr,a
   08E1 90s13r79           1487 	mov	dptr,#(_privateKey + 0x0079)
   08E4 74 54              1488 	mov	a,#0x54
   08E6 F0                 1489 	movx	@dptr,a
   08E7 90s13r7A           1490 	mov	dptr,#(_privateKey + 0x007a)
   08EA 74 A0              1491 	mov	a,#0xA0
   08EC F0                 1492 	movx	@dptr,a
   08ED 90s13r7B           1493 	mov	dptr,#(_privateKey + 0x007b)
   08F0 74 70              1494 	mov	a,#0x70
   08F2 F0                 1495 	movx	@dptr,a
   08F3 90s13r7C           1496 	mov	dptr,#(_privateKey + 0x007c)
   08F6 74 42              1497 	mov	a,#0x42
   08F8 F0                 1498 	movx	@dptr,a
   08F9 90s13r7D           1499 	mov	dptr,#(_privateKey + 0x007d)
   08FC 74 97              1500 	mov	a,#0x97
   08FE F0                 1501 	movx	@dptr,a
   08FF 90s13r7E           1502 	mov	dptr,#(_privateKey + 0x007e)
   0902 74 F7              1503 	mov	a,#0xF7
   0904 F0                 1504 	movx	@dptr,a
   0905 90s13r7F           1505 	mov	dptr,#(_privateKey + 0x007f)
   0908 74 6D              1506 	mov	a,#0x6D
   090A F0                 1507 	movx	@dptr,a
                           1508 ;	main.c:28: volatile __xdata __at (0x1400) unsigned char rmodm[SIZE] = {0x95, 0x0C, 0x9E, 0x79, 0xEC, 0xD3, 0x0A, 0xE4, 0x35, 0x6B, 0x60, 0xED, 0x25, 0x25, 0x33, 0xD9, 0x26, 0x8C, 0xD1, 0x99, 0xEE, 0x9C, 0x11, 0x8D, 0xBC, 0xBF, 0x68, 0xAA, 0xB3, 0xF9, 0xDF, 0xDC, 0x80, 0xB8, 0x28, 0x60, 0x2B, 0x21, 0x03, 0x89, 0xEF, 0x2C, 0xE6, 0x93, 0x6F, 0xBB, 0xA7, 0x56, 0x28, 0xB5, 0x99, 0xD7, 0x69, 0xDB, 0x6B, 0x09, 0xF7, 0x0B, 0x84, 0xE5, 0xB2, 0xF8, 0x79, 0xC4, 0xD5, 0x7B, 0x06, 0x45, 0xB5, 0x22, 0xC2, 0x28, 0xF8, 0x7A, 0x39, 0x98, 0xE7, 0xA4, 0x54, 0x45, 0xA2, 0x0D, 0xCA, 0xB1, 0x3B, 0x9E, 0x59, 0xF9, 0xFB, 0xAA, 0x30, 0x97, 0x6D, 0x9B, 0x24, 0x6F, 0x74, 0x30, 0xA7, 0xAF, 0xFF, 0x84, 0x2C, 0x49, 0x1B, 0x30, 0x9F, 0xB5, 0x96, 0x3D, 0x8F, 0xC2, 0xF0, 0x3B, 0xFC, 0xD4, 0xB2, 0x78, 0x05, 0xD3, 0xCB, 0x80, 0x88, 0x85, 0x95, 0x7A, 0xB7, 0x64};
   090B 90s14r00           1509 	mov	dptr,#_rmodm
   090E 74 95              1510 	mov	a,#0x95
   0910 F0                 1511 	movx	@dptr,a
   0911 90s14r01           1512 	mov	dptr,#(_rmodm + 0x0001)
   0914 74 0C              1513 	mov	a,#0x0C
   0916 F0                 1514 	movx	@dptr,a
   0917 90s14r02           1515 	mov	dptr,#(_rmodm + 0x0002)
   091A 74 9E              1516 	mov	a,#0x9E
   091C F0                 1517 	movx	@dptr,a
   091D 90s14r03           1518 	mov	dptr,#(_rmodm + 0x0003)
   0920 74 79              1519 	mov	a,#0x79
   0922 F0                 1520 	movx	@dptr,a
   0923 90s14r04           1521 	mov	dptr,#(_rmodm + 0x0004)
   0926 74 EC              1522 	mov	a,#0xEC
   0928 F0                 1523 	movx	@dptr,a
   0929 90s14r05           1524 	mov	dptr,#(_rmodm + 0x0005)
   092C 74 D3              1525 	mov	a,#0xD3
   092E F0                 1526 	movx	@dptr,a
   092F 90s14r06           1527 	mov	dptr,#(_rmodm + 0x0006)
   0932 74 0A              1528 	mov	a,#0x0A
   0934 F0                 1529 	movx	@dptr,a
   0935 90s14r07           1530 	mov	dptr,#(_rmodm + 0x0007)
   0938 74 E4              1531 	mov	a,#0xE4
   093A F0                 1532 	movx	@dptr,a
   093B 90s14r08           1533 	mov	dptr,#(_rmodm + 0x0008)
   093E 74 35              1534 	mov	a,#0x35
   0940 F0                 1535 	movx	@dptr,a
   0941 90s14r09           1536 	mov	dptr,#(_rmodm + 0x0009)
   0944 74 6B              1537 	mov	a,#0x6B
   0946 F0                 1538 	movx	@dptr,a
   0947 90s14r0A           1539 	mov	dptr,#(_rmodm + 0x000a)
   094A 74 60              1540 	mov	a,#0x60
   094C F0                 1541 	movx	@dptr,a
   094D 90s14r0B           1542 	mov	dptr,#(_rmodm + 0x000b)
   0950 74 ED              1543 	mov	a,#0xED
   0952 F0                 1544 	movx	@dptr,a
   0953 90s14r0C           1545 	mov	dptr,#(_rmodm + 0x000c)
   0956 74 25              1546 	mov	a,#0x25
   0958 F0                 1547 	movx	@dptr,a
   0959 90s14r0D           1548 	mov	dptr,#(_rmodm + 0x000d)
   095C 74 25              1549 	mov	a,#0x25
   095E F0                 1550 	movx	@dptr,a
   095F 90s14r0E           1551 	mov	dptr,#(_rmodm + 0x000e)
   0962 74 33              1552 	mov	a,#0x33
   0964 F0                 1553 	movx	@dptr,a
   0965 90s14r0F           1554 	mov	dptr,#(_rmodm + 0x000f)
   0968 74 D9              1555 	mov	a,#0xD9
   096A F0                 1556 	movx	@dptr,a
   096B 90s14r10           1557 	mov	dptr,#(_rmodm + 0x0010)
   096E 74 26              1558 	mov	a,#0x26
   0970 F0                 1559 	movx	@dptr,a
   0971 90s14r11           1560 	mov	dptr,#(_rmodm + 0x0011)
   0974 74 8C              1561 	mov	a,#0x8C
   0976 F0                 1562 	movx	@dptr,a
   0977 90s14r12           1563 	mov	dptr,#(_rmodm + 0x0012)
   097A 74 D1              1564 	mov	a,#0xD1
   097C F0                 1565 	movx	@dptr,a
   097D 90s14r13           1566 	mov	dptr,#(_rmodm + 0x0013)
   0980 74 99              1567 	mov	a,#0x99
   0982 F0                 1568 	movx	@dptr,a
   0983 90s14r14           1569 	mov	dptr,#(_rmodm + 0x0014)
   0986 74 EE              1570 	mov	a,#0xEE
   0988 F0                 1571 	movx	@dptr,a
   0989 90s14r15           1572 	mov	dptr,#(_rmodm + 0x0015)
   098C 74 9C              1573 	mov	a,#0x9C
   098E F0                 1574 	movx	@dptr,a
   098F 90s14r16           1575 	mov	dptr,#(_rmodm + 0x0016)
   0992 74 11              1576 	mov	a,#0x11
   0994 F0                 1577 	movx	@dptr,a
   0995 90s14r17           1578 	mov	dptr,#(_rmodm + 0x0017)
   0998 74 8D              1579 	mov	a,#0x8D
   099A F0                 1580 	movx	@dptr,a
   099B 90s14r18           1581 	mov	dptr,#(_rmodm + 0x0018)
   099E 74 BC              1582 	mov	a,#0xBC
   09A0 F0                 1583 	movx	@dptr,a
   09A1 90s14r19           1584 	mov	dptr,#(_rmodm + 0x0019)
   09A4 74 BF              1585 	mov	a,#0xBF
   09A6 F0                 1586 	movx	@dptr,a
   09A7 90s14r1A           1587 	mov	dptr,#(_rmodm + 0x001a)
   09AA 74 68              1588 	mov	a,#0x68
   09AC F0                 1589 	movx	@dptr,a
   09AD 90s14r1B           1590 	mov	dptr,#(_rmodm + 0x001b)
   09B0 74 AA              1591 	mov	a,#0xAA
   09B2 F0                 1592 	movx	@dptr,a
   09B3 90s14r1C           1593 	mov	dptr,#(_rmodm + 0x001c)
   09B6 74 B3              1594 	mov	a,#0xB3
   09B8 F0                 1595 	movx	@dptr,a
   09B9 90s14r1D           1596 	mov	dptr,#(_rmodm + 0x001d)
   09BC 74 F9              1597 	mov	a,#0xF9
   09BE F0                 1598 	movx	@dptr,a
   09BF 90s14r1E           1599 	mov	dptr,#(_rmodm + 0x001e)
   09C2 74 DF              1600 	mov	a,#0xDF
   09C4 F0                 1601 	movx	@dptr,a
   09C5 90s14r1F           1602 	mov	dptr,#(_rmodm + 0x001f)
   09C8 74 DC              1603 	mov	a,#0xDC
   09CA F0                 1604 	movx	@dptr,a
   09CB 90s14r20           1605 	mov	dptr,#(_rmodm + 0x0020)
   09CE 74 80              1606 	mov	a,#0x80
   09D0 F0                 1607 	movx	@dptr,a
   09D1 90s14r21           1608 	mov	dptr,#(_rmodm + 0x0021)
   09D4 74 B8              1609 	mov	a,#0xB8
   09D6 F0                 1610 	movx	@dptr,a
   09D7 90s14r22           1611 	mov	dptr,#(_rmodm + 0x0022)
   09DA 74 28              1612 	mov	a,#0x28
   09DC F0                 1613 	movx	@dptr,a
   09DD 90s14r23           1614 	mov	dptr,#(_rmodm + 0x0023)
   09E0 74 60              1615 	mov	a,#0x60
   09E2 F0                 1616 	movx	@dptr,a
   09E3 90s14r24           1617 	mov	dptr,#(_rmodm + 0x0024)
   09E6 74 2B              1618 	mov	a,#0x2B
   09E8 F0                 1619 	movx	@dptr,a
   09E9 90s14r25           1620 	mov	dptr,#(_rmodm + 0x0025)
   09EC 74 21              1621 	mov	a,#0x21
   09EE F0                 1622 	movx	@dptr,a
   09EF 90s14r26           1623 	mov	dptr,#(_rmodm + 0x0026)
   09F2 74 03              1624 	mov	a,#0x03
   09F4 F0                 1625 	movx	@dptr,a
   09F5 90s14r27           1626 	mov	dptr,#(_rmodm + 0x0027)
   09F8 74 89              1627 	mov	a,#0x89
   09FA F0                 1628 	movx	@dptr,a
   09FB 90s14r28           1629 	mov	dptr,#(_rmodm + 0x0028)
   09FE 74 EF              1630 	mov	a,#0xEF
   0A00 F0                 1631 	movx	@dptr,a
   0A01 90s14r29           1632 	mov	dptr,#(_rmodm + 0x0029)
   0A04 74 2C              1633 	mov	a,#0x2C
   0A06 F0                 1634 	movx	@dptr,a
   0A07 90s14r2A           1635 	mov	dptr,#(_rmodm + 0x002a)
   0A0A 74 E6              1636 	mov	a,#0xE6
   0A0C F0                 1637 	movx	@dptr,a
   0A0D 90s14r2B           1638 	mov	dptr,#(_rmodm + 0x002b)
   0A10 74 93              1639 	mov	a,#0x93
   0A12 F0                 1640 	movx	@dptr,a
   0A13 90s14r2C           1641 	mov	dptr,#(_rmodm + 0x002c)
   0A16 74 6F              1642 	mov	a,#0x6F
   0A18 F0                 1643 	movx	@dptr,a
   0A19 90s14r2D           1644 	mov	dptr,#(_rmodm + 0x002d)
   0A1C 74 BB              1645 	mov	a,#0xBB
   0A1E F0                 1646 	movx	@dptr,a
   0A1F 90s14r2E           1647 	mov	dptr,#(_rmodm + 0x002e)
   0A22 74 A7              1648 	mov	a,#0xA7
   0A24 F0                 1649 	movx	@dptr,a
   0A25 90s14r2F           1650 	mov	dptr,#(_rmodm + 0x002f)
   0A28 74 56              1651 	mov	a,#0x56
   0A2A F0                 1652 	movx	@dptr,a
   0A2B 90s14r30           1653 	mov	dptr,#(_rmodm + 0x0030)
   0A2E 74 28              1654 	mov	a,#0x28
   0A30 F0                 1655 	movx	@dptr,a
   0A31 90s14r31           1656 	mov	dptr,#(_rmodm + 0x0031)
   0A34 74 B5              1657 	mov	a,#0xB5
   0A36 F0                 1658 	movx	@dptr,a
   0A37 90s14r32           1659 	mov	dptr,#(_rmodm + 0x0032)
   0A3A 74 99              1660 	mov	a,#0x99
   0A3C F0                 1661 	movx	@dptr,a
   0A3D 90s14r33           1662 	mov	dptr,#(_rmodm + 0x0033)
   0A40 74 D7              1663 	mov	a,#0xD7
   0A42 F0                 1664 	movx	@dptr,a
   0A43 90s14r34           1665 	mov	dptr,#(_rmodm + 0x0034)
   0A46 74 69              1666 	mov	a,#0x69
   0A48 F0                 1667 	movx	@dptr,a
   0A49 90s14r35           1668 	mov	dptr,#(_rmodm + 0x0035)
   0A4C 74 DB              1669 	mov	a,#0xDB
   0A4E F0                 1670 	movx	@dptr,a
   0A4F 90s14r36           1671 	mov	dptr,#(_rmodm + 0x0036)
   0A52 74 6B              1672 	mov	a,#0x6B
   0A54 F0                 1673 	movx	@dptr,a
   0A55 90s14r37           1674 	mov	dptr,#(_rmodm + 0x0037)
   0A58 74 09              1675 	mov	a,#0x09
   0A5A F0                 1676 	movx	@dptr,a
   0A5B 90s14r38           1677 	mov	dptr,#(_rmodm + 0x0038)
   0A5E 74 F7              1678 	mov	a,#0xF7
   0A60 F0                 1679 	movx	@dptr,a
   0A61 90s14r39           1680 	mov	dptr,#(_rmodm + 0x0039)
   0A64 74 0B              1681 	mov	a,#0x0B
   0A66 F0                 1682 	movx	@dptr,a
   0A67 90s14r3A           1683 	mov	dptr,#(_rmodm + 0x003a)
   0A6A 74 84              1684 	mov	a,#0x84
   0A6C F0                 1685 	movx	@dptr,a
   0A6D 90s14r3B           1686 	mov	dptr,#(_rmodm + 0x003b)
   0A70 74 E5              1687 	mov	a,#0xE5
   0A72 F0                 1688 	movx	@dptr,a
   0A73 90s14r3C           1689 	mov	dptr,#(_rmodm + 0x003c)
   0A76 74 B2              1690 	mov	a,#0xB2
   0A78 F0                 1691 	movx	@dptr,a
   0A79 90s14r3D           1692 	mov	dptr,#(_rmodm + 0x003d)
   0A7C 74 F8              1693 	mov	a,#0xF8
   0A7E F0                 1694 	movx	@dptr,a
   0A7F 90s14r3E           1695 	mov	dptr,#(_rmodm + 0x003e)
   0A82 74 79              1696 	mov	a,#0x79
   0A84 F0                 1697 	movx	@dptr,a
   0A85 90s14r3F           1698 	mov	dptr,#(_rmodm + 0x003f)
   0A88 74 C4              1699 	mov	a,#0xC4
   0A8A F0                 1700 	movx	@dptr,a
   0A8B 90s14r40           1701 	mov	dptr,#(_rmodm + 0x0040)
   0A8E 74 D5              1702 	mov	a,#0xD5
   0A90 F0                 1703 	movx	@dptr,a
   0A91 90s14r41           1704 	mov	dptr,#(_rmodm + 0x0041)
   0A94 74 7B              1705 	mov	a,#0x7B
   0A96 F0                 1706 	movx	@dptr,a
   0A97 90s14r42           1707 	mov	dptr,#(_rmodm + 0x0042)
   0A9A 74 06              1708 	mov	a,#0x06
   0A9C F0                 1709 	movx	@dptr,a
   0A9D 90s14r43           1710 	mov	dptr,#(_rmodm + 0x0043)
   0AA0 74 45              1711 	mov	a,#0x45
   0AA2 F0                 1712 	movx	@dptr,a
   0AA3 90s14r44           1713 	mov	dptr,#(_rmodm + 0x0044)
   0AA6 74 B5              1714 	mov	a,#0xB5
   0AA8 F0                 1715 	movx	@dptr,a
   0AA9 90s14r45           1716 	mov	dptr,#(_rmodm + 0x0045)
   0AAC 74 22              1717 	mov	a,#0x22
   0AAE F0                 1718 	movx	@dptr,a
   0AAF 90s14r46           1719 	mov	dptr,#(_rmodm + 0x0046)
   0AB2 74 C2              1720 	mov	a,#0xC2
   0AB4 F0                 1721 	movx	@dptr,a
   0AB5 90s14r47           1722 	mov	dptr,#(_rmodm + 0x0047)
   0AB8 74 28              1723 	mov	a,#0x28
   0ABA F0                 1724 	movx	@dptr,a
   0ABB 90s14r48           1725 	mov	dptr,#(_rmodm + 0x0048)
   0ABE 74 F8              1726 	mov	a,#0xF8
   0AC0 F0                 1727 	movx	@dptr,a
   0AC1 90s14r49           1728 	mov	dptr,#(_rmodm + 0x0049)
   0AC4 74 7A              1729 	mov	a,#0x7A
   0AC6 F0                 1730 	movx	@dptr,a
   0AC7 90s14r4A           1731 	mov	dptr,#(_rmodm + 0x004a)
   0ACA 74 39              1732 	mov	a,#0x39
   0ACC F0                 1733 	movx	@dptr,a
   0ACD 90s14r4B           1734 	mov	dptr,#(_rmodm + 0x004b)
   0AD0 74 98              1735 	mov	a,#0x98
   0AD2 F0                 1736 	movx	@dptr,a
   0AD3 90s14r4C           1737 	mov	dptr,#(_rmodm + 0x004c)
   0AD6 74 E7              1738 	mov	a,#0xE7
   0AD8 F0                 1739 	movx	@dptr,a
   0AD9 90s14r4D           1740 	mov	dptr,#(_rmodm + 0x004d)
   0ADC 74 A4              1741 	mov	a,#0xA4
   0ADE F0                 1742 	movx	@dptr,a
   0ADF 90s14r4E           1743 	mov	dptr,#(_rmodm + 0x004e)
   0AE2 74 54              1744 	mov	a,#0x54
   0AE4 F0                 1745 	movx	@dptr,a
   0AE5 90s14r4F           1746 	mov	dptr,#(_rmodm + 0x004f)
   0AE8 74 45              1747 	mov	a,#0x45
   0AEA F0                 1748 	movx	@dptr,a
   0AEB 90s14r50           1749 	mov	dptr,#(_rmodm + 0x0050)
   0AEE 74 A2              1750 	mov	a,#0xA2
   0AF0 F0                 1751 	movx	@dptr,a
   0AF1 90s14r51           1752 	mov	dptr,#(_rmodm + 0x0051)
   0AF4 74 0D              1753 	mov	a,#0x0D
   0AF6 F0                 1754 	movx	@dptr,a
   0AF7 90s14r52           1755 	mov	dptr,#(_rmodm + 0x0052)
   0AFA 74 CA              1756 	mov	a,#0xCA
   0AFC F0                 1757 	movx	@dptr,a
   0AFD 90s14r53           1758 	mov	dptr,#(_rmodm + 0x0053)
   0B00 74 B1              1759 	mov	a,#0xB1
   0B02 F0                 1760 	movx	@dptr,a
   0B03 90s14r54           1761 	mov	dptr,#(_rmodm + 0x0054)
   0B06 74 3B              1762 	mov	a,#0x3B
   0B08 F0                 1763 	movx	@dptr,a
   0B09 90s14r55           1764 	mov	dptr,#(_rmodm + 0x0055)
   0B0C 74 9E              1765 	mov	a,#0x9E
   0B0E F0                 1766 	movx	@dptr,a
   0B0F 90s14r56           1767 	mov	dptr,#(_rmodm + 0x0056)
   0B12 74 59              1768 	mov	a,#0x59
   0B14 F0                 1769 	movx	@dptr,a
   0B15 90s14r57           1770 	mov	dptr,#(_rmodm + 0x0057)
   0B18 74 F9              1771 	mov	a,#0xF9
   0B1A F0                 1772 	movx	@dptr,a
   0B1B 90s14r58           1773 	mov	dptr,#(_rmodm + 0x0058)
   0B1E 74 FB              1774 	mov	a,#0xFB
   0B20 F0                 1775 	movx	@dptr,a
   0B21 90s14r59           1776 	mov	dptr,#(_rmodm + 0x0059)
   0B24 74 AA              1777 	mov	a,#0xAA
   0B26 F0                 1778 	movx	@dptr,a
   0B27 90s14r5A           1779 	mov	dptr,#(_rmodm + 0x005a)
   0B2A 74 30              1780 	mov	a,#0x30
   0B2C F0                 1781 	movx	@dptr,a
   0B2D 90s14r5B           1782 	mov	dptr,#(_rmodm + 0x005b)
   0B30 74 97              1783 	mov	a,#0x97
   0B32 F0                 1784 	movx	@dptr,a
   0B33 90s14r5C           1785 	mov	dptr,#(_rmodm + 0x005c)
   0B36 74 6D              1786 	mov	a,#0x6D
   0B38 F0                 1787 	movx	@dptr,a
   0B39 90s14r5D           1788 	mov	dptr,#(_rmodm + 0x005d)
   0B3C 74 9B              1789 	mov	a,#0x9B
   0B3E F0                 1790 	movx	@dptr,a
   0B3F 90s14r5E           1791 	mov	dptr,#(_rmodm + 0x005e)
   0B42 74 24              1792 	mov	a,#0x24
   0B44 F0                 1793 	movx	@dptr,a
   0B45 90s14r5F           1794 	mov	dptr,#(_rmodm + 0x005f)
   0B48 74 6F              1795 	mov	a,#0x6F
   0B4A F0                 1796 	movx	@dptr,a
   0B4B 90s14r60           1797 	mov	dptr,#(_rmodm + 0x0060)
   0B4E 74 74              1798 	mov	a,#0x74
   0B50 F0                 1799 	movx	@dptr,a
   0B51 90s14r61           1800 	mov	dptr,#(_rmodm + 0x0061)
   0B54 74 30              1801 	mov	a,#0x30
   0B56 F0                 1802 	movx	@dptr,a
   0B57 90s14r62           1803 	mov	dptr,#(_rmodm + 0x0062)
   0B5A 74 A7              1804 	mov	a,#0xA7
   0B5C F0                 1805 	movx	@dptr,a
   0B5D 90s14r63           1806 	mov	dptr,#(_rmodm + 0x0063)
   0B60 74 AF              1807 	mov	a,#0xAF
   0B62 F0                 1808 	movx	@dptr,a
   0B63 90s14r64           1809 	mov	dptr,#(_rmodm + 0x0064)
   0B66 74 FF              1810 	mov	a,#0xFF
   0B68 F0                 1811 	movx	@dptr,a
   0B69 90s14r65           1812 	mov	dptr,#(_rmodm + 0x0065)
   0B6C 74 84              1813 	mov	a,#0x84
   0B6E F0                 1814 	movx	@dptr,a
   0B6F 90s14r66           1815 	mov	dptr,#(_rmodm + 0x0066)
   0B72 74 2C              1816 	mov	a,#0x2C
   0B74 F0                 1817 	movx	@dptr,a
   0B75 90s14r67           1818 	mov	dptr,#(_rmodm + 0x0067)
   0B78 74 49              1819 	mov	a,#0x49
   0B7A F0                 1820 	movx	@dptr,a
   0B7B 90s14r68           1821 	mov	dptr,#(_rmodm + 0x0068)
   0B7E 74 1B              1822 	mov	a,#0x1B
   0B80 F0                 1823 	movx	@dptr,a
   0B81 90s14r69           1824 	mov	dptr,#(_rmodm + 0x0069)
   0B84 74 30              1825 	mov	a,#0x30
   0B86 F0                 1826 	movx	@dptr,a
   0B87 90s14r6A           1827 	mov	dptr,#(_rmodm + 0x006a)
   0B8A 74 9F              1828 	mov	a,#0x9F
   0B8C F0                 1829 	movx	@dptr,a
   0B8D 90s14r6B           1830 	mov	dptr,#(_rmodm + 0x006b)
   0B90 74 B5              1831 	mov	a,#0xB5
   0B92 F0                 1832 	movx	@dptr,a
   0B93 90s14r6C           1833 	mov	dptr,#(_rmodm + 0x006c)
   0B96 74 96              1834 	mov	a,#0x96
   0B98 F0                 1835 	movx	@dptr,a
   0B99 90s14r6D           1836 	mov	dptr,#(_rmodm + 0x006d)
   0B9C 74 3D              1837 	mov	a,#0x3D
   0B9E F0                 1838 	movx	@dptr,a
   0B9F 90s14r6E           1839 	mov	dptr,#(_rmodm + 0x006e)
   0BA2 74 8F              1840 	mov	a,#0x8F
   0BA4 F0                 1841 	movx	@dptr,a
   0BA5 90s14r6F           1842 	mov	dptr,#(_rmodm + 0x006f)
   0BA8 74 C2              1843 	mov	a,#0xC2
   0BAA F0                 1844 	movx	@dptr,a
   0BAB 90s14r70           1845 	mov	dptr,#(_rmodm + 0x0070)
   0BAE 74 F0              1846 	mov	a,#0xF0
   0BB0 F0                 1847 	movx	@dptr,a
   0BB1 90s14r71           1848 	mov	dptr,#(_rmodm + 0x0071)
   0BB4 74 3B              1849 	mov	a,#0x3B
   0BB6 F0                 1850 	movx	@dptr,a
   0BB7 90s14r72           1851 	mov	dptr,#(_rmodm + 0x0072)
   0BBA 74 FC              1852 	mov	a,#0xFC
   0BBC F0                 1853 	movx	@dptr,a
   0BBD 90s14r73           1854 	mov	dptr,#(_rmodm + 0x0073)
   0BC0 74 D4              1855 	mov	a,#0xD4
   0BC2 F0                 1856 	movx	@dptr,a
   0BC3 90s14r74           1857 	mov	dptr,#(_rmodm + 0x0074)
   0BC6 74 B2              1858 	mov	a,#0xB2
   0BC8 F0                 1859 	movx	@dptr,a
   0BC9 90s14r75           1860 	mov	dptr,#(_rmodm + 0x0075)
   0BCC 74 78              1861 	mov	a,#0x78
   0BCE F0                 1862 	movx	@dptr,a
   0BCF 90s14r76           1863 	mov	dptr,#(_rmodm + 0x0076)
   0BD2 74 05              1864 	mov	a,#0x05
   0BD4 F0                 1865 	movx	@dptr,a
   0BD5 90s14r77           1866 	mov	dptr,#(_rmodm + 0x0077)
   0BD8 74 D3              1867 	mov	a,#0xD3
   0BDA F0                 1868 	movx	@dptr,a
   0BDB 90s14r78           1869 	mov	dptr,#(_rmodm + 0x0078)
   0BDE 74 CB              1870 	mov	a,#0xCB
   0BE0 F0                 1871 	movx	@dptr,a
   0BE1 90s14r79           1872 	mov	dptr,#(_rmodm + 0x0079)
   0BE4 74 80              1873 	mov	a,#0x80
   0BE6 F0                 1874 	movx	@dptr,a
   0BE7 90s14r7A           1875 	mov	dptr,#(_rmodm + 0x007a)
   0BEA 74 88              1876 	mov	a,#0x88
   0BEC F0                 1877 	movx	@dptr,a
   0BED 90s14r7B           1878 	mov	dptr,#(_rmodm + 0x007b)
   0BF0 74 85              1879 	mov	a,#0x85
   0BF2 F0                 1880 	movx	@dptr,a
   0BF3 90s14r7C           1881 	mov	dptr,#(_rmodm + 0x007c)
   0BF6 74 95              1882 	mov	a,#0x95
   0BF8 F0                 1883 	movx	@dptr,a
   0BF9 90s14r7D           1884 	mov	dptr,#(_rmodm + 0x007d)
   0BFC 74 7A              1885 	mov	a,#0x7A
   0BFE F0                 1886 	movx	@dptr,a
   0BFF 90s14r7E           1887 	mov	dptr,#(_rmodm + 0x007e)
   0C02 74 B7              1888 	mov	a,#0xB7
   0C04 F0                 1889 	movx	@dptr,a
   0C05 90s14r7F           1890 	mov	dptr,#(_rmodm + 0x007f)
   0C08 74 64              1891 	mov	a,#0x64
   0C0A F0                 1892 	movx	@dptr,a
                           1893 ;	main.c:29: volatile __xdata __at (0x1500) unsigned char r2modm[SIZE] = {0xE4, 0xC4, 0x31, 0x31, 0x08, 0x64, 0x1B, 0xC5, 0x40, 0x21, 0xD5, 0x3F, 0x82, 0x98, 0xB5, 0x8B, 0x0C, 0xDA, 0xDE, 0x0A, 0x73, 0xD6, 0x75, 0x80, 0x81, 0x7B, 0xAF, 0x90, 0x51, 0xA2, 0x22, 0xDF, 0x60, 0xAD, 0x1A, 0x5A, 0x69, 0x4E, 0x87, 0xF5, 0x82, 0x19, 0xC7, 0xDD, 0xAF, 0xEB, 0x7A, 0x3E, 0xF3, 0xDA, 0xB1, 0xE1, 0xED, 0xD2, 0x2E, 0x26, 0x7D, 0xD5, 0xB7, 0xC3, 0x13, 0x09, 0xD5, 0x11, 0xDE, 0x9E, 0x12, 0x6A, 0x51, 0xF5, 0x83, 0x1B, 0xDE, 0xAB, 0x6D, 0xD7, 0xAD, 0x32, 0x07, 0x6C, 0x95, 0x2A, 0x56, 0xFF, 0xD7, 0xE7, 0x00, 0x85, 0xBE, 0xB4, 0x3E, 0xEF, 0x73, 0x88, 0x75, 0xD9, 0x5C, 0x6A, 0xB1, 0x58, 0x4A, 0xBC, 0x80, 0x53, 0x63, 0x48, 0xFD, 0xA0, 0xFC, 0xAD, 0xD9, 0x34, 0xFB, 0xD3, 0xA9, 0xE8, 0x18, 0x32, 0x33, 0x78, 0xB0, 0x08, 0xE4, 0x7B, 0x59, 0xF2, 0x45, 0x8A};
   0C0B 90s15r00           1894 	mov	dptr,#_r2modm
   0C0E 74 E4              1895 	mov	a,#0xE4
   0C10 F0                 1896 	movx	@dptr,a
   0C11 90s15r01           1897 	mov	dptr,#(_r2modm + 0x0001)
   0C14 74 C4              1898 	mov	a,#0xC4
   0C16 F0                 1899 	movx	@dptr,a
   0C17 90s15r02           1900 	mov	dptr,#(_r2modm + 0x0002)
   0C1A 74 31              1901 	mov	a,#0x31
   0C1C F0                 1902 	movx	@dptr,a
   0C1D 90s15r03           1903 	mov	dptr,#(_r2modm + 0x0003)
   0C20 74 31              1904 	mov	a,#0x31
   0C22 F0                 1905 	movx	@dptr,a
   0C23 90s15r04           1906 	mov	dptr,#(_r2modm + 0x0004)
   0C26 74 08              1907 	mov	a,#0x08
   0C28 F0                 1908 	movx	@dptr,a
   0C29 90s15r05           1909 	mov	dptr,#(_r2modm + 0x0005)
   0C2C 74 64              1910 	mov	a,#0x64
   0C2E F0                 1911 	movx	@dptr,a
   0C2F 90s15r06           1912 	mov	dptr,#(_r2modm + 0x0006)
   0C32 74 1B              1913 	mov	a,#0x1B
   0C34 F0                 1914 	movx	@dptr,a
   0C35 90s15r07           1915 	mov	dptr,#(_r2modm + 0x0007)
   0C38 74 C5              1916 	mov	a,#0xC5
   0C3A F0                 1917 	movx	@dptr,a
   0C3B 90s15r08           1918 	mov	dptr,#(_r2modm + 0x0008)
   0C3E 74 40              1919 	mov	a,#0x40
   0C40 F0                 1920 	movx	@dptr,a
   0C41 90s15r09           1921 	mov	dptr,#(_r2modm + 0x0009)
   0C44 74 21              1922 	mov	a,#0x21
   0C46 F0                 1923 	movx	@dptr,a
   0C47 90s15r0A           1924 	mov	dptr,#(_r2modm + 0x000a)
   0C4A 74 D5              1925 	mov	a,#0xD5
   0C4C F0                 1926 	movx	@dptr,a
   0C4D 90s15r0B           1927 	mov	dptr,#(_r2modm + 0x000b)
   0C50 74 3F              1928 	mov	a,#0x3F
   0C52 F0                 1929 	movx	@dptr,a
   0C53 90s15r0C           1930 	mov	dptr,#(_r2modm + 0x000c)
   0C56 74 82              1931 	mov	a,#0x82
   0C58 F0                 1932 	movx	@dptr,a
   0C59 90s15r0D           1933 	mov	dptr,#(_r2modm + 0x000d)
   0C5C 74 98              1934 	mov	a,#0x98
   0C5E F0                 1935 	movx	@dptr,a
   0C5F 90s15r0E           1936 	mov	dptr,#(_r2modm + 0x000e)
   0C62 74 B5              1937 	mov	a,#0xB5
   0C64 F0                 1938 	movx	@dptr,a
   0C65 90s15r0F           1939 	mov	dptr,#(_r2modm + 0x000f)
   0C68 74 8B              1940 	mov	a,#0x8B
   0C6A F0                 1941 	movx	@dptr,a
   0C6B 90s15r10           1942 	mov	dptr,#(_r2modm + 0x0010)
   0C6E 74 0C              1943 	mov	a,#0x0C
   0C70 F0                 1944 	movx	@dptr,a
   0C71 90s15r11           1945 	mov	dptr,#(_r2modm + 0x0011)
   0C74 74 DA              1946 	mov	a,#0xDA
   0C76 F0                 1947 	movx	@dptr,a
   0C77 90s15r12           1948 	mov	dptr,#(_r2modm + 0x0012)
   0C7A 74 DE              1949 	mov	a,#0xDE
   0C7C F0                 1950 	movx	@dptr,a
   0C7D 90s15r13           1951 	mov	dptr,#(_r2modm + 0x0013)
   0C80 74 0A              1952 	mov	a,#0x0A
   0C82 F0                 1953 	movx	@dptr,a
   0C83 90s15r14           1954 	mov	dptr,#(_r2modm + 0x0014)
   0C86 74 73              1955 	mov	a,#0x73
   0C88 F0                 1956 	movx	@dptr,a
   0C89 90s15r15           1957 	mov	dptr,#(_r2modm + 0x0015)
   0C8C 74 D6              1958 	mov	a,#0xD6
   0C8E F0                 1959 	movx	@dptr,a
   0C8F 90s15r16           1960 	mov	dptr,#(_r2modm + 0x0016)
   0C92 74 75              1961 	mov	a,#0x75
   0C94 F0                 1962 	movx	@dptr,a
   0C95 90s15r17           1963 	mov	dptr,#(_r2modm + 0x0017)
   0C98 74 80              1964 	mov	a,#0x80
   0C9A F0                 1965 	movx	@dptr,a
   0C9B 90s15r18           1966 	mov	dptr,#(_r2modm + 0x0018)
   0C9E 74 81              1967 	mov	a,#0x81
   0CA0 F0                 1968 	movx	@dptr,a
   0CA1 90s15r19           1969 	mov	dptr,#(_r2modm + 0x0019)
   0CA4 74 7B              1970 	mov	a,#0x7B
   0CA6 F0                 1971 	movx	@dptr,a
   0CA7 90s15r1A           1972 	mov	dptr,#(_r2modm + 0x001a)
   0CAA 74 AF              1973 	mov	a,#0xAF
   0CAC F0                 1974 	movx	@dptr,a
   0CAD 90s15r1B           1975 	mov	dptr,#(_r2modm + 0x001b)
   0CB0 74 90              1976 	mov	a,#0x90
   0CB2 F0                 1977 	movx	@dptr,a
   0CB3 90s15r1C           1978 	mov	dptr,#(_r2modm + 0x001c)
   0CB6 74 51              1979 	mov	a,#0x51
   0CB8 F0                 1980 	movx	@dptr,a
   0CB9 90s15r1D           1981 	mov	dptr,#(_r2modm + 0x001d)
   0CBC 74 A2              1982 	mov	a,#0xA2
   0CBE F0                 1983 	movx	@dptr,a
   0CBF 90s15r1E           1984 	mov	dptr,#(_r2modm + 0x001e)
   0CC2 74 22              1985 	mov	a,#0x22
   0CC4 F0                 1986 	movx	@dptr,a
   0CC5 90s15r1F           1987 	mov	dptr,#(_r2modm + 0x001f)
   0CC8 74 DF              1988 	mov	a,#0xDF
   0CCA F0                 1989 	movx	@dptr,a
   0CCB 90s15r20           1990 	mov	dptr,#(_r2modm + 0x0020)
   0CCE 74 60              1991 	mov	a,#0x60
   0CD0 F0                 1992 	movx	@dptr,a
   0CD1 90s15r21           1993 	mov	dptr,#(_r2modm + 0x0021)
   0CD4 74 AD              1994 	mov	a,#0xAD
   0CD6 F0                 1995 	movx	@dptr,a
   0CD7 90s15r22           1996 	mov	dptr,#(_r2modm + 0x0022)
   0CDA 74 1A              1997 	mov	a,#0x1A
   0CDC F0                 1998 	movx	@dptr,a
   0CDD 90s15r23           1999 	mov	dptr,#(_r2modm + 0x0023)
   0CE0 74 5A              2000 	mov	a,#0x5A
   0CE2 F0                 2001 	movx	@dptr,a
   0CE3 90s15r24           2002 	mov	dptr,#(_r2modm + 0x0024)
   0CE6 74 69              2003 	mov	a,#0x69
   0CE8 F0                 2004 	movx	@dptr,a
   0CE9 90s15r25           2005 	mov	dptr,#(_r2modm + 0x0025)
   0CEC 74 4E              2006 	mov	a,#0x4E
   0CEE F0                 2007 	movx	@dptr,a
   0CEF 90s15r26           2008 	mov	dptr,#(_r2modm + 0x0026)
   0CF2 74 87              2009 	mov	a,#0x87
   0CF4 F0                 2010 	movx	@dptr,a
   0CF5 90s15r27           2011 	mov	dptr,#(_r2modm + 0x0027)
   0CF8 74 F5              2012 	mov	a,#0xF5
   0CFA F0                 2013 	movx	@dptr,a
   0CFB 90s15r28           2014 	mov	dptr,#(_r2modm + 0x0028)
   0CFE 74 82              2015 	mov	a,#0x82
   0D00 F0                 2016 	movx	@dptr,a
   0D01 90s15r29           2017 	mov	dptr,#(_r2modm + 0x0029)
   0D04 74 19              2018 	mov	a,#0x19
   0D06 F0                 2019 	movx	@dptr,a
   0D07 90s15r2A           2020 	mov	dptr,#(_r2modm + 0x002a)
   0D0A 74 C7              2021 	mov	a,#0xC7
   0D0C F0                 2022 	movx	@dptr,a
   0D0D 90s15r2B           2023 	mov	dptr,#(_r2modm + 0x002b)
   0D10 74 DD              2024 	mov	a,#0xDD
   0D12 F0                 2025 	movx	@dptr,a
   0D13 90s15r2C           2026 	mov	dptr,#(_r2modm + 0x002c)
   0D16 74 AF              2027 	mov	a,#0xAF
   0D18 F0                 2028 	movx	@dptr,a
   0D19 90s15r2D           2029 	mov	dptr,#(_r2modm + 0x002d)
   0D1C 74 EB              2030 	mov	a,#0xEB
   0D1E F0                 2031 	movx	@dptr,a
   0D1F 90s15r2E           2032 	mov	dptr,#(_r2modm + 0x002e)
   0D22 74 7A              2033 	mov	a,#0x7A
   0D24 F0                 2034 	movx	@dptr,a
   0D25 90s15r2F           2035 	mov	dptr,#(_r2modm + 0x002f)
   0D28 74 3E              2036 	mov	a,#0x3E
   0D2A F0                 2037 	movx	@dptr,a
   0D2B 90s15r30           2038 	mov	dptr,#(_r2modm + 0x0030)
   0D2E 74 F3              2039 	mov	a,#0xF3
   0D30 F0                 2040 	movx	@dptr,a
   0D31 90s15r31           2041 	mov	dptr,#(_r2modm + 0x0031)
   0D34 74 DA              2042 	mov	a,#0xDA
   0D36 F0                 2043 	movx	@dptr,a
   0D37 90s15r32           2044 	mov	dptr,#(_r2modm + 0x0032)
   0D3A 74 B1              2045 	mov	a,#0xB1
   0D3C F0                 2046 	movx	@dptr,a
   0D3D 90s15r33           2047 	mov	dptr,#(_r2modm + 0x0033)
   0D40 74 E1              2048 	mov	a,#0xE1
   0D42 F0                 2049 	movx	@dptr,a
   0D43 90s15r34           2050 	mov	dptr,#(_r2modm + 0x0034)
   0D46 74 ED              2051 	mov	a,#0xED
   0D48 F0                 2052 	movx	@dptr,a
   0D49 90s15r35           2053 	mov	dptr,#(_r2modm + 0x0035)
   0D4C 74 D2              2054 	mov	a,#0xD2
   0D4E F0                 2055 	movx	@dptr,a
   0D4F 90s15r36           2056 	mov	dptr,#(_r2modm + 0x0036)
   0D52 74 2E              2057 	mov	a,#0x2E
   0D54 F0                 2058 	movx	@dptr,a
   0D55 90s15r37           2059 	mov	dptr,#(_r2modm + 0x0037)
   0D58 74 26              2060 	mov	a,#0x26
   0D5A F0                 2061 	movx	@dptr,a
   0D5B 90s15r38           2062 	mov	dptr,#(_r2modm + 0x0038)
   0D5E 74 7D              2063 	mov	a,#0x7D
   0D60 F0                 2064 	movx	@dptr,a
   0D61 90s15r39           2065 	mov	dptr,#(_r2modm + 0x0039)
   0D64 74 D5              2066 	mov	a,#0xD5
   0D66 F0                 2067 	movx	@dptr,a
   0D67 90s15r3A           2068 	mov	dptr,#(_r2modm + 0x003a)
   0D6A 74 B7              2069 	mov	a,#0xB7
   0D6C F0                 2070 	movx	@dptr,a
   0D6D 90s15r3B           2071 	mov	dptr,#(_r2modm + 0x003b)
   0D70 74 C3              2072 	mov	a,#0xC3
   0D72 F0                 2073 	movx	@dptr,a
   0D73 90s15r3C           2074 	mov	dptr,#(_r2modm + 0x003c)
   0D76 74 13              2075 	mov	a,#0x13
   0D78 F0                 2076 	movx	@dptr,a
   0D79 90s15r3D           2077 	mov	dptr,#(_r2modm + 0x003d)
   0D7C 74 09              2078 	mov	a,#0x09
   0D7E F0                 2079 	movx	@dptr,a
   0D7F 90s15r3E           2080 	mov	dptr,#(_r2modm + 0x003e)
   0D82 74 D5              2081 	mov	a,#0xD5
   0D84 F0                 2082 	movx	@dptr,a
   0D85 90s15r3F           2083 	mov	dptr,#(_r2modm + 0x003f)
   0D88 74 11              2084 	mov	a,#0x11
   0D8A F0                 2085 	movx	@dptr,a
   0D8B 90s15r40           2086 	mov	dptr,#(_r2modm + 0x0040)
   0D8E 74 DE              2087 	mov	a,#0xDE
   0D90 F0                 2088 	movx	@dptr,a
   0D91 90s15r41           2089 	mov	dptr,#(_r2modm + 0x0041)
   0D94 74 9E              2090 	mov	a,#0x9E
   0D96 F0                 2091 	movx	@dptr,a
   0D97 90s15r42           2092 	mov	dptr,#(_r2modm + 0x0042)
   0D9A 74 12              2093 	mov	a,#0x12
   0D9C F0                 2094 	movx	@dptr,a
   0D9D 90s15r43           2095 	mov	dptr,#(_r2modm + 0x0043)
   0DA0 74 6A              2096 	mov	a,#0x6A
   0DA2 F0                 2097 	movx	@dptr,a
   0DA3 90s15r44           2098 	mov	dptr,#(_r2modm + 0x0044)
   0DA6 74 51              2099 	mov	a,#0x51
   0DA8 F0                 2100 	movx	@dptr,a
   0DA9 90s15r45           2101 	mov	dptr,#(_r2modm + 0x0045)
   0DAC 74 F5              2102 	mov	a,#0xF5
   0DAE F0                 2103 	movx	@dptr,a
   0DAF 90s15r46           2104 	mov	dptr,#(_r2modm + 0x0046)
   0DB2 74 83              2105 	mov	a,#0x83
   0DB4 F0                 2106 	movx	@dptr,a
   0DB5 90s15r47           2107 	mov	dptr,#(_r2modm + 0x0047)
   0DB8 74 1B              2108 	mov	a,#0x1B
   0DBA F0                 2109 	movx	@dptr,a
   0DBB 90s15r48           2110 	mov	dptr,#(_r2modm + 0x0048)
   0DBE 74 DE              2111 	mov	a,#0xDE
   0DC0 F0                 2112 	movx	@dptr,a
   0DC1 90s15r49           2113 	mov	dptr,#(_r2modm + 0x0049)
   0DC4 74 AB              2114 	mov	a,#0xAB
   0DC6 F0                 2115 	movx	@dptr,a
   0DC7 90s15r4A           2116 	mov	dptr,#(_r2modm + 0x004a)
   0DCA 74 6D              2117 	mov	a,#0x6D
   0DCC F0                 2118 	movx	@dptr,a
   0DCD 90s15r4B           2119 	mov	dptr,#(_r2modm + 0x004b)
   0DD0 74 D7              2120 	mov	a,#0xD7
   0DD2 F0                 2121 	movx	@dptr,a
   0DD3 90s15r4C           2122 	mov	dptr,#(_r2modm + 0x004c)
   0DD6 74 AD              2123 	mov	a,#0xAD
   0DD8 F0                 2124 	movx	@dptr,a
   0DD9 90s15r4D           2125 	mov	dptr,#(_r2modm + 0x004d)
   0DDC 74 32              2126 	mov	a,#0x32
   0DDE F0                 2127 	movx	@dptr,a
   0DDF 90s15r4E           2128 	mov	dptr,#(_r2modm + 0x004e)
   0DE2 74 07              2129 	mov	a,#0x07
   0DE4 F0                 2130 	movx	@dptr,a
   0DE5 90s15r4F           2131 	mov	dptr,#(_r2modm + 0x004f)
   0DE8 74 6C              2132 	mov	a,#0x6C
   0DEA F0                 2133 	movx	@dptr,a
   0DEB 90s15r50           2134 	mov	dptr,#(_r2modm + 0x0050)
   0DEE 74 95              2135 	mov	a,#0x95
   0DF0 F0                 2136 	movx	@dptr,a
   0DF1 90s15r51           2137 	mov	dptr,#(_r2modm + 0x0051)
   0DF4 74 2A              2138 	mov	a,#0x2A
   0DF6 F0                 2139 	movx	@dptr,a
   0DF7 90s15r52           2140 	mov	dptr,#(_r2modm + 0x0052)
   0DFA 74 56              2141 	mov	a,#0x56
   0DFC F0                 2142 	movx	@dptr,a
   0DFD 90s15r53           2143 	mov	dptr,#(_r2modm + 0x0053)
   0E00 74 FF              2144 	mov	a,#0xFF
   0E02 F0                 2145 	movx	@dptr,a
   0E03 90s15r54           2146 	mov	dptr,#(_r2modm + 0x0054)
   0E06 74 D7              2147 	mov	a,#0xD7
   0E08 F0                 2148 	movx	@dptr,a
   0E09 90s15r55           2149 	mov	dptr,#(_r2modm + 0x0055)
   0E0C 74 E7              2150 	mov	a,#0xE7
   0E0E F0                 2151 	movx	@dptr,a
   0E0F 90s15r56           2152 	mov	dptr,#(_r2modm + 0x0056)
   0E12 E4                 2153 	clr	a
   0E13 F0                 2154 	movx	@dptr,a
   0E14 90s15r57           2155 	mov	dptr,#(_r2modm + 0x0057)
   0E17 74 85              2156 	mov	a,#0x85
   0E19 F0                 2157 	movx	@dptr,a
   0E1A 90s15r58           2158 	mov	dptr,#(_r2modm + 0x0058)
   0E1D 74 BE              2159 	mov	a,#0xBE
   0E1F F0                 2160 	movx	@dptr,a
   0E20 90s15r59           2161 	mov	dptr,#(_r2modm + 0x0059)
   0E23 74 B4              2162 	mov	a,#0xB4
   0E25 F0                 2163 	movx	@dptr,a
   0E26 90s15r5A           2164 	mov	dptr,#(_r2modm + 0x005a)
   0E29 74 3E              2165 	mov	a,#0x3E
   0E2B F0                 2166 	movx	@dptr,a
   0E2C 90s15r5B           2167 	mov	dptr,#(_r2modm + 0x005b)
   0E2F 74 EF              2168 	mov	a,#0xEF
   0E31 F0                 2169 	movx	@dptr,a
   0E32 90s15r5C           2170 	mov	dptr,#(_r2modm + 0x005c)
   0E35 74 73              2171 	mov	a,#0x73
   0E37 F0                 2172 	movx	@dptr,a
   0E38 90s15r5D           2173 	mov	dptr,#(_r2modm + 0x005d)
   0E3B 74 88              2174 	mov	a,#0x88
   0E3D F0                 2175 	movx	@dptr,a
   0E3E 90s15r5E           2176 	mov	dptr,#(_r2modm + 0x005e)
   0E41 74 75              2177 	mov	a,#0x75
   0E43 F0                 2178 	movx	@dptr,a
   0E44 90s15r5F           2179 	mov	dptr,#(_r2modm + 0x005f)
   0E47 74 D9              2180 	mov	a,#0xD9
   0E49 F0                 2181 	movx	@dptr,a
   0E4A 90s15r60           2182 	mov	dptr,#(_r2modm + 0x0060)
   0E4D 74 5C              2183 	mov	a,#0x5C
   0E4F F0                 2184 	movx	@dptr,a
   0E50 90s15r61           2185 	mov	dptr,#(_r2modm + 0x0061)
   0E53 74 6A              2186 	mov	a,#0x6A
   0E55 F0                 2187 	movx	@dptr,a
   0E56 90s15r62           2188 	mov	dptr,#(_r2modm + 0x0062)
   0E59 74 B1              2189 	mov	a,#0xB1
   0E5B F0                 2190 	movx	@dptr,a
   0E5C 90s15r63           2191 	mov	dptr,#(_r2modm + 0x0063)
   0E5F 74 58              2192 	mov	a,#0x58
   0E61 F0                 2193 	movx	@dptr,a
   0E62 90s15r64           2194 	mov	dptr,#(_r2modm + 0x0064)
   0E65 74 4A              2195 	mov	a,#0x4A
   0E67 F0                 2196 	movx	@dptr,a
   0E68 90s15r65           2197 	mov	dptr,#(_r2modm + 0x0065)
   0E6B 74 BC              2198 	mov	a,#0xBC
   0E6D F0                 2199 	movx	@dptr,a
   0E6E 90s15r66           2200 	mov	dptr,#(_r2modm + 0x0066)
   0E71 74 80              2201 	mov	a,#0x80
   0E73 F0                 2202 	movx	@dptr,a
   0E74 90s15r67           2203 	mov	dptr,#(_r2modm + 0x0067)
   0E77 74 53              2204 	mov	a,#0x53
   0E79 F0                 2205 	movx	@dptr,a
   0E7A 90s15r68           2206 	mov	dptr,#(_r2modm + 0x0068)
   0E7D 74 63              2207 	mov	a,#0x63
   0E7F F0                 2208 	movx	@dptr,a
   0E80 90s15r69           2209 	mov	dptr,#(_r2modm + 0x0069)
   0E83 74 48              2210 	mov	a,#0x48
   0E85 F0                 2211 	movx	@dptr,a
   0E86 90s15r6A           2212 	mov	dptr,#(_r2modm + 0x006a)
   0E89 74 FD              2213 	mov	a,#0xFD
   0E8B F0                 2214 	movx	@dptr,a
   0E8C 90s15r6B           2215 	mov	dptr,#(_r2modm + 0x006b)
   0E8F 74 A0              2216 	mov	a,#0xA0
   0E91 F0                 2217 	movx	@dptr,a
   0E92 90s15r6C           2218 	mov	dptr,#(_r2modm + 0x006c)
   0E95 74 FC              2219 	mov	a,#0xFC
   0E97 F0                 2220 	movx	@dptr,a
   0E98 90s15r6D           2221 	mov	dptr,#(_r2modm + 0x006d)
   0E9B 74 AD              2222 	mov	a,#0xAD
   0E9D F0                 2223 	movx	@dptr,a
   0E9E 90s15r6E           2224 	mov	dptr,#(_r2modm + 0x006e)
   0EA1 74 D9              2225 	mov	a,#0xD9
   0EA3 F0                 2226 	movx	@dptr,a
   0EA4 90s15r6F           2227 	mov	dptr,#(_r2modm + 0x006f)
   0EA7 74 34              2228 	mov	a,#0x34
   0EA9 F0                 2229 	movx	@dptr,a
   0EAA 90s15r70           2230 	mov	dptr,#(_r2modm + 0x0070)
   0EAD 74 FB              2231 	mov	a,#0xFB
   0EAF F0                 2232 	movx	@dptr,a
   0EB0 90s15r71           2233 	mov	dptr,#(_r2modm + 0x0071)
   0EB3 74 D3              2234 	mov	a,#0xD3
   0EB5 F0                 2235 	movx	@dptr,a
   0EB6 90s15r72           2236 	mov	dptr,#(_r2modm + 0x0072)
   0EB9 74 A9              2237 	mov	a,#0xA9
   0EBB F0                 2238 	movx	@dptr,a
   0EBC 90s15r73           2239 	mov	dptr,#(_r2modm + 0x0073)
   0EBF 74 E8              2240 	mov	a,#0xE8
   0EC1 F0                 2241 	movx	@dptr,a
   0EC2 90s15r74           2242 	mov	dptr,#(_r2modm + 0x0074)
   0EC5 74 18              2243 	mov	a,#0x18
   0EC7 F0                 2244 	movx	@dptr,a
   0EC8 90s15r75           2245 	mov	dptr,#(_r2modm + 0x0075)
   0ECB 74 32              2246 	mov	a,#0x32
   0ECD F0                 2247 	movx	@dptr,a
   0ECE 90s15r76           2248 	mov	dptr,#(_r2modm + 0x0076)
   0ED1 74 33              2249 	mov	a,#0x33
   0ED3 F0                 2250 	movx	@dptr,a
   0ED4 90s15r77           2251 	mov	dptr,#(_r2modm + 0x0077)
   0ED7 74 78              2252 	mov	a,#0x78
   0ED9 F0                 2253 	movx	@dptr,a
   0EDA 90s15r78           2254 	mov	dptr,#(_r2modm + 0x0078)
   0EDD 74 B0              2255 	mov	a,#0xB0
   0EDF F0                 2256 	movx	@dptr,a
   0EE0 90s15r79           2257 	mov	dptr,#(_r2modm + 0x0079)
   0EE3 74 08              2258 	mov	a,#0x08
   0EE5 F0                 2259 	movx	@dptr,a
   0EE6 90s15r7A           2260 	mov	dptr,#(_r2modm + 0x007a)
   0EE9 74 E4              2261 	mov	a,#0xE4
   0EEB F0                 2262 	movx	@dptr,a
   0EEC 90s15r7B           2263 	mov	dptr,#(_r2modm + 0x007b)
   0EEF 74 7B              2264 	mov	a,#0x7B
   0EF1 F0                 2265 	movx	@dptr,a
   0EF2 90s15r7C           2266 	mov	dptr,#(_r2modm + 0x007c)
   0EF5 74 59              2267 	mov	a,#0x59
   0EF7 F0                 2268 	movx	@dptr,a
   0EF8 90s15r7D           2269 	mov	dptr,#(_r2modm + 0x007d)
   0EFB 74 F2              2270 	mov	a,#0xF2
   0EFD F0                 2271 	movx	@dptr,a
   0EFE 90s15r7E           2272 	mov	dptr,#(_r2modm + 0x007e)
   0F01 74 45              2273 	mov	a,#0x45
   0F03 F0                 2274 	movx	@dptr,a
   0F04 90s15r7F           2275 	mov	dptr,#(_r2modm + 0x007f)
   0F07 74 8A              2276 	mov	a,#0x8A
   0F09 F0                 2277 	movx	@dptr,a
                           2278 	.area GSFINAL (CODE)
   0000 02s00r03           2279 	ljmp	__sdcc_program_startup
                           2280 ;--------------------------------------------------------
                           2281 ; Home
                           2282 ;--------------------------------------------------------
                           2283 	.area HOME    (CODE)
                           2284 	.area HOME    (CODE)
   0003                    2285 __sdcc_program_startup:
   0003 12s00r00           2286 	lcall	_main
                           2287 ;	return from main will lock up
   0006 80 FE              2288 	sjmp .
                           2289 ;--------------------------------------------------------
                           2290 ; code
                           2291 ;--------------------------------------------------------
                           2292 	.area CSEG    (CODE)
                           2293 ;------------------------------------------------------------
                           2294 ;Allocation info for local variables in function 'main'
                           2295 ;------------------------------------------------------------
                           2296 ;------------------------------------------------------------
                           2297 ;	main.c:54: int main() {
                           2298 ;	-----------------------------------------
                           2299 ;	 function main
                           2300 ;	-----------------------------------------
   0000                    2301 _main:
                    0002   2302 	ar2 = 0x02
                    0003   2303 	ar3 = 0x03
                    0004   2304 	ar4 = 0x04
                    0005   2305 	ar5 = 0x05
                    0006   2306 	ar6 = 0x06
                    0007   2307 	ar7 = 0x07
                    0000   2308 	ar0 = 0x00
                    0001   2309 	ar1 = 0x01
                           2310 ;	main.c:56: montModExp(0x20, 0x11, publicKey, 0x10, 0x14, 0x15);
   0000 75*01r00           2311 	mov	_montModExp_PARM_3,#_publicKey
   0003 75*02s12           2312 	mov	(_montModExp_PARM_3 + 1),#(_publicKey >> 8)
   0006 75*03 00           2313 	mov	(_montModExp_PARM_3 + 2),#0x00
   0009 75*00 11           2314 	mov	_montModExp_PARM_2,#0x11
   000C 75*04 10           2315 	mov	_montModExp_PARM_4,#0x10
   000F 75*05 14           2316 	mov	_montModExp_PARM_5,#0x14
   0012 75*06 15           2317 	mov	_montModExp_PARM_6,#0x15
   0015 75 82 20           2318 	mov	dpl,#0x20
   0018 12s00r43           2319 	lcall	_montModExp
                           2320 ;	main.c:57: _displayResult();
   001B 12s01rEC           2321 	lcall	__displayResult
                           2322 ;	main.c:60: montModExp(0x21, 0x20, privateKey, 0x10, 0x14, 0x15);
   001E 75*01r00           2323 	mov	_montModExp_PARM_3,#_privateKey
   0021 75*02s13           2324 	mov	(_montModExp_PARM_3 + 1),#(_privateKey >> 8)
   0024 75*03 00           2325 	mov	(_montModExp_PARM_3 + 2),#0x00
   0027 75*00 20           2326 	mov	_montModExp_PARM_2,#0x20
   002A 75*04 10           2327 	mov	_montModExp_PARM_4,#0x10
   002D 75*05 14           2328 	mov	_montModExp_PARM_5,#0x14
   0030 75*06 15           2329 	mov	_montModExp_PARM_6,#0x15
   0033 75 82 21           2330 	mov	dpl,#0x21
   0036 12s00r43           2331 	lcall	_montModExp
                           2332 ;	main.c:61: _displayResult();
   0039 12s01rEC           2333 	lcall	__displayResult
                           2334 ;	main.c:63: _terminate();
   003C 12s02rA5           2335 	lcall	__terminate
                           2336 ;	main.c:64: return 0;
   003F 90 00 00           2337 	mov	dptr,#0x0000
   0042 22                 2338 	ret
                           2339 ;------------------------------------------------------------
                           2340 ;Allocation info for local variables in function 'montModExp'
                           2341 ;------------------------------------------------------------
                           2342 ;x                         Allocated with name '_montModExp_PARM_2'
                           2343 ;e                         Allocated with name '_montModExp_PARM_3'
                           2344 ;m                         Allocated with name '_montModExp_PARM_4'
                           2345 ;rmodm                     Allocated with name '_montModExp_PARM_5'
                           2346 ;r2modm                    Allocated with name '_montModExp_PARM_6'
                           2347 ;r                         Allocated with name '_montModExp_r_1_1'
                           2348 ;i                         Allocated with name '_montModExp_i_1_1'
                           2349 ;j                         Allocated to registers r6 
                           2350 ;k                         Allocated to registers r2 r3 
                           2351 ;t                         Allocated with name '_montModExp_t_1_1'
                           2352 ;one                       Allocated with name '_montModExp_one_1_1'
                           2353 ;------------------------------------------------------------
                           2354 ;	main.c:67: void montModExp(unsigned char r, unsigned char x, unsigned char *e, unsigned char m, unsigned char rmodm, unsigned char r2modm) {
                           2355 ;	-----------------------------------------
                           2356 ;	 function montModExp
                           2357 ;	-----------------------------------------
   0043                    2358 _montModExp:
   0043 85 82*07           2359 	mov	_montModExp_r_1_1,dpl
                           2360 ;	main.c:76: *one = 0x01;
   0046 90 00 00           2361 	mov	dptr,#_montModExp_one_1_1
   0049 74 01              2362 	mov	a,#0x01
   004B F0                 2363 	movx	@dptr,a
                           2364 ;	main.c:79: _writeModulus(m);
   004C 85*04 82           2365 	mov	dpl,_montModExp_PARM_4
   004F 12s01rF3           2366 	lcall	__writeModulus
                           2367 ;	main.c:83: _writeA_Mem(x);
   0052 85*00 82           2368 	mov	dpl,_montModExp_PARM_2
   0055 12s02r0F           2369 	lcall	__writeA_Mem
                           2370 ;	main.c:84: _writeB_Mem(r2modm);
   0058 85*06 82           2371 	mov	dpl,_montModExp_PARM_6
   005B 12s02r39           2372 	lcall	__writeB_Mem
                           2373 ;	main.c:85: _mul_montgomery();
   005E 12s02r9B           2374 	lcall	__mul_montgomery
                           2375 ;	main.c:86: _readResult(0x01);
   0061 75 82 01           2376 	mov	dpl,#0x01
   0064 12s02r7F           2377 	lcall	__readResult
                           2378 ;	main.c:89: t = 0;
                           2379 ;	main.c:90: for (i = 0; i < SIZE; i++) {
   0067 E4                 2380 	clr	a
   0068 F5*09              2381 	mov	_montModExp_t_1_1,a
   006A F5*0A              2382 	mov	(_montModExp_t_1_1 + 1),a
   006C F5*08              2383 	mov	_montModExp_i_1_1,a
   006E                    2384 00114$:
   006E 74 80              2385 	mov	a,#0x100 - 0x80
   0070 25*08              2386 	add	a,_montModExp_i_1_1
   0072 50 03              2387 	jnc	00135$
   0074 02s01r0A           2388 	ljmp	00105$
   0077                    2389 00135$:
                           2390 ;	main.c:91: if (e[(SIZE-1)-i] != 0) {
   0077 AE*08              2391 	mov	r6,_montModExp_i_1_1
   0079 7F 00              2392 	mov	r7,#0x00
   007B 74 7F              2393 	mov	a,#0x7F
   007D C3                 2394 	clr	c
   007E 9E                 2395 	subb	a,r6
   007F FE                 2396 	mov	r6,a
   0080 E4                 2397 	clr	a
   0081 9F                 2398 	subb	a,r7
   0082 FF                 2399 	mov	r7,a
   0083 EE                 2400 	mov	a,r6
   0084 25*01              2401 	add	a,_montModExp_PARM_3
   0086 FE                 2402 	mov	r6,a
   0087 EF                 2403 	mov	a,r7
   0088 35*02              2404 	addc	a,(_montModExp_PARM_3 + 1)
   008A FF                 2405 	mov	r7,a
   008B A8*03              2406 	mov	r0,(_montModExp_PARM_3 + 2)
   008D 8E 82              2407 	mov	dpl,r6
   008F 8F 83              2408 	mov	dph,r7
   0091 88 F0              2409 	mov	b,r0
   0093 12s00r00           2410 	lcall	__gptrget
   0096 60 6D              2411 	jz	00116$
                           2412 ;	main.c:92: for (j = 0; j < 8; j++) {
   0098 7E 00              2413 	mov	r6,#0x00
   009A                    2414 00110$:
   009A BE 08 00           2415 	cjne	r6,#0x08,00137$
   009D                    2416 00137$:
   009D 50 66              2417 	jnc	00116$
                           2418 ;	main.c:93: if (e[(SIZE-1)-i] >> (7-j) & 1) {
   009F AF*08              2419 	mov	r7,_montModExp_i_1_1
   00A1 78 00              2420 	mov	r0,#0x00
   00A3 74 7F              2421 	mov	a,#0x7F
   00A5 C3                 2422 	clr	c
   00A6 9F                 2423 	subb	a,r7
   00A7 F9                 2424 	mov	r1,a
   00A8 E4                 2425 	clr	a
   00A9 98                 2426 	subb	a,r0
   00AA FA                 2427 	mov	r2,a
   00AB E9                 2428 	mov	a,r1
   00AC 25*01              2429 	add	a,_montModExp_PARM_3
   00AE F9                 2430 	mov	r1,a
   00AF EA                 2431 	mov	a,r2
   00B0 35*02              2432 	addc	a,(_montModExp_PARM_3 + 1)
   00B2 FA                 2433 	mov	r2,a
   00B3 AB*03              2434 	mov	r3,(_montModExp_PARM_3 + 2)
   00B5 89 82              2435 	mov	dpl,r1
   00B7 8A 83              2436 	mov	dph,r2
   00B9 8B F0              2437 	mov	b,r3
   00BB 12s00r00           2438 	lcall	__gptrget
   00BE F9                 2439 	mov	r1,a
   00BF 8E 02              2440 	mov	ar2,r6
   00C1 7B 00              2441 	mov	r3,#0x00
   00C3 74 07              2442 	mov	a,#0x07
   00C5 C3                 2443 	clr	c
   00C6 9A                 2444 	subb	a,r2
   00C7 FC                 2445 	mov	r4,a
   00C8 E4                 2446 	clr	a
   00C9 9B                 2447 	subb	a,r3
   00CA FD                 2448 	mov	r5,a
   00CB 8C F0              2449 	mov	b,r4
   00CD 05 F0              2450 	inc	b
   00CF E9                 2451 	mov	a,r1
   00D0 80 02              2452 	sjmp	00140$
   00D2                    2453 00139$:
   00D2 C3                 2454 	clr	c
   00D3 13                 2455 	rrc	a
   00D4                    2456 00140$:
   00D4 D5 F0 FB           2457 	djnz	b,00139$
   00D7 30 E0 28           2458 	jnb	acc.0,00112$
                           2459 ;	main.c:94: t = 8*((SIZE-1)-i) + (7-j);
   00DA 74 7F              2460 	mov	a,#0x7F
   00DC C3                 2461 	clr	c
   00DD 9F                 2462 	subb	a,r7
   00DE FF                 2463 	mov	r7,a
   00DF E4                 2464 	clr	a
   00E0 98                 2465 	subb	a,r0
   00E1 C4                 2466 	swap	a
   00E2 03                 2467 	rr	a
   00E3 54 F8              2468 	anl	a,#0xf8
   00E5 CF                 2469 	xch	a,r7
   00E6 C4                 2470 	swap	a
   00E7 03                 2471 	rr	a
   00E8 CF                 2472 	xch	a,r7
   00E9 6F                 2473 	xrl	a,r7
   00EA CF                 2474 	xch	a,r7
   00EB 54 F8              2475 	anl	a,#0xf8
   00ED CF                 2476 	xch	a,r7
   00EE 6F                 2477 	xrl	a,r7
   00EF F8                 2478 	mov	r0,a
   00F0 74 07              2479 	mov	a,#0x07
   00F2 C3                 2480 	clr	c
   00F3 9A                 2481 	subb	a,r2
   00F4 FA                 2482 	mov	r2,a
   00F5 E4                 2483 	clr	a
   00F6 9B                 2484 	subb	a,r3
   00F7 FB                 2485 	mov	r3,a
   00F8 EA                 2486 	mov	a,r2
   00F9 2F                 2487 	add	a,r7
   00FA F5*09              2488 	mov	_montModExp_t_1_1,a
   00FC EB                 2489 	mov	a,r3
   00FD 38                 2490 	addc	a,r0
   00FE F5*0A              2491 	mov	(_montModExp_t_1_1 + 1),a
                           2492 ;	main.c:95: goto breakLoop;
   0100 80 08              2493 	sjmp	00105$
   0102                    2494 00112$:
                           2495 ;	main.c:92: for (j = 0; j < 8; j++) {
   0102 0E                 2496 	inc	r6
   0103 80 95              2497 	sjmp	00110$
   0105                    2498 00116$:
                           2499 ;	main.c:90: for (i = 0; i < SIZE; i++) {
   0105 05*08              2500 	inc	_montModExp_i_1_1
   0107 02s00r6E           2501 	ljmp	00114$
                           2502 ;	main.c:101: breakLoop:
   010A                    2503 00105$:
                           2504 ;	main.c:104: _writeResult(rmodm);
   010A 85*05 82           2505 	mov	dpl,_montModExp_PARM_5
   010D 12s02r63           2506 	lcall	__writeResult
                           2507 ;	main.c:105: if (((e[t/8] >> t%8)) & 1) {
   0110 AA*09              2508 	mov	r2,_montModExp_t_1_1
   0112 E5*0A              2509 	mov	a,(_montModExp_t_1_1 + 1)
   0114 C4                 2510 	swap	a
   0115 23                 2511 	rl	a
   0116 CA                 2512 	xch	a,r2
   0117 C4                 2513 	swap	a
   0118 23                 2514 	rl	a
   0119 54 1F              2515 	anl	a,#0x1f
   011B 6A                 2516 	xrl	a,r2
   011C CA                 2517 	xch	a,r2
   011D 54 1F              2518 	anl	a,#0x1f
   011F CA                 2519 	xch	a,r2
   0120 6A                 2520 	xrl	a,r2
   0121 CA                 2521 	xch	a,r2
   0122 FB                 2522 	mov	r3,a
   0123 EA                 2523 	mov	a,r2
   0124 25*01              2524 	add	a,_montModExp_PARM_3
   0126 FA                 2525 	mov	r2,a
   0127 EB                 2526 	mov	a,r3
   0128 35*02              2527 	addc	a,(_montModExp_PARM_3 + 1)
   012A FB                 2528 	mov	r3,a
   012B AC*03              2529 	mov	r4,(_montModExp_PARM_3 + 2)
   012D 8A 82              2530 	mov	dpl,r2
   012F 8B 83              2531 	mov	dph,r3
   0131 8C F0              2532 	mov	b,r4
   0133 12s00r00           2533 	lcall	__gptrget
   0136 FA                 2534 	mov	r2,a
   0137 74 07              2535 	mov	a,#0x07
   0139 55*09              2536 	anl	a,_montModExp_t_1_1
   013B FB                 2537 	mov	r3,a
   013C 7C 00              2538 	mov	r4,#0x00
   013E 8B F0              2539 	mov	b,r3
   0140 05 F0              2540 	inc	b
   0142 EA                 2541 	mov	a,r2
   0143 80 02              2542 	sjmp	00143$
   0145                    2543 00142$:
   0145 C3                 2544 	clr	c
   0146 13                 2545 	rrc	a
   0147                    2546 00143$:
   0147 D5 F0 FB           2547 	djnz	b,00142$
   014A 30 E0 0C           2548 	jnb	acc.0,00133$
                           2549 ;	main.c:108: _writeA_Mem(0x01);
   014D 75 82 01           2550 	mov	dpl,#0x01
   0150 12s02r0F           2551 	lcall	__writeA_Mem
                           2552 ;	main.c:109: _writeB_Reg();
   0153 12s02r55           2553 	lcall	__writeB_Reg
                           2554 ;	main.c:110: _mul_montgomery();
   0156 12s02r9B           2555 	lcall	__mul_montgomery
                           2556 ;	main.c:113: for (k = 1; k <= t; k++) {
   0159                    2557 00133$:
   0159 7A 01              2558 	mov	r2,#0x01
   015B 7B 00              2559 	mov	r3,#0x00
   015D                    2560 00118$:
   015D C3                 2561 	clr	c
   015E E5*09              2562 	mov	a,_montModExp_t_1_1
   0160 9A                 2563 	subb	a,r2
   0161 E5*0A              2564 	mov	a,(_montModExp_t_1_1 + 1)
   0163 9B                 2565 	subb	a,r3
   0164 40 6D              2566 	jc	00121$
                           2567 ;	main.c:115: _writeA_Reg();
   0166 C0 02              2568 	push	ar2
   0168 C0 03              2569 	push	ar3
   016A 12s02r2B           2570 	lcall	__writeA_Reg
                           2571 ;	main.c:116: _writeB_Reg();
   016D 12s02r55           2572 	lcall	__writeB_Reg
                           2573 ;	main.c:117: _mul_montgomery();
   0170 12s02r9B           2574 	lcall	__mul_montgomery
   0173 D0 03              2575 	pop	ar3
   0175 D0 02              2576 	pop	ar2
                           2577 ;	main.c:119: if (((e[(t-k)/8] >> (t-k)%8)) & 1) {
   0177 E5*09              2578 	mov	a,_montModExp_t_1_1
   0179 C3                 2579 	clr	c
   017A 9A                 2580 	subb	a,r2
   017B FC                 2581 	mov	r4,a
   017C E5*0A              2582 	mov	a,(_montModExp_t_1_1 + 1)
   017E 9B                 2583 	subb	a,r3
   017F 8C 06              2584 	mov	ar6,r4
   0181 C4                 2585 	swap	a
   0182 23                 2586 	rl	a
   0183 CE                 2587 	xch	a,r6
   0184 C4                 2588 	swap	a
   0185 23                 2589 	rl	a
   0186 54 1F              2590 	anl	a,#0x1f
   0188 6E                 2591 	xrl	a,r6
   0189 CE                 2592 	xch	a,r6
   018A 54 1F              2593 	anl	a,#0x1f
   018C CE                 2594 	xch	a,r6
   018D 6E                 2595 	xrl	a,r6
   018E CE                 2596 	xch	a,r6
   018F FF                 2597 	mov	r7,a
   0190 EE                 2598 	mov	a,r6
   0191 25*01              2599 	add	a,_montModExp_PARM_3
   0193 FE                 2600 	mov	r6,a
   0194 EF                 2601 	mov	a,r7
   0195 35*02              2602 	addc	a,(_montModExp_PARM_3 + 1)
   0197 FF                 2603 	mov	r7,a
   0198 A8*03              2604 	mov	r0,(_montModExp_PARM_3 + 2)
   019A 8E 82              2605 	mov	dpl,r6
   019C 8F 83              2606 	mov	dph,r7
   019E 88 F0              2607 	mov	b,r0
   01A0 12s00r00           2608 	lcall	__gptrget
   01A3 FE                 2609 	mov	r6,a
   01A4 53 04 07           2610 	anl	ar4,#0x07
   01A7 7D 00              2611 	mov	r5,#0x00
   01A9 8C F0              2612 	mov	b,r4
   01AB 05 F0              2613 	inc	b
   01AD EE                 2614 	mov	a,r6
   01AE 80 02              2615 	sjmp	00147$
   01B0                    2616 00146$:
   01B0 C3                 2617 	clr	c
   01B1 13                 2618 	rrc	a
   01B2                    2619 00147$:
   01B2 D5 F0 FB           2620 	djnz	b,00146$
   01B5 30 E0 14           2621 	jnb	acc.0,00120$
                           2622 ;	main.c:122: _writeA_Mem(0x01);
   01B8 75 82 01           2623 	mov	dpl,#0x01
   01BB C0 02              2624 	push	ar2
   01BD C0 03              2625 	push	ar3
   01BF 12s02r0F           2626 	lcall	__writeA_Mem
                           2627 ;	main.c:123: _writeB_Reg();
   01C2 12s02r55           2628 	lcall	__writeB_Reg
                           2629 ;	main.c:124: _mul_montgomery();
   01C5 12s02r9B           2630 	lcall	__mul_montgomery
   01C8 D0 03              2631 	pop	ar3
   01CA D0 02              2632 	pop	ar2
   01CC                    2633 00120$:
                           2634 ;	main.c:113: for (k = 1; k <= t; k++) {
   01CC 0A                 2635 	inc	r2
   01CD BA 00 8D           2636 	cjne	r2,#0x00,00118$
   01D0 0B                 2637 	inc	r3
   01D1 80 8A              2638 	sjmp	00118$
   01D3                    2639 00121$:
                           2640 ;	main.c:130: _writeA_Mem(0x00);
   01D3 75 82 00           2641 	mov	dpl,#0x00
   01D6 12s02r0F           2642 	lcall	__writeA_Mem
                           2643 ;	main.c:131: _writeB_Reg();
   01D9 12s02r55           2644 	lcall	__writeB_Reg
                           2645 ;	main.c:132: _mul_montgomery();
   01DC 12s02r9B           2646 	lcall	__mul_montgomery
                           2647 ;	main.c:133: _readResult(r);
   01DF 85*07 82           2648 	mov	dpl,_montModExp_r_1_1
   01E2 02s02r7F           2649 	ljmp	__readResult
                           2650 ;------------------------------------------------------------
                           2651 ;Allocation info for local variables in function '_displayCycles'
                           2652 ;------------------------------------------------------------
                           2653 ;------------------------------------------------------------
                           2654 ;	main.c:137: static inline void _displayCycles() {
                           2655 ;	-----------------------------------------
                           2656 ;	 function _displayCycles
                           2657 ;	-----------------------------------------
   01E5                    2658 __displayCycles:
                           2659 ;	main.c:138: P0 = INS_DISPLAY_CYCLES;
   01E5 75 80 01           2660 	mov	_P0,#0x01
                           2661 ;	main.c:139: P0 = INS_IDLE;
   01E8 75 80 00           2662 	mov	_P0,#0x00
   01EB 22                 2663 	ret
                           2664 ;------------------------------------------------------------
                           2665 ;Allocation info for local variables in function '_displayResult'
                           2666 ;------------------------------------------------------------
                           2667 ;------------------------------------------------------------
                           2668 ;	main.c:142: static inline void _displayResult() {
                           2669 ;	-----------------------------------------
                           2670 ;	 function _displayResult
                           2671 ;	-----------------------------------------
   01EC                    2672 __displayResult:
                           2673 ;	main.c:143: P0 = INS_DISPLAY_RESULT;
   01EC 75 80 02           2674 	mov	_P0,#0x02
                           2675 ;	main.c:144: P0 = INS_IDLE;
   01EF 75 80 00           2676 	mov	_P0,#0x00
   01F2 22                 2677 	ret
                           2678 ;------------------------------------------------------------
                           2679 ;Allocation info for local variables in function '_writeModulus'
                           2680 ;------------------------------------------------------------
                           2681 ;address                   Allocated to registers r2 
                           2682 ;------------------------------------------------------------
                           2683 ;	main.c:147: static inline void _writeModulus(unsigned char address) {
                           2684 ;	-----------------------------------------
                           2685 ;	 function _writeModulus
                           2686 ;	-----------------------------------------
   01F3                    2687 __writeModulus:
   01F3 AA 82              2688 	mov	r2,dpl
                           2689 ;	main.c:148: while (P2 == 2) {}
   01F5                    2690 00101$:
   01F5 74 02              2691 	mov	a,#0x02
   01F7 B5 A0 02           2692 	cjne	a,_P2,00113$
   01FA 80 F9              2693 	sjmp	00101$
   01FC                    2694 00113$:
                           2695 ;	main.c:150: P2 = 0;
   01FC 75 A0 00           2696 	mov	_P2,#0x00
                           2697 ;	main.c:151: P1 = address;
   01FF 8A 90              2698 	mov	_P1,r2
                           2699 ;	main.c:153: P0 = INS_WRITE_MODULUS;
   0201 75 80 10           2700 	mov	_P0,#0x10
                           2701 ;	main.c:154: P0 = INS_IDLE;
   0204 75 80 00           2702 	mov	_P0,#0x00
                           2703 ;	main.c:156: while (P2 == 0) {}
   0207                    2704 00104$:
   0207 E5 A0              2705 	mov	a,_P2
   0209 60 FC              2706 	jz	00104$
                           2707 ;	main.c:157: P0 = INS_ACK;
   020B 75 80 0F           2708 	mov	_P0,#0x0F
   020E 22                 2709 	ret
                           2710 ;------------------------------------------------------------
                           2711 ;Allocation info for local variables in function '_writeA_Mem'
                           2712 ;------------------------------------------------------------
                           2713 ;address                   Allocated to registers r2 
                           2714 ;------------------------------------------------------------
                           2715 ;	main.c:160: static inline void _writeA_Mem(unsigned char address) {
                           2716 ;	-----------------------------------------
                           2717 ;	 function _writeA_Mem
                           2718 ;	-----------------------------------------
   020F                    2719 __writeA_Mem:
   020F AA 82              2720 	mov	r2,dpl
                           2721 ;	main.c:161: while (P2 == 2) {}
   0211                    2722 00101$:
   0211 74 02              2723 	mov	a,#0x02
   0213 B5 A0 02           2724 	cjne	a,_P2,00113$
   0216 80 F9              2725 	sjmp	00101$
   0218                    2726 00113$:
                           2727 ;	main.c:163: P2 = 0;
   0218 75 A0 00           2728 	mov	_P2,#0x00
                           2729 ;	main.c:164: P1 = address;
   021B 8A 90              2730 	mov	_P1,r2
                           2731 ;	main.c:166: P0 = INS_WRITE_A_MEM;
   021D 75 80 11           2732 	mov	_P0,#0x11
                           2733 ;	main.c:167: P0 = INS_IDLE;
   0220 75 80 00           2734 	mov	_P0,#0x00
                           2735 ;	main.c:169: while (P2 == 0) {}
   0223                    2736 00104$:
   0223 E5 A0              2737 	mov	a,_P2
   0225 60 FC              2738 	jz	00104$
                           2739 ;	main.c:170: P0 = INS_ACK;
   0227 75 80 0F           2740 	mov	_P0,#0x0F
   022A 22                 2741 	ret
                           2742 ;------------------------------------------------------------
                           2743 ;Allocation info for local variables in function '_writeA_Reg'
                           2744 ;------------------------------------------------------------
                           2745 ;------------------------------------------------------------
                           2746 ;	main.c:173: static inline void _writeA_Reg() {
                           2747 ;	-----------------------------------------
                           2748 ;	 function _writeA_Reg
                           2749 ;	-----------------------------------------
   022B                    2750 __writeA_Reg:
                           2751 ;	main.c:174: while (P2 == 2) {}
   022B                    2752 00101$:
   022B 74 02              2753 	mov	a,#0x02
   022D B5 A0 02           2754 	cjne	a,_P2,00108$
   0230 80 F9              2755 	sjmp	00101$
   0232                    2756 00108$:
                           2757 ;	main.c:176: P0 = INS_WRITE_A_REG;
   0232 75 80 12           2758 	mov	_P0,#0x12
                           2759 ;	main.c:177: P0 = INS_IDLE;
   0235 75 80 00           2760 	mov	_P0,#0x00
   0238 22                 2761 	ret
                           2762 ;------------------------------------------------------------
                           2763 ;Allocation info for local variables in function '_writeB_Mem'
                           2764 ;------------------------------------------------------------
                           2765 ;address                   Allocated to registers r2 
                           2766 ;------------------------------------------------------------
                           2767 ;	main.c:180: static inline void _writeB_Mem(unsigned char address) {
                           2768 ;	-----------------------------------------
                           2769 ;	 function _writeB_Mem
                           2770 ;	-----------------------------------------
   0239                    2771 __writeB_Mem:
   0239 AA 82              2772 	mov	r2,dpl
                           2773 ;	main.c:181: while (P2 == 2) {}
   023B                    2774 00101$:
   023B 74 02              2775 	mov	a,#0x02
   023D B5 A0 02           2776 	cjne	a,_P2,00113$
   0240 80 F9              2777 	sjmp	00101$
   0242                    2778 00113$:
                           2779 ;	main.c:183: P2 = 0;
   0242 75 A0 00           2780 	mov	_P2,#0x00
                           2781 ;	main.c:184: P1 = address;
   0245 8A 90              2782 	mov	_P1,r2
                           2783 ;	main.c:186: P0 = INS_WRITE_B_MEM;
   0247 75 80 13           2784 	mov	_P0,#0x13
                           2785 ;	main.c:187: P0 = INS_IDLE;
   024A 75 80 00           2786 	mov	_P0,#0x00
                           2787 ;	main.c:189: while (P2 == 0) {}
   024D                    2788 00104$:
   024D E5 A0              2789 	mov	a,_P2
   024F 60 FC              2790 	jz	00104$
                           2791 ;	main.c:190: P0 = INS_ACK;
   0251 75 80 0F           2792 	mov	_P0,#0x0F
   0254 22                 2793 	ret
                           2794 ;------------------------------------------------------------
                           2795 ;Allocation info for local variables in function '_writeB_Reg'
                           2796 ;------------------------------------------------------------
                           2797 ;------------------------------------------------------------
                           2798 ;	main.c:193: static inline void _writeB_Reg() {
                           2799 ;	-----------------------------------------
                           2800 ;	 function _writeB_Reg
                           2801 ;	-----------------------------------------
   0255                    2802 __writeB_Reg:
                           2803 ;	main.c:194: while (P2 == 2) {}
   0255                    2804 00101$:
   0255 74 02              2805 	mov	a,#0x02
   0257 B5 A0 02           2806 	cjne	a,_P2,00108$
   025A 80 F9              2807 	sjmp	00101$
   025C                    2808 00108$:
                           2809 ;	main.c:196: P0 = INS_WRITE_B_REG;
   025C 75 80 14           2810 	mov	_P0,#0x14
                           2811 ;	main.c:197: P0 = INS_IDLE;
   025F 75 80 00           2812 	mov	_P0,#0x00
   0262 22                 2813 	ret
                           2814 ;------------------------------------------------------------
                           2815 ;Allocation info for local variables in function '_writeResult'
                           2816 ;------------------------------------------------------------
                           2817 ;address                   Allocated to registers r2 
                           2818 ;------------------------------------------------------------
                           2819 ;	main.c:200: static inline void _writeResult(unsigned char address) {
                           2820 ;	-----------------------------------------
                           2821 ;	 function _writeResult
                           2822 ;	-----------------------------------------
   0263                    2823 __writeResult:
   0263 AA 82              2824 	mov	r2,dpl
                           2825 ;	main.c:201: while (P2 == 2) {}
   0265                    2826 00101$:
   0265 74 02              2827 	mov	a,#0x02
   0267 B5 A0 02           2828 	cjne	a,_P2,00113$
   026A 80 F9              2829 	sjmp	00101$
   026C                    2830 00113$:
                           2831 ;	main.c:203: P2 = 0;
   026C 75 A0 00           2832 	mov	_P2,#0x00
                           2833 ;	main.c:204: P1 = address;
   026F 8A 90              2834 	mov	_P1,r2
                           2835 ;	main.c:206: P0 = INS_WRITE_RESULT;
   0271 75 80 15           2836 	mov	_P0,#0x15
                           2837 ;	main.c:207: P0 = INS_IDLE;
   0274 75 80 00           2838 	mov	_P0,#0x00
                           2839 ;	main.c:209: while (P2 == 0) {}
   0277                    2840 00104$:
   0277 E5 A0              2841 	mov	a,_P2
   0279 60 FC              2842 	jz	00104$
                           2843 ;	main.c:210: P0 = INS_ACK;
   027B 75 80 0F           2844 	mov	_P0,#0x0F
   027E 22                 2845 	ret
                           2846 ;------------------------------------------------------------
                           2847 ;Allocation info for local variables in function '_readResult'
                           2848 ;------------------------------------------------------------
                           2849 ;address                   Allocated to registers r2 
                           2850 ;------------------------------------------------------------
                           2851 ;	main.c:213: static inline void _readResult(unsigned char address) {
                           2852 ;	-----------------------------------------
                           2853 ;	 function _readResult
                           2854 ;	-----------------------------------------
   027F                    2855 __readResult:
   027F AA 82              2856 	mov	r2,dpl
                           2857 ;	main.c:214: while (P2 == 2) {}
   0281                    2858 00101$:
   0281 74 02              2859 	mov	a,#0x02
   0283 B5 A0 02           2860 	cjne	a,_P2,00113$
   0286 80 F9              2861 	sjmp	00101$
   0288                    2862 00113$:
                           2863 ;	main.c:216: P2 = 0;
   0288 75 A0 00           2864 	mov	_P2,#0x00
                           2865 ;	main.c:217: P1 = address;
   028B 8A 90              2866 	mov	_P1,r2
                           2867 ;	main.c:219: P0 = INS_READ_RESULT;
   028D 75 80 16           2868 	mov	_P0,#0x16
                           2869 ;	main.c:220: P0 = INS_IDLE;
   0290 75 80 00           2870 	mov	_P0,#0x00
                           2871 ;	main.c:222: while (P2 == 0) {}
   0293                    2872 00104$:
   0293 E5 A0              2873 	mov	a,_P2
   0295 60 FC              2874 	jz	00104$
                           2875 ;	main.c:223: P0 = INS_ACK;
   0297 75 80 0F           2876 	mov	_P0,#0x0F
   029A 22                 2877 	ret
                           2878 ;------------------------------------------------------------
                           2879 ;Allocation info for local variables in function '_mul_montgomery'
                           2880 ;------------------------------------------------------------
                           2881 ;------------------------------------------------------------
                           2882 ;	main.c:226: static inline void _mul_montgomery() {
                           2883 ;	-----------------------------------------
                           2884 ;	 function _mul_montgomery
                           2885 ;	-----------------------------------------
   029B                    2886 __mul_montgomery:
                           2887 ;	main.c:227: P2 = 0;
   029B 75 A0 00           2888 	mov	_P2,#0x00
                           2889 ;	main.c:229: P0 = INS_MUL_MONTGOMERY;
   029E 75 80 20           2890 	mov	_P0,#0x20
                           2891 ;	main.c:230: P0 = INS_IDLE;
   02A1 75 80 00           2892 	mov	_P0,#0x00
   02A4 22                 2893 	ret
                           2894 ;------------------------------------------------------------
                           2895 ;Allocation info for local variables in function '_terminate'
                           2896 ;------------------------------------------------------------
                           2897 ;------------------------------------------------------------
                           2898 ;	main.c:233: static inline void _terminate() {
                           2899 ;	-----------------------------------------
                           2900 ;	 function _terminate
                           2901 ;	-----------------------------------------
   02A5                    2902 __terminate:
                           2903 ;	main.c:234: P3 = 0x55;
   02A5 75 B0 55           2904 	mov	_P3,#0x55
   02A8 22                 2905 	ret
                           2906 	.area CSEG    (CODE)
                           2907 	.area CONST   (CODE)
                           2908 	.area XINIT   (CODE)
                           2909 	.area CABS    (ABS,CODE)
