                              1 ;--------------------------------------------------------
                              2 ; File Created by SDCC : free open source ANSI-C Compiler
                              3 ; Version 2.9.0 #5416 (Feb  3 2010) (UNIX)
                              4 ; This file was generated Sat Jul  6 14:04:09 2013
                              5 ;--------------------------------------------------------
                              6 	.module main
                              7 	.optsdcc -mmcs51 --model-small
                              8 	
                              9 ;--------------------------------------------------------
                             10 ; Public variables in this module
                             11 ;--------------------------------------------------------
                             12 	.globl _main
                             13 	.globl _CY
                             14 	.globl _AC
                             15 	.globl _F0
                             16 	.globl _RS1
                             17 	.globl _RS0
                             18 	.globl _OV
                             19 	.globl _F1
                             20 	.globl _P
                             21 	.globl _PS
                             22 	.globl _PT1
                             23 	.globl _PX1
                             24 	.globl _PT0
                             25 	.globl _PX0
                             26 	.globl _RD
                             27 	.globl _WR
                             28 	.globl _T1
                             29 	.globl _T0
                             30 	.globl _INT1
                             31 	.globl _INT0
                             32 	.globl _TXD
                             33 	.globl _RXD
                             34 	.globl _P3_7
                             35 	.globl _P3_6
                             36 	.globl _P3_5
                             37 	.globl _P3_4
                             38 	.globl _P3_3
                             39 	.globl _P3_2
                             40 	.globl _P3_1
                             41 	.globl _P3_0
                             42 	.globl _EA
                             43 	.globl _ES
                             44 	.globl _ET1
                             45 	.globl _EX1
                             46 	.globl _ET0
                             47 	.globl _EX0
                             48 	.globl _P2_7
                             49 	.globl _P2_6
                             50 	.globl _P2_5
                             51 	.globl _P2_4
                             52 	.globl _P2_3
                             53 	.globl _P2_2
                             54 	.globl _P2_1
                             55 	.globl _P2_0
                             56 	.globl _SM0
                             57 	.globl _SM1
                             58 	.globl _SM2
                             59 	.globl _REN
                             60 	.globl _TB8
                             61 	.globl _RB8
                             62 	.globl _TI
                             63 	.globl _RI
                             64 	.globl _P1_7
                             65 	.globl _P1_6
                             66 	.globl _P1_5
                             67 	.globl _P1_4
                             68 	.globl _P1_3
                             69 	.globl _P1_2
                             70 	.globl _P1_1
                             71 	.globl _P1_0
                             72 	.globl _TF1
                             73 	.globl _TR1
                             74 	.globl _TF0
                             75 	.globl _TR0
                             76 	.globl _IE1
                             77 	.globl _IT1
                             78 	.globl _IE0
                             79 	.globl _IT0
                             80 	.globl _P0_7
                             81 	.globl _P0_6
                             82 	.globl _P0_5
                             83 	.globl _P0_4
                             84 	.globl _P0_3
                             85 	.globl _P0_2
                             86 	.globl _P0_1
                             87 	.globl _P0_0
                             88 	.globl _B
                             89 	.globl _ACC
                             90 	.globl _PSW
                             91 	.globl _IP
                             92 	.globl _P3
                             93 	.globl _IE
                             94 	.globl _P2
                             95 	.globl _SBUF
                             96 	.globl _SCON
                             97 	.globl _P1
                             98 	.globl _TH1
                             99 	.globl _TH0
                            100 	.globl _TL1
                            101 	.globl _TL0
                            102 	.globl _TMOD
                            103 	.globl _TCON
                            104 	.globl _PCON
                            105 	.globl _DPH
                            106 	.globl _DPL
                            107 	.globl _SP
                            108 	.globl _P0
                            109 	.globl _privateKey
                            110 	.globl _publicKey
                            111 	.globl _message
                            112 	.globl _modulus
                            113 	.globl _r2modm
                            114 	.globl _rmodm
                            115 	.globl _decryptedMessage
                            116 	.globl _encryptedMessage
                            117 	.globl _sR
                            118 	.globl _sM
                            119 	.globl _sB
                            120 	.globl _sA
                            121 	.globl _montMultiply_Result_PARM_2
                            122 	.globl _montMultiply_One_PARM_3
                            123 	.globl _montMultiply_PARM_4
                            124 	.globl _montModExp_PARM_2
                            125 	.globl _montMultiply_One_PARM_2
                            126 	.globl _montMultiply_PARM_3
                            127 	.globl _montMultiply_PARM_2
                            128 	.globl _montMultiply
                            129 	.globl _montMultiply_One
                            130 	.globl _montMultiply_Result
                            131 	.globl _montModExp
                            132 	.globl __findFirstOne
                            133 	.globl __displayCycles
                            134 	.globl __mul1_writeAll
                            135 	.globl __mul1_writeOne
                            136 	.globl __mul1_writeReg
                            137 	.globl __mul1_readResult
                            138 	.globl __mul1_writeResult
                            139 	.globl __mul1_montgomery
                            140 	.globl __terminate
                            141 ;--------------------------------------------------------
                            142 ; special function registers
                            143 ;--------------------------------------------------------
                            144 	.area RSEG    (DATA)
                    0080    145 _P0	=	0x0080
                    0081    146 _SP	=	0x0081
                    0082    147 _DPL	=	0x0082
                    0083    148 _DPH	=	0x0083
                    0087    149 _PCON	=	0x0087
                    0088    150 _TCON	=	0x0088
                    0089    151 _TMOD	=	0x0089
                    008A    152 _TL0	=	0x008a
                    008B    153 _TL1	=	0x008b
                    008C    154 _TH0	=	0x008c
                    008D    155 _TH1	=	0x008d
                    0090    156 _P1	=	0x0090
                    0098    157 _SCON	=	0x0098
                    0099    158 _SBUF	=	0x0099
                    00A0    159 _P2	=	0x00a0
                    00A8    160 _IE	=	0x00a8
                    00B0    161 _P3	=	0x00b0
                    00B8    162 _IP	=	0x00b8
                    00D0    163 _PSW	=	0x00d0
                    00E0    164 _ACC	=	0x00e0
                    00F0    165 _B	=	0x00f0
                            166 ;--------------------------------------------------------
                            167 ; special function bits
                            168 ;--------------------------------------------------------
                            169 	.area RSEG    (DATA)
                    0080    170 _P0_0	=	0x0080
                    0081    171 _P0_1	=	0x0081
                    0082    172 _P0_2	=	0x0082
                    0083    173 _P0_3	=	0x0083
                    0084    174 _P0_4	=	0x0084
                    0085    175 _P0_5	=	0x0085
                    0086    176 _P0_6	=	0x0086
                    0087    177 _P0_7	=	0x0087
                    0088    178 _IT0	=	0x0088
                    0089    179 _IE0	=	0x0089
                    008A    180 _IT1	=	0x008a
                    008B    181 _IE1	=	0x008b
                    008C    182 _TR0	=	0x008c
                    008D    183 _TF0	=	0x008d
                    008E    184 _TR1	=	0x008e
                    008F    185 _TF1	=	0x008f
                    0090    186 _P1_0	=	0x0090
                    0091    187 _P1_1	=	0x0091
                    0092    188 _P1_2	=	0x0092
                    0093    189 _P1_3	=	0x0093
                    0094    190 _P1_4	=	0x0094
                    0095    191 _P1_5	=	0x0095
                    0096    192 _P1_6	=	0x0096
                    0097    193 _P1_7	=	0x0097
                    0098    194 _RI	=	0x0098
                    0099    195 _TI	=	0x0099
                    009A    196 _RB8	=	0x009a
                    009B    197 _TB8	=	0x009b
                    009C    198 _REN	=	0x009c
                    009D    199 _SM2	=	0x009d
                    009E    200 _SM1	=	0x009e
                    009F    201 _SM0	=	0x009f
                    00A0    202 _P2_0	=	0x00a0
                    00A1    203 _P2_1	=	0x00a1
                    00A2    204 _P2_2	=	0x00a2
                    00A3    205 _P2_3	=	0x00a3
                    00A4    206 _P2_4	=	0x00a4
                    00A5    207 _P2_5	=	0x00a5
                    00A6    208 _P2_6	=	0x00a6
                    00A7    209 _P2_7	=	0x00a7
                    00A8    210 _EX0	=	0x00a8
                    00A9    211 _ET0	=	0x00a9
                    00AA    212 _EX1	=	0x00aa
                    00AB    213 _ET1	=	0x00ab
                    00AC    214 _ES	=	0x00ac
                    00AF    215 _EA	=	0x00af
                    00B0    216 _P3_0	=	0x00b0
                    00B1    217 _P3_1	=	0x00b1
                    00B2    218 _P3_2	=	0x00b2
                    00B3    219 _P3_3	=	0x00b3
                    00B4    220 _P3_4	=	0x00b4
                    00B5    221 _P3_5	=	0x00b5
                    00B6    222 _P3_6	=	0x00b6
                    00B7    223 _P3_7	=	0x00b7
                    00B0    224 _RXD	=	0x00b0
                    00B1    225 _TXD	=	0x00b1
                    00B2    226 _INT0	=	0x00b2
                    00B3    227 _INT1	=	0x00b3
                    00B4    228 _T0	=	0x00b4
                    00B5    229 _T1	=	0x00b5
                    00B6    230 _WR	=	0x00b6
                    00B7    231 _RD	=	0x00b7
                    00B8    232 _PX0	=	0x00b8
                    00B9    233 _PT0	=	0x00b9
                    00BA    234 _PX1	=	0x00ba
                    00BB    235 _PT1	=	0x00bb
                    00BC    236 _PS	=	0x00bc
                    00D0    237 _P	=	0x00d0
                    00D1    238 _F1	=	0x00d1
                    00D2    239 _OV	=	0x00d2
                    00D3    240 _RS0	=	0x00d3
                    00D4    241 _RS1	=	0x00d4
                    00D5    242 _F0	=	0x00d5
                    00D6    243 _AC	=	0x00d6
                    00D7    244 _CY	=	0x00d7
                            245 ;--------------------------------------------------------
                            246 ; overlayable register banks
                            247 ;--------------------------------------------------------
                            248 	.area REG_BANK_0	(REL,OVR,DATA)
   0000                     249 	.ds 8
                            250 ;--------------------------------------------------------
                            251 ; internal ram data
                            252 ;--------------------------------------------------------
                            253 	.area DSEG    (DATA)
   0000                     254 _montMultiply_PARM_2:
   0000                     255 	.ds 3
   0003                     256 _montMultiply_PARM_3:
   0003                     257 	.ds 3
   0006                     258 _montMultiply_r_1_1:
   0006                     259 	.ds 3
   0009                     260 _montMultiply_One_PARM_2:
   0009                     261 	.ds 3
   000C                     262 _montMultiply_One_r_1_1:
   000C                     263 	.ds 3
   000F                     264 _montModExp_PARM_2:
   000F                     265 	.ds 3
   0012                     266 _montModExp_t_1_1:
   0012                     267 	.ds 2
                            268 ;--------------------------------------------------------
                            269 ; overlayable items in internal ram 
                            270 ;--------------------------------------------------------
                            271 	.area	OSEG    (OVR,DATA)
   0000                     272 __findFirstOne_e_1_1::
   0000                     273 	.ds 3
   0003                     274 __findFirstOne_i_1_1::
   0003                     275 	.ds 1
                            276 ;--------------------------------------------------------
                            277 ; Stack segment in internal ram 
                            278 ;--------------------------------------------------------
                            279 	.area	SSEG	(DATA)
   0000                     280 __start__stack:
   0000                     281 	.ds	1
                            282 
                            283 ;--------------------------------------------------------
                            284 ; indirectly addressable internal ram data
                            285 ;--------------------------------------------------------
                            286 	.area ISEG    (DATA)
                            287 ;--------------------------------------------------------
                            288 ; absolute internal ram data
                            289 ;--------------------------------------------------------
                            290 	.area IABS    (ABS,DATA)
                            291 	.area IABS    (ABS,DATA)
                            292 ;--------------------------------------------------------
                            293 ; bit data
                            294 ;--------------------------------------------------------
                            295 	.area BSEG    (BIT)
   0000                     296 _montMultiply_PARM_4:
   0000                     297 	.ds 1
   0001                     298 _montMultiply_One_PARM_3:
   0001                     299 	.ds 1
   0002                     300 _montMultiply_Result_PARM_2:
   0002                     301 	.ds 1
                            302 ;--------------------------------------------------------
                            303 ; paged external ram data
                            304 ;--------------------------------------------------------
                            305 	.area PSEG    (PAG,XDATA)
                            306 ;--------------------------------------------------------
                            307 ; external ram data
                            308 ;--------------------------------------------------------
                            309 	.area XSEG    (XDATA)
                    2000    310 _sA	=	0x2000
                    2081    311 _sB	=	0x2081
                    2101    312 _sM	=	0x2101
                    3000    313 _sR	=	0x3000
                    5000    314 _encryptedMessage	=	0x5000
                    5100    315 _decryptedMessage	=	0x5100
                    1100    316 _montModExp_one_1_1	=	0x1100
                    1200    317 _montModExp_xTilde_1_1	=	0x1200
                            318 ;--------------------------------------------------------
                            319 ; absolute external ram data
                            320 ;--------------------------------------------------------
                            321 	.area XABS    (ABS,XDATA)
   4000                     322 	.org 0x4000
   4000                     323 _rmodm::
   4000                     324 	.ds 128
   4100                     325 	.org 0x4100
   4100                     326 _r2modm::
   4100                     327 	.ds 128
   4200                     328 	.org 0x4200
   4200                     329 _modulus::
   4200                     330 	.ds 128
   4300                     331 	.org 0x4300
   4300                     332 _message::
   4300                     333 	.ds 128
   4400                     334 	.org 0x4400
   4400                     335 _publicKey::
   4400                     336 	.ds 128
   4500                     337 	.org 0x4500
   4500                     338 _privateKey::
   4500                     339 	.ds 128
                            340 ;--------------------------------------------------------
                            341 ; external initialized ram data
                            342 ;--------------------------------------------------------
                            343 	.area XISEG   (XDATA)
                            344 	.area HOME    (CODE)
                            345 	.area GSINIT0 (CODE)
                            346 	.area GSINIT1 (CODE)
                            347 	.area GSINIT2 (CODE)
                            348 	.area GSINIT3 (CODE)
                            349 	.area GSINIT4 (CODE)
                            350 	.area GSINIT5 (CODE)
                            351 	.area GSINIT  (CODE)
                            352 	.area GSFINAL (CODE)
                            353 	.area CSEG    (CODE)
                            354 ;--------------------------------------------------------
                            355 ; interrupt vector 
                            356 ;--------------------------------------------------------
                            357 	.area HOME    (CODE)
   0000                     358 __interrupt_vect:
   0000 02s00r00            359 	ljmp	__sdcc_gsinit_startup
                            360 ;--------------------------------------------------------
                            361 ; global & static initialisations
                            362 ;--------------------------------------------------------
                            363 	.area HOME    (CODE)
                            364 	.area GSINIT  (CODE)
                            365 	.area GSFINAL (CODE)
                            366 	.area GSINIT  (CODE)
                            367 	.globl __sdcc_gsinit_startup
                            368 	.globl __sdcc_program_startup
                            369 	.globl __start__stack
                            370 	.globl __mcs51_genXINIT
                            371 	.globl __mcs51_genXRAMCLEAR
                            372 	.globl __mcs51_genRAMCLEAR
                            373 ;	main.c:33: volatile __xdata __at (0x4000) unsigned char rmodm[SIZE] = {0x95, 0x0C, 0x9E, 0x79, 0xEC, 0xD3, 0x0A, 0xE4, 0x35, 0x6B, 0x60, 0xED, 0x25, 0x25, 0x33, 0xD9, 0x26, 0x8C, 0xD1, 0x99, 0xEE, 0x9C, 0x11, 0x8D, 0xBC, 0xBF, 0x68, 0xAA, 0xB3, 0xF9, 0xDF, 0xDC, 0x80, 0xB8, 0x28, 0x60, 0x2B, 0x21, 0x03, 0x89, 0xEF, 0x2C, 0xE6, 0x93, 0x6F, 0xBB, 0xA7, 0x56, 0x28, 0xB5, 0x99, 0xD7, 0x69, 0xDB, 0x6B, 0x09, 0xF7, 0x0B, 0x84, 0xE5, 0xB2, 0xF8, 0x79, 0xC4, 0xD5, 0x7B, 0x06, 0x45, 0xB5, 0x22, 0xC2, 0x28, 0xF8, 0x7A, 0x39, 0x98, 0xE7, 0xA4, 0x54, 0x45, 0xA2, 0x0D, 0xCA, 0xB1, 0x3B, 0x9E, 0x59, 0xF9, 0xFB, 0xAA, 0x30, 0x97, 0x6D, 0x9B, 0x24, 0x6F, 0x74, 0x30, 0xA7, 0xAF, 0xFF, 0x84, 0x2C, 0x49, 0x1B, 0x30, 0x9F, 0xB5, 0x96, 0x3D, 0x8F, 0xC2, 0xF0, 0x3B, 0xFC, 0xD4, 0xB2, 0x78, 0x05, 0xD3, 0xCB, 0x80, 0x88, 0x85, 0x95, 0x7A, 0xB7, 0x64};
   0000 90s40r00            374 	mov	dptr,#_rmodm
   0003 74 95               375 	mov	a,#0x95
   0005 F0                  376 	movx	@dptr,a
   0006 90s40r01            377 	mov	dptr,#(_rmodm + 0x0001)
   0009 74 0C               378 	mov	a,#0x0C
   000B F0                  379 	movx	@dptr,a
   000C 90s40r02            380 	mov	dptr,#(_rmodm + 0x0002)
   000F 74 9E               381 	mov	a,#0x9E
   0011 F0                  382 	movx	@dptr,a
   0012 90s40r03            383 	mov	dptr,#(_rmodm + 0x0003)
   0015 74 79               384 	mov	a,#0x79
   0017 F0                  385 	movx	@dptr,a
   0018 90s40r04            386 	mov	dptr,#(_rmodm + 0x0004)
   001B 74 EC               387 	mov	a,#0xEC
   001D F0                  388 	movx	@dptr,a
   001E 90s40r05            389 	mov	dptr,#(_rmodm + 0x0005)
   0021 74 D3               390 	mov	a,#0xD3
   0023 F0                  391 	movx	@dptr,a
   0024 90s40r06            392 	mov	dptr,#(_rmodm + 0x0006)
   0027 74 0A               393 	mov	a,#0x0A
   0029 F0                  394 	movx	@dptr,a
   002A 90s40r07            395 	mov	dptr,#(_rmodm + 0x0007)
   002D 74 E4               396 	mov	a,#0xE4
   002F F0                  397 	movx	@dptr,a
   0030 90s40r08            398 	mov	dptr,#(_rmodm + 0x0008)
   0033 74 35               399 	mov	a,#0x35
   0035 F0                  400 	movx	@dptr,a
   0036 90s40r09            401 	mov	dptr,#(_rmodm + 0x0009)
   0039 74 6B               402 	mov	a,#0x6B
   003B F0                  403 	movx	@dptr,a
   003C 90s40r0A            404 	mov	dptr,#(_rmodm + 0x000a)
   003F 74 60               405 	mov	a,#0x60
   0041 F0                  406 	movx	@dptr,a
   0042 90s40r0B            407 	mov	dptr,#(_rmodm + 0x000b)
   0045 74 ED               408 	mov	a,#0xED
   0047 F0                  409 	movx	@dptr,a
   0048 90s40r0C            410 	mov	dptr,#(_rmodm + 0x000c)
   004B 74 25               411 	mov	a,#0x25
   004D F0                  412 	movx	@dptr,a
   004E 90s40r0D            413 	mov	dptr,#(_rmodm + 0x000d)
   0051 74 25               414 	mov	a,#0x25
   0053 F0                  415 	movx	@dptr,a
   0054 90s40r0E            416 	mov	dptr,#(_rmodm + 0x000e)
   0057 74 33               417 	mov	a,#0x33
   0059 F0                  418 	movx	@dptr,a
   005A 90s40r0F            419 	mov	dptr,#(_rmodm + 0x000f)
   005D 74 D9               420 	mov	a,#0xD9
   005F F0                  421 	movx	@dptr,a
   0060 90s40r10            422 	mov	dptr,#(_rmodm + 0x0010)
   0063 74 26               423 	mov	a,#0x26
   0065 F0                  424 	movx	@dptr,a
   0066 90s40r11            425 	mov	dptr,#(_rmodm + 0x0011)
   0069 74 8C               426 	mov	a,#0x8C
   006B F0                  427 	movx	@dptr,a
   006C 90s40r12            428 	mov	dptr,#(_rmodm + 0x0012)
   006F 74 D1               429 	mov	a,#0xD1
   0071 F0                  430 	movx	@dptr,a
   0072 90s40r13            431 	mov	dptr,#(_rmodm + 0x0013)
   0075 74 99               432 	mov	a,#0x99
   0077 F0                  433 	movx	@dptr,a
   0078 90s40r14            434 	mov	dptr,#(_rmodm + 0x0014)
   007B 74 EE               435 	mov	a,#0xEE
   007D F0                  436 	movx	@dptr,a
   007E 90s40r15            437 	mov	dptr,#(_rmodm + 0x0015)
   0081 74 9C               438 	mov	a,#0x9C
   0083 F0                  439 	movx	@dptr,a
   0084 90s40r16            440 	mov	dptr,#(_rmodm + 0x0016)
   0087 74 11               441 	mov	a,#0x11
   0089 F0                  442 	movx	@dptr,a
   008A 90s40r17            443 	mov	dptr,#(_rmodm + 0x0017)
   008D 74 8D               444 	mov	a,#0x8D
   008F F0                  445 	movx	@dptr,a
   0090 90s40r18            446 	mov	dptr,#(_rmodm + 0x0018)
   0093 74 BC               447 	mov	a,#0xBC
   0095 F0                  448 	movx	@dptr,a
   0096 90s40r19            449 	mov	dptr,#(_rmodm + 0x0019)
   0099 74 BF               450 	mov	a,#0xBF
   009B F0                  451 	movx	@dptr,a
   009C 90s40r1A            452 	mov	dptr,#(_rmodm + 0x001a)
   009F 74 68               453 	mov	a,#0x68
   00A1 F0                  454 	movx	@dptr,a
   00A2 90s40r1B            455 	mov	dptr,#(_rmodm + 0x001b)
   00A5 74 AA               456 	mov	a,#0xAA
   00A7 F0                  457 	movx	@dptr,a
   00A8 90s40r1C            458 	mov	dptr,#(_rmodm + 0x001c)
   00AB 74 B3               459 	mov	a,#0xB3
   00AD F0                  460 	movx	@dptr,a
   00AE 90s40r1D            461 	mov	dptr,#(_rmodm + 0x001d)
   00B1 74 F9               462 	mov	a,#0xF9
   00B3 F0                  463 	movx	@dptr,a
   00B4 90s40r1E            464 	mov	dptr,#(_rmodm + 0x001e)
   00B7 74 DF               465 	mov	a,#0xDF
   00B9 F0                  466 	movx	@dptr,a
   00BA 90s40r1F            467 	mov	dptr,#(_rmodm + 0x001f)
   00BD 74 DC               468 	mov	a,#0xDC
   00BF F0                  469 	movx	@dptr,a
   00C0 90s40r20            470 	mov	dptr,#(_rmodm + 0x0020)
   00C3 74 80               471 	mov	a,#0x80
   00C5 F0                  472 	movx	@dptr,a
   00C6 90s40r21            473 	mov	dptr,#(_rmodm + 0x0021)
   00C9 74 B8               474 	mov	a,#0xB8
   00CB F0                  475 	movx	@dptr,a
   00CC 90s40r22            476 	mov	dptr,#(_rmodm + 0x0022)
   00CF 74 28               477 	mov	a,#0x28
   00D1 F0                  478 	movx	@dptr,a
   00D2 90s40r23            479 	mov	dptr,#(_rmodm + 0x0023)
   00D5 74 60               480 	mov	a,#0x60
   00D7 F0                  481 	movx	@dptr,a
   00D8 90s40r24            482 	mov	dptr,#(_rmodm + 0x0024)
   00DB 74 2B               483 	mov	a,#0x2B
   00DD F0                  484 	movx	@dptr,a
   00DE 90s40r25            485 	mov	dptr,#(_rmodm + 0x0025)
   00E1 74 21               486 	mov	a,#0x21
   00E3 F0                  487 	movx	@dptr,a
   00E4 90s40r26            488 	mov	dptr,#(_rmodm + 0x0026)
   00E7 74 03               489 	mov	a,#0x03
   00E9 F0                  490 	movx	@dptr,a
   00EA 90s40r27            491 	mov	dptr,#(_rmodm + 0x0027)
   00ED 74 89               492 	mov	a,#0x89
   00EF F0                  493 	movx	@dptr,a
   00F0 90s40r28            494 	mov	dptr,#(_rmodm + 0x0028)
   00F3 74 EF               495 	mov	a,#0xEF
   00F5 F0                  496 	movx	@dptr,a
   00F6 90s40r29            497 	mov	dptr,#(_rmodm + 0x0029)
   00F9 74 2C               498 	mov	a,#0x2C
   00FB F0                  499 	movx	@dptr,a
   00FC 90s40r2A            500 	mov	dptr,#(_rmodm + 0x002a)
   00FF 74 E6               501 	mov	a,#0xE6
   0101 F0                  502 	movx	@dptr,a
   0102 90s40r2B            503 	mov	dptr,#(_rmodm + 0x002b)
   0105 74 93               504 	mov	a,#0x93
   0107 F0                  505 	movx	@dptr,a
   0108 90s40r2C            506 	mov	dptr,#(_rmodm + 0x002c)
   010B 74 6F               507 	mov	a,#0x6F
   010D F0                  508 	movx	@dptr,a
   010E 90s40r2D            509 	mov	dptr,#(_rmodm + 0x002d)
   0111 74 BB               510 	mov	a,#0xBB
   0113 F0                  511 	movx	@dptr,a
   0114 90s40r2E            512 	mov	dptr,#(_rmodm + 0x002e)
   0117 74 A7               513 	mov	a,#0xA7
   0119 F0                  514 	movx	@dptr,a
   011A 90s40r2F            515 	mov	dptr,#(_rmodm + 0x002f)
   011D 74 56               516 	mov	a,#0x56
   011F F0                  517 	movx	@dptr,a
   0120 90s40r30            518 	mov	dptr,#(_rmodm + 0x0030)
   0123 74 28               519 	mov	a,#0x28
   0125 F0                  520 	movx	@dptr,a
   0126 90s40r31            521 	mov	dptr,#(_rmodm + 0x0031)
   0129 74 B5               522 	mov	a,#0xB5
   012B F0                  523 	movx	@dptr,a
   012C 90s40r32            524 	mov	dptr,#(_rmodm + 0x0032)
   012F 74 99               525 	mov	a,#0x99
   0131 F0                  526 	movx	@dptr,a
   0132 90s40r33            527 	mov	dptr,#(_rmodm + 0x0033)
   0135 74 D7               528 	mov	a,#0xD7
   0137 F0                  529 	movx	@dptr,a
   0138 90s40r34            530 	mov	dptr,#(_rmodm + 0x0034)
   013B 74 69               531 	mov	a,#0x69
   013D F0                  532 	movx	@dptr,a
   013E 90s40r35            533 	mov	dptr,#(_rmodm + 0x0035)
   0141 74 DB               534 	mov	a,#0xDB
   0143 F0                  535 	movx	@dptr,a
   0144 90s40r36            536 	mov	dptr,#(_rmodm + 0x0036)
   0147 74 6B               537 	mov	a,#0x6B
   0149 F0                  538 	movx	@dptr,a
   014A 90s40r37            539 	mov	dptr,#(_rmodm + 0x0037)
   014D 74 09               540 	mov	a,#0x09
   014F F0                  541 	movx	@dptr,a
   0150 90s40r38            542 	mov	dptr,#(_rmodm + 0x0038)
   0153 74 F7               543 	mov	a,#0xF7
   0155 F0                  544 	movx	@dptr,a
   0156 90s40r39            545 	mov	dptr,#(_rmodm + 0x0039)
   0159 74 0B               546 	mov	a,#0x0B
   015B F0                  547 	movx	@dptr,a
   015C 90s40r3A            548 	mov	dptr,#(_rmodm + 0x003a)
   015F 74 84               549 	mov	a,#0x84
   0161 F0                  550 	movx	@dptr,a
   0162 90s40r3B            551 	mov	dptr,#(_rmodm + 0x003b)
   0165 74 E5               552 	mov	a,#0xE5
   0167 F0                  553 	movx	@dptr,a
   0168 90s40r3C            554 	mov	dptr,#(_rmodm + 0x003c)
   016B 74 B2               555 	mov	a,#0xB2
   016D F0                  556 	movx	@dptr,a
   016E 90s40r3D            557 	mov	dptr,#(_rmodm + 0x003d)
   0171 74 F8               558 	mov	a,#0xF8
   0173 F0                  559 	movx	@dptr,a
   0174 90s40r3E            560 	mov	dptr,#(_rmodm + 0x003e)
   0177 74 79               561 	mov	a,#0x79
   0179 F0                  562 	movx	@dptr,a
   017A 90s40r3F            563 	mov	dptr,#(_rmodm + 0x003f)
   017D 74 C4               564 	mov	a,#0xC4
   017F F0                  565 	movx	@dptr,a
   0180 90s40r40            566 	mov	dptr,#(_rmodm + 0x0040)
   0183 74 D5               567 	mov	a,#0xD5
   0185 F0                  568 	movx	@dptr,a
   0186 90s40r41            569 	mov	dptr,#(_rmodm + 0x0041)
   0189 74 7B               570 	mov	a,#0x7B
   018B F0                  571 	movx	@dptr,a
   018C 90s40r42            572 	mov	dptr,#(_rmodm + 0x0042)
   018F 74 06               573 	mov	a,#0x06
   0191 F0                  574 	movx	@dptr,a
   0192 90s40r43            575 	mov	dptr,#(_rmodm + 0x0043)
   0195 74 45               576 	mov	a,#0x45
   0197 F0                  577 	movx	@dptr,a
   0198 90s40r44            578 	mov	dptr,#(_rmodm + 0x0044)
   019B 74 B5               579 	mov	a,#0xB5
   019D F0                  580 	movx	@dptr,a
   019E 90s40r45            581 	mov	dptr,#(_rmodm + 0x0045)
   01A1 74 22               582 	mov	a,#0x22
   01A3 F0                  583 	movx	@dptr,a
   01A4 90s40r46            584 	mov	dptr,#(_rmodm + 0x0046)
   01A7 74 C2               585 	mov	a,#0xC2
   01A9 F0                  586 	movx	@dptr,a
   01AA 90s40r47            587 	mov	dptr,#(_rmodm + 0x0047)
   01AD 74 28               588 	mov	a,#0x28
   01AF F0                  589 	movx	@dptr,a
   01B0 90s40r48            590 	mov	dptr,#(_rmodm + 0x0048)
   01B3 74 F8               591 	mov	a,#0xF8
   01B5 F0                  592 	movx	@dptr,a
   01B6 90s40r49            593 	mov	dptr,#(_rmodm + 0x0049)
   01B9 74 7A               594 	mov	a,#0x7A
   01BB F0                  595 	movx	@dptr,a
   01BC 90s40r4A            596 	mov	dptr,#(_rmodm + 0x004a)
   01BF 74 39               597 	mov	a,#0x39
   01C1 F0                  598 	movx	@dptr,a
   01C2 90s40r4B            599 	mov	dptr,#(_rmodm + 0x004b)
   01C5 74 98               600 	mov	a,#0x98
   01C7 F0                  601 	movx	@dptr,a
   01C8 90s40r4C            602 	mov	dptr,#(_rmodm + 0x004c)
   01CB 74 E7               603 	mov	a,#0xE7
   01CD F0                  604 	movx	@dptr,a
   01CE 90s40r4D            605 	mov	dptr,#(_rmodm + 0x004d)
   01D1 74 A4               606 	mov	a,#0xA4
   01D3 F0                  607 	movx	@dptr,a
   01D4 90s40r4E            608 	mov	dptr,#(_rmodm + 0x004e)
   01D7 74 54               609 	mov	a,#0x54
   01D9 F0                  610 	movx	@dptr,a
   01DA 90s40r4F            611 	mov	dptr,#(_rmodm + 0x004f)
   01DD 74 45               612 	mov	a,#0x45
   01DF F0                  613 	movx	@dptr,a
   01E0 90s40r50            614 	mov	dptr,#(_rmodm + 0x0050)
   01E3 74 A2               615 	mov	a,#0xA2
   01E5 F0                  616 	movx	@dptr,a
   01E6 90s40r51            617 	mov	dptr,#(_rmodm + 0x0051)
   01E9 74 0D               618 	mov	a,#0x0D
   01EB F0                  619 	movx	@dptr,a
   01EC 90s40r52            620 	mov	dptr,#(_rmodm + 0x0052)
   01EF 74 CA               621 	mov	a,#0xCA
   01F1 F0                  622 	movx	@dptr,a
   01F2 90s40r53            623 	mov	dptr,#(_rmodm + 0x0053)
   01F5 74 B1               624 	mov	a,#0xB1
   01F7 F0                  625 	movx	@dptr,a
   01F8 90s40r54            626 	mov	dptr,#(_rmodm + 0x0054)
   01FB 74 3B               627 	mov	a,#0x3B
   01FD F0                  628 	movx	@dptr,a
   01FE 90s40r55            629 	mov	dptr,#(_rmodm + 0x0055)
   0201 74 9E               630 	mov	a,#0x9E
   0203 F0                  631 	movx	@dptr,a
   0204 90s40r56            632 	mov	dptr,#(_rmodm + 0x0056)
   0207 74 59               633 	mov	a,#0x59
   0209 F0                  634 	movx	@dptr,a
   020A 90s40r57            635 	mov	dptr,#(_rmodm + 0x0057)
   020D 74 F9               636 	mov	a,#0xF9
   020F F0                  637 	movx	@dptr,a
   0210 90s40r58            638 	mov	dptr,#(_rmodm + 0x0058)
   0213 74 FB               639 	mov	a,#0xFB
   0215 F0                  640 	movx	@dptr,a
   0216 90s40r59            641 	mov	dptr,#(_rmodm + 0x0059)
   0219 74 AA               642 	mov	a,#0xAA
   021B F0                  643 	movx	@dptr,a
   021C 90s40r5A            644 	mov	dptr,#(_rmodm + 0x005a)
   021F 74 30               645 	mov	a,#0x30
   0221 F0                  646 	movx	@dptr,a
   0222 90s40r5B            647 	mov	dptr,#(_rmodm + 0x005b)
   0225 74 97               648 	mov	a,#0x97
   0227 F0                  649 	movx	@dptr,a
   0228 90s40r5C            650 	mov	dptr,#(_rmodm + 0x005c)
   022B 74 6D               651 	mov	a,#0x6D
   022D F0                  652 	movx	@dptr,a
   022E 90s40r5D            653 	mov	dptr,#(_rmodm + 0x005d)
   0231 74 9B               654 	mov	a,#0x9B
   0233 F0                  655 	movx	@dptr,a
   0234 90s40r5E            656 	mov	dptr,#(_rmodm + 0x005e)
   0237 74 24               657 	mov	a,#0x24
   0239 F0                  658 	movx	@dptr,a
   023A 90s40r5F            659 	mov	dptr,#(_rmodm + 0x005f)
   023D 74 6F               660 	mov	a,#0x6F
   023F F0                  661 	movx	@dptr,a
   0240 90s40r60            662 	mov	dptr,#(_rmodm + 0x0060)
   0243 74 74               663 	mov	a,#0x74
   0245 F0                  664 	movx	@dptr,a
   0246 90s40r61            665 	mov	dptr,#(_rmodm + 0x0061)
   0249 74 30               666 	mov	a,#0x30
   024B F0                  667 	movx	@dptr,a
   024C 90s40r62            668 	mov	dptr,#(_rmodm + 0x0062)
   024F 74 A7               669 	mov	a,#0xA7
   0251 F0                  670 	movx	@dptr,a
   0252 90s40r63            671 	mov	dptr,#(_rmodm + 0x0063)
   0255 74 AF               672 	mov	a,#0xAF
   0257 F0                  673 	movx	@dptr,a
   0258 90s40r64            674 	mov	dptr,#(_rmodm + 0x0064)
   025B 74 FF               675 	mov	a,#0xFF
   025D F0                  676 	movx	@dptr,a
   025E 90s40r65            677 	mov	dptr,#(_rmodm + 0x0065)
   0261 74 84               678 	mov	a,#0x84
   0263 F0                  679 	movx	@dptr,a
   0264 90s40r66            680 	mov	dptr,#(_rmodm + 0x0066)
   0267 74 2C               681 	mov	a,#0x2C
   0269 F0                  682 	movx	@dptr,a
   026A 90s40r67            683 	mov	dptr,#(_rmodm + 0x0067)
   026D 74 49               684 	mov	a,#0x49
   026F F0                  685 	movx	@dptr,a
   0270 90s40r68            686 	mov	dptr,#(_rmodm + 0x0068)
   0273 74 1B               687 	mov	a,#0x1B
   0275 F0                  688 	movx	@dptr,a
   0276 90s40r69            689 	mov	dptr,#(_rmodm + 0x0069)
   0279 74 30               690 	mov	a,#0x30
   027B F0                  691 	movx	@dptr,a
   027C 90s40r6A            692 	mov	dptr,#(_rmodm + 0x006a)
   027F 74 9F               693 	mov	a,#0x9F
   0281 F0                  694 	movx	@dptr,a
   0282 90s40r6B            695 	mov	dptr,#(_rmodm + 0x006b)
   0285 74 B5               696 	mov	a,#0xB5
   0287 F0                  697 	movx	@dptr,a
   0288 90s40r6C            698 	mov	dptr,#(_rmodm + 0x006c)
   028B 74 96               699 	mov	a,#0x96
   028D F0                  700 	movx	@dptr,a
   028E 90s40r6D            701 	mov	dptr,#(_rmodm + 0x006d)
   0291 74 3D               702 	mov	a,#0x3D
   0293 F0                  703 	movx	@dptr,a
   0294 90s40r6E            704 	mov	dptr,#(_rmodm + 0x006e)
   0297 74 8F               705 	mov	a,#0x8F
   0299 F0                  706 	movx	@dptr,a
   029A 90s40r6F            707 	mov	dptr,#(_rmodm + 0x006f)
   029D 74 C2               708 	mov	a,#0xC2
   029F F0                  709 	movx	@dptr,a
   02A0 90s40r70            710 	mov	dptr,#(_rmodm + 0x0070)
   02A3 74 F0               711 	mov	a,#0xF0
   02A5 F0                  712 	movx	@dptr,a
   02A6 90s40r71            713 	mov	dptr,#(_rmodm + 0x0071)
   02A9 74 3B               714 	mov	a,#0x3B
   02AB F0                  715 	movx	@dptr,a
   02AC 90s40r72            716 	mov	dptr,#(_rmodm + 0x0072)
   02AF 74 FC               717 	mov	a,#0xFC
   02B1 F0                  718 	movx	@dptr,a
   02B2 90s40r73            719 	mov	dptr,#(_rmodm + 0x0073)
   02B5 74 D4               720 	mov	a,#0xD4
   02B7 F0                  721 	movx	@dptr,a
   02B8 90s40r74            722 	mov	dptr,#(_rmodm + 0x0074)
   02BB 74 B2               723 	mov	a,#0xB2
   02BD F0                  724 	movx	@dptr,a
   02BE 90s40r75            725 	mov	dptr,#(_rmodm + 0x0075)
   02C1 74 78               726 	mov	a,#0x78
   02C3 F0                  727 	movx	@dptr,a
   02C4 90s40r76            728 	mov	dptr,#(_rmodm + 0x0076)
   02C7 74 05               729 	mov	a,#0x05
   02C9 F0                  730 	movx	@dptr,a
   02CA 90s40r77            731 	mov	dptr,#(_rmodm + 0x0077)
   02CD 74 D3               732 	mov	a,#0xD3
   02CF F0                  733 	movx	@dptr,a
   02D0 90s40r78            734 	mov	dptr,#(_rmodm + 0x0078)
   02D3 74 CB               735 	mov	a,#0xCB
   02D5 F0                  736 	movx	@dptr,a
   02D6 90s40r79            737 	mov	dptr,#(_rmodm + 0x0079)
   02D9 74 80               738 	mov	a,#0x80
   02DB F0                  739 	movx	@dptr,a
   02DC 90s40r7A            740 	mov	dptr,#(_rmodm + 0x007a)
   02DF 74 88               741 	mov	a,#0x88
   02E1 F0                  742 	movx	@dptr,a
   02E2 90s40r7B            743 	mov	dptr,#(_rmodm + 0x007b)
   02E5 74 85               744 	mov	a,#0x85
   02E7 F0                  745 	movx	@dptr,a
   02E8 90s40r7C            746 	mov	dptr,#(_rmodm + 0x007c)
   02EB 74 95               747 	mov	a,#0x95
   02ED F0                  748 	movx	@dptr,a
   02EE 90s40r7D            749 	mov	dptr,#(_rmodm + 0x007d)
   02F1 74 7A               750 	mov	a,#0x7A
   02F3 F0                  751 	movx	@dptr,a
   02F4 90s40r7E            752 	mov	dptr,#(_rmodm + 0x007e)
   02F7 74 B7               753 	mov	a,#0xB7
   02F9 F0                  754 	movx	@dptr,a
   02FA 90s40r7F            755 	mov	dptr,#(_rmodm + 0x007f)
   02FD 74 64               756 	mov	a,#0x64
   02FF F0                  757 	movx	@dptr,a
                            758 ;	main.c:34: volatile __xdata __at (0x4100) unsigned char r2modm[SIZE] = {0xE4, 0xC4, 0x31, 0x31, 0x08, 0x64, 0x1B, 0xC5, 0x40, 0x21, 0xD5, 0x3F, 0x82, 0x98, 0xB5, 0x8B, 0x0C, 0xDA, 0xDE, 0x0A, 0x73, 0xD6, 0x75, 0x80, 0x81, 0x7B, 0xAF, 0x90, 0x51, 0xA2, 0x22, 0xDF, 0x60, 0xAD, 0x1A, 0x5A, 0x69, 0x4E, 0x87, 0xF5, 0x82, 0x19, 0xC7, 0xDD, 0xAF, 0xEB, 0x7A, 0x3E, 0xF3, 0xDA, 0xB1, 0xE1, 0xED, 0xD2, 0x2E, 0x26, 0x7D, 0xD5, 0xB7, 0xC3, 0x13, 0x09, 0xD5, 0x11, 0xDE, 0x9E, 0x12, 0x6A, 0x51, 0xF5, 0x83, 0x1B, 0xDE, 0xAB, 0x6D, 0xD7, 0xAD, 0x32, 0x07, 0x6C, 0x95, 0x2A, 0x56, 0xFF, 0xD7, 0xE7, 0x00, 0x85, 0xBE, 0xB4, 0x3E, 0xEF, 0x73, 0x88, 0x75, 0xD9, 0x5C, 0x6A, 0xB1, 0x58, 0x4A, 0xBC, 0x80, 0x53, 0x63, 0x48, 0xFD, 0xA0, 0xFC, 0xAD, 0xD9, 0x34, 0xFB, 0xD3, 0xA9, 0xE8, 0x18, 0x32, 0x33, 0x78, 0xB0, 0x08, 0xE4, 0x7B, 0x59, 0xF2, 0x45, 0x8A};
   0300 90s41r00            759 	mov	dptr,#_r2modm
   0303 74 E4               760 	mov	a,#0xE4
   0305 F0                  761 	movx	@dptr,a
   0306 90s41r01            762 	mov	dptr,#(_r2modm + 0x0001)
   0309 74 C4               763 	mov	a,#0xC4
   030B F0                  764 	movx	@dptr,a
   030C 90s41r02            765 	mov	dptr,#(_r2modm + 0x0002)
   030F 74 31               766 	mov	a,#0x31
   0311 F0                  767 	movx	@dptr,a
   0312 90s41r03            768 	mov	dptr,#(_r2modm + 0x0003)
   0315 74 31               769 	mov	a,#0x31
   0317 F0                  770 	movx	@dptr,a
   0318 90s41r04            771 	mov	dptr,#(_r2modm + 0x0004)
   031B 74 08               772 	mov	a,#0x08
   031D F0                  773 	movx	@dptr,a
   031E 90s41r05            774 	mov	dptr,#(_r2modm + 0x0005)
   0321 74 64               775 	mov	a,#0x64
   0323 F0                  776 	movx	@dptr,a
   0324 90s41r06            777 	mov	dptr,#(_r2modm + 0x0006)
   0327 74 1B               778 	mov	a,#0x1B
   0329 F0                  779 	movx	@dptr,a
   032A 90s41r07            780 	mov	dptr,#(_r2modm + 0x0007)
   032D 74 C5               781 	mov	a,#0xC5
   032F F0                  782 	movx	@dptr,a
   0330 90s41r08            783 	mov	dptr,#(_r2modm + 0x0008)
   0333 74 40               784 	mov	a,#0x40
   0335 F0                  785 	movx	@dptr,a
   0336 90s41r09            786 	mov	dptr,#(_r2modm + 0x0009)
   0339 74 21               787 	mov	a,#0x21
   033B F0                  788 	movx	@dptr,a
   033C 90s41r0A            789 	mov	dptr,#(_r2modm + 0x000a)
   033F 74 D5               790 	mov	a,#0xD5
   0341 F0                  791 	movx	@dptr,a
   0342 90s41r0B            792 	mov	dptr,#(_r2modm + 0x000b)
   0345 74 3F               793 	mov	a,#0x3F
   0347 F0                  794 	movx	@dptr,a
   0348 90s41r0C            795 	mov	dptr,#(_r2modm + 0x000c)
   034B 74 82               796 	mov	a,#0x82
   034D F0                  797 	movx	@dptr,a
   034E 90s41r0D            798 	mov	dptr,#(_r2modm + 0x000d)
   0351 74 98               799 	mov	a,#0x98
   0353 F0                  800 	movx	@dptr,a
   0354 90s41r0E            801 	mov	dptr,#(_r2modm + 0x000e)
   0357 74 B5               802 	mov	a,#0xB5
   0359 F0                  803 	movx	@dptr,a
   035A 90s41r0F            804 	mov	dptr,#(_r2modm + 0x000f)
   035D 74 8B               805 	mov	a,#0x8B
   035F F0                  806 	movx	@dptr,a
   0360 90s41r10            807 	mov	dptr,#(_r2modm + 0x0010)
   0363 74 0C               808 	mov	a,#0x0C
   0365 F0                  809 	movx	@dptr,a
   0366 90s41r11            810 	mov	dptr,#(_r2modm + 0x0011)
   0369 74 DA               811 	mov	a,#0xDA
   036B F0                  812 	movx	@dptr,a
   036C 90s41r12            813 	mov	dptr,#(_r2modm + 0x0012)
   036F 74 DE               814 	mov	a,#0xDE
   0371 F0                  815 	movx	@dptr,a
   0372 90s41r13            816 	mov	dptr,#(_r2modm + 0x0013)
   0375 74 0A               817 	mov	a,#0x0A
   0377 F0                  818 	movx	@dptr,a
   0378 90s41r14            819 	mov	dptr,#(_r2modm + 0x0014)
   037B 74 73               820 	mov	a,#0x73
   037D F0                  821 	movx	@dptr,a
   037E 90s41r15            822 	mov	dptr,#(_r2modm + 0x0015)
   0381 74 D6               823 	mov	a,#0xD6
   0383 F0                  824 	movx	@dptr,a
   0384 90s41r16            825 	mov	dptr,#(_r2modm + 0x0016)
   0387 74 75               826 	mov	a,#0x75
   0389 F0                  827 	movx	@dptr,a
   038A 90s41r17            828 	mov	dptr,#(_r2modm + 0x0017)
   038D 74 80               829 	mov	a,#0x80
   038F F0                  830 	movx	@dptr,a
   0390 90s41r18            831 	mov	dptr,#(_r2modm + 0x0018)
   0393 74 81               832 	mov	a,#0x81
   0395 F0                  833 	movx	@dptr,a
   0396 90s41r19            834 	mov	dptr,#(_r2modm + 0x0019)
   0399 74 7B               835 	mov	a,#0x7B
   039B F0                  836 	movx	@dptr,a
   039C 90s41r1A            837 	mov	dptr,#(_r2modm + 0x001a)
   039F 74 AF               838 	mov	a,#0xAF
   03A1 F0                  839 	movx	@dptr,a
   03A2 90s41r1B            840 	mov	dptr,#(_r2modm + 0x001b)
   03A5 74 90               841 	mov	a,#0x90
   03A7 F0                  842 	movx	@dptr,a
   03A8 90s41r1C            843 	mov	dptr,#(_r2modm + 0x001c)
   03AB 74 51               844 	mov	a,#0x51
   03AD F0                  845 	movx	@dptr,a
   03AE 90s41r1D            846 	mov	dptr,#(_r2modm + 0x001d)
   03B1 74 A2               847 	mov	a,#0xA2
   03B3 F0                  848 	movx	@dptr,a
   03B4 90s41r1E            849 	mov	dptr,#(_r2modm + 0x001e)
   03B7 74 22               850 	mov	a,#0x22
   03B9 F0                  851 	movx	@dptr,a
   03BA 90s41r1F            852 	mov	dptr,#(_r2modm + 0x001f)
   03BD 74 DF               853 	mov	a,#0xDF
   03BF F0                  854 	movx	@dptr,a
   03C0 90s41r20            855 	mov	dptr,#(_r2modm + 0x0020)
   03C3 74 60               856 	mov	a,#0x60
   03C5 F0                  857 	movx	@dptr,a
   03C6 90s41r21            858 	mov	dptr,#(_r2modm + 0x0021)
   03C9 74 AD               859 	mov	a,#0xAD
   03CB F0                  860 	movx	@dptr,a
   03CC 90s41r22            861 	mov	dptr,#(_r2modm + 0x0022)
   03CF 74 1A               862 	mov	a,#0x1A
   03D1 F0                  863 	movx	@dptr,a
   03D2 90s41r23            864 	mov	dptr,#(_r2modm + 0x0023)
   03D5 74 5A               865 	mov	a,#0x5A
   03D7 F0                  866 	movx	@dptr,a
   03D8 90s41r24            867 	mov	dptr,#(_r2modm + 0x0024)
   03DB 74 69               868 	mov	a,#0x69
   03DD F0                  869 	movx	@dptr,a
   03DE 90s41r25            870 	mov	dptr,#(_r2modm + 0x0025)
   03E1 74 4E               871 	mov	a,#0x4E
   03E3 F0                  872 	movx	@dptr,a
   03E4 90s41r26            873 	mov	dptr,#(_r2modm + 0x0026)
   03E7 74 87               874 	mov	a,#0x87
   03E9 F0                  875 	movx	@dptr,a
   03EA 90s41r27            876 	mov	dptr,#(_r2modm + 0x0027)
   03ED 74 F5               877 	mov	a,#0xF5
   03EF F0                  878 	movx	@dptr,a
   03F0 90s41r28            879 	mov	dptr,#(_r2modm + 0x0028)
   03F3 74 82               880 	mov	a,#0x82
   03F5 F0                  881 	movx	@dptr,a
   03F6 90s41r29            882 	mov	dptr,#(_r2modm + 0x0029)
   03F9 74 19               883 	mov	a,#0x19
   03FB F0                  884 	movx	@dptr,a
   03FC 90s41r2A            885 	mov	dptr,#(_r2modm + 0x002a)
   03FF 74 C7               886 	mov	a,#0xC7
   0401 F0                  887 	movx	@dptr,a
   0402 90s41r2B            888 	mov	dptr,#(_r2modm + 0x002b)
   0405 74 DD               889 	mov	a,#0xDD
   0407 F0                  890 	movx	@dptr,a
   0408 90s41r2C            891 	mov	dptr,#(_r2modm + 0x002c)
   040B 74 AF               892 	mov	a,#0xAF
   040D F0                  893 	movx	@dptr,a
   040E 90s41r2D            894 	mov	dptr,#(_r2modm + 0x002d)
   0411 74 EB               895 	mov	a,#0xEB
   0413 F0                  896 	movx	@dptr,a
   0414 90s41r2E            897 	mov	dptr,#(_r2modm + 0x002e)
   0417 74 7A               898 	mov	a,#0x7A
   0419 F0                  899 	movx	@dptr,a
   041A 90s41r2F            900 	mov	dptr,#(_r2modm + 0x002f)
   041D 74 3E               901 	mov	a,#0x3E
   041F F0                  902 	movx	@dptr,a
   0420 90s41r30            903 	mov	dptr,#(_r2modm + 0x0030)
   0423 74 F3               904 	mov	a,#0xF3
   0425 F0                  905 	movx	@dptr,a
   0426 90s41r31            906 	mov	dptr,#(_r2modm + 0x0031)
   0429 74 DA               907 	mov	a,#0xDA
   042B F0                  908 	movx	@dptr,a
   042C 90s41r32            909 	mov	dptr,#(_r2modm + 0x0032)
   042F 74 B1               910 	mov	a,#0xB1
   0431 F0                  911 	movx	@dptr,a
   0432 90s41r33            912 	mov	dptr,#(_r2modm + 0x0033)
   0435 74 E1               913 	mov	a,#0xE1
   0437 F0                  914 	movx	@dptr,a
   0438 90s41r34            915 	mov	dptr,#(_r2modm + 0x0034)
   043B 74 ED               916 	mov	a,#0xED
   043D F0                  917 	movx	@dptr,a
   043E 90s41r35            918 	mov	dptr,#(_r2modm + 0x0035)
   0441 74 D2               919 	mov	a,#0xD2
   0443 F0                  920 	movx	@dptr,a
   0444 90s41r36            921 	mov	dptr,#(_r2modm + 0x0036)
   0447 74 2E               922 	mov	a,#0x2E
   0449 F0                  923 	movx	@dptr,a
   044A 90s41r37            924 	mov	dptr,#(_r2modm + 0x0037)
   044D 74 26               925 	mov	a,#0x26
   044F F0                  926 	movx	@dptr,a
   0450 90s41r38            927 	mov	dptr,#(_r2modm + 0x0038)
   0453 74 7D               928 	mov	a,#0x7D
   0455 F0                  929 	movx	@dptr,a
   0456 90s41r39            930 	mov	dptr,#(_r2modm + 0x0039)
   0459 74 D5               931 	mov	a,#0xD5
   045B F0                  932 	movx	@dptr,a
   045C 90s41r3A            933 	mov	dptr,#(_r2modm + 0x003a)
   045F 74 B7               934 	mov	a,#0xB7
   0461 F0                  935 	movx	@dptr,a
   0462 90s41r3B            936 	mov	dptr,#(_r2modm + 0x003b)
   0465 74 C3               937 	mov	a,#0xC3
   0467 F0                  938 	movx	@dptr,a
   0468 90s41r3C            939 	mov	dptr,#(_r2modm + 0x003c)
   046B 74 13               940 	mov	a,#0x13
   046D F0                  941 	movx	@dptr,a
   046E 90s41r3D            942 	mov	dptr,#(_r2modm + 0x003d)
   0471 74 09               943 	mov	a,#0x09
   0473 F0                  944 	movx	@dptr,a
   0474 90s41r3E            945 	mov	dptr,#(_r2modm + 0x003e)
   0477 74 D5               946 	mov	a,#0xD5
   0479 F0                  947 	movx	@dptr,a
   047A 90s41r3F            948 	mov	dptr,#(_r2modm + 0x003f)
   047D 74 11               949 	mov	a,#0x11
   047F F0                  950 	movx	@dptr,a
   0480 90s41r40            951 	mov	dptr,#(_r2modm + 0x0040)
   0483 74 DE               952 	mov	a,#0xDE
   0485 F0                  953 	movx	@dptr,a
   0486 90s41r41            954 	mov	dptr,#(_r2modm + 0x0041)
   0489 74 9E               955 	mov	a,#0x9E
   048B F0                  956 	movx	@dptr,a
   048C 90s41r42            957 	mov	dptr,#(_r2modm + 0x0042)
   048F 74 12               958 	mov	a,#0x12
   0491 F0                  959 	movx	@dptr,a
   0492 90s41r43            960 	mov	dptr,#(_r2modm + 0x0043)
   0495 74 6A               961 	mov	a,#0x6A
   0497 F0                  962 	movx	@dptr,a
   0498 90s41r44            963 	mov	dptr,#(_r2modm + 0x0044)
   049B 74 51               964 	mov	a,#0x51
   049D F0                  965 	movx	@dptr,a
   049E 90s41r45            966 	mov	dptr,#(_r2modm + 0x0045)
   04A1 74 F5               967 	mov	a,#0xF5
   04A3 F0                  968 	movx	@dptr,a
   04A4 90s41r46            969 	mov	dptr,#(_r2modm + 0x0046)
   04A7 74 83               970 	mov	a,#0x83
   04A9 F0                  971 	movx	@dptr,a
   04AA 90s41r47            972 	mov	dptr,#(_r2modm + 0x0047)
   04AD 74 1B               973 	mov	a,#0x1B
   04AF F0                  974 	movx	@dptr,a
   04B0 90s41r48            975 	mov	dptr,#(_r2modm + 0x0048)
   04B3 74 DE               976 	mov	a,#0xDE
   04B5 F0                  977 	movx	@dptr,a
   04B6 90s41r49            978 	mov	dptr,#(_r2modm + 0x0049)
   04B9 74 AB               979 	mov	a,#0xAB
   04BB F0                  980 	movx	@dptr,a
   04BC 90s41r4A            981 	mov	dptr,#(_r2modm + 0x004a)
   04BF 74 6D               982 	mov	a,#0x6D
   04C1 F0                  983 	movx	@dptr,a
   04C2 90s41r4B            984 	mov	dptr,#(_r2modm + 0x004b)
   04C5 74 D7               985 	mov	a,#0xD7
   04C7 F0                  986 	movx	@dptr,a
   04C8 90s41r4C            987 	mov	dptr,#(_r2modm + 0x004c)
   04CB 74 AD               988 	mov	a,#0xAD
   04CD F0                  989 	movx	@dptr,a
   04CE 90s41r4D            990 	mov	dptr,#(_r2modm + 0x004d)
   04D1 74 32               991 	mov	a,#0x32
   04D3 F0                  992 	movx	@dptr,a
   04D4 90s41r4E            993 	mov	dptr,#(_r2modm + 0x004e)
   04D7 74 07               994 	mov	a,#0x07
   04D9 F0                  995 	movx	@dptr,a
   04DA 90s41r4F            996 	mov	dptr,#(_r2modm + 0x004f)
   04DD 74 6C               997 	mov	a,#0x6C
   04DF F0                  998 	movx	@dptr,a
   04E0 90s41r50            999 	mov	dptr,#(_r2modm + 0x0050)
   04E3 74 95              1000 	mov	a,#0x95
   04E5 F0                 1001 	movx	@dptr,a
   04E6 90s41r51           1002 	mov	dptr,#(_r2modm + 0x0051)
   04E9 74 2A              1003 	mov	a,#0x2A
   04EB F0                 1004 	movx	@dptr,a
   04EC 90s41r52           1005 	mov	dptr,#(_r2modm + 0x0052)
   04EF 74 56              1006 	mov	a,#0x56
   04F1 F0                 1007 	movx	@dptr,a
   04F2 90s41r53           1008 	mov	dptr,#(_r2modm + 0x0053)
   04F5 74 FF              1009 	mov	a,#0xFF
   04F7 F0                 1010 	movx	@dptr,a
   04F8 90s41r54           1011 	mov	dptr,#(_r2modm + 0x0054)
   04FB 74 D7              1012 	mov	a,#0xD7
   04FD F0                 1013 	movx	@dptr,a
   04FE 90s41r55           1014 	mov	dptr,#(_r2modm + 0x0055)
   0501 74 E7              1015 	mov	a,#0xE7
   0503 F0                 1016 	movx	@dptr,a
   0504 90s41r56           1017 	mov	dptr,#(_r2modm + 0x0056)
   0507 E4                 1018 	clr	a
   0508 F0                 1019 	movx	@dptr,a
   0509 90s41r57           1020 	mov	dptr,#(_r2modm + 0x0057)
   050C 74 85              1021 	mov	a,#0x85
   050E F0                 1022 	movx	@dptr,a
   050F 90s41r58           1023 	mov	dptr,#(_r2modm + 0x0058)
   0512 74 BE              1024 	mov	a,#0xBE
   0514 F0                 1025 	movx	@dptr,a
   0515 90s41r59           1026 	mov	dptr,#(_r2modm + 0x0059)
   0518 74 B4              1027 	mov	a,#0xB4
   051A F0                 1028 	movx	@dptr,a
   051B 90s41r5A           1029 	mov	dptr,#(_r2modm + 0x005a)
   051E 74 3E              1030 	mov	a,#0x3E
   0520 F0                 1031 	movx	@dptr,a
   0521 90s41r5B           1032 	mov	dptr,#(_r2modm + 0x005b)
   0524 74 EF              1033 	mov	a,#0xEF
   0526 F0                 1034 	movx	@dptr,a
   0527 90s41r5C           1035 	mov	dptr,#(_r2modm + 0x005c)
   052A 74 73              1036 	mov	a,#0x73
   052C F0                 1037 	movx	@dptr,a
   052D 90s41r5D           1038 	mov	dptr,#(_r2modm + 0x005d)
   0530 74 88              1039 	mov	a,#0x88
   0532 F0                 1040 	movx	@dptr,a
   0533 90s41r5E           1041 	mov	dptr,#(_r2modm + 0x005e)
   0536 74 75              1042 	mov	a,#0x75
   0538 F0                 1043 	movx	@dptr,a
   0539 90s41r5F           1044 	mov	dptr,#(_r2modm + 0x005f)
   053C 74 D9              1045 	mov	a,#0xD9
   053E F0                 1046 	movx	@dptr,a
   053F 90s41r60           1047 	mov	dptr,#(_r2modm + 0x0060)
   0542 74 5C              1048 	mov	a,#0x5C
   0544 F0                 1049 	movx	@dptr,a
   0545 90s41r61           1050 	mov	dptr,#(_r2modm + 0x0061)
   0548 74 6A              1051 	mov	a,#0x6A
   054A F0                 1052 	movx	@dptr,a
   054B 90s41r62           1053 	mov	dptr,#(_r2modm + 0x0062)
   054E 74 B1              1054 	mov	a,#0xB1
   0550 F0                 1055 	movx	@dptr,a
   0551 90s41r63           1056 	mov	dptr,#(_r2modm + 0x0063)
   0554 74 58              1057 	mov	a,#0x58
   0556 F0                 1058 	movx	@dptr,a
   0557 90s41r64           1059 	mov	dptr,#(_r2modm + 0x0064)
   055A 74 4A              1060 	mov	a,#0x4A
   055C F0                 1061 	movx	@dptr,a
   055D 90s41r65           1062 	mov	dptr,#(_r2modm + 0x0065)
   0560 74 BC              1063 	mov	a,#0xBC
   0562 F0                 1064 	movx	@dptr,a
   0563 90s41r66           1065 	mov	dptr,#(_r2modm + 0x0066)
   0566 74 80              1066 	mov	a,#0x80
   0568 F0                 1067 	movx	@dptr,a
   0569 90s41r67           1068 	mov	dptr,#(_r2modm + 0x0067)
   056C 74 53              1069 	mov	a,#0x53
   056E F0                 1070 	movx	@dptr,a
   056F 90s41r68           1071 	mov	dptr,#(_r2modm + 0x0068)
   0572 74 63              1072 	mov	a,#0x63
   0574 F0                 1073 	movx	@dptr,a
   0575 90s41r69           1074 	mov	dptr,#(_r2modm + 0x0069)
   0578 74 48              1075 	mov	a,#0x48
   057A F0                 1076 	movx	@dptr,a
   057B 90s41r6A           1077 	mov	dptr,#(_r2modm + 0x006a)
   057E 74 FD              1078 	mov	a,#0xFD
   0580 F0                 1079 	movx	@dptr,a
   0581 90s41r6B           1080 	mov	dptr,#(_r2modm + 0x006b)
   0584 74 A0              1081 	mov	a,#0xA0
   0586 F0                 1082 	movx	@dptr,a
   0587 90s41r6C           1083 	mov	dptr,#(_r2modm + 0x006c)
   058A 74 FC              1084 	mov	a,#0xFC
   058C F0                 1085 	movx	@dptr,a
   058D 90s41r6D           1086 	mov	dptr,#(_r2modm + 0x006d)
   0590 74 AD              1087 	mov	a,#0xAD
   0592 F0                 1088 	movx	@dptr,a
   0593 90s41r6E           1089 	mov	dptr,#(_r2modm + 0x006e)
   0596 74 D9              1090 	mov	a,#0xD9
   0598 F0                 1091 	movx	@dptr,a
   0599 90s41r6F           1092 	mov	dptr,#(_r2modm + 0x006f)
   059C 74 34              1093 	mov	a,#0x34
   059E F0                 1094 	movx	@dptr,a
   059F 90s41r70           1095 	mov	dptr,#(_r2modm + 0x0070)
   05A2 74 FB              1096 	mov	a,#0xFB
   05A4 F0                 1097 	movx	@dptr,a
   05A5 90s41r71           1098 	mov	dptr,#(_r2modm + 0x0071)
   05A8 74 D3              1099 	mov	a,#0xD3
   05AA F0                 1100 	movx	@dptr,a
   05AB 90s41r72           1101 	mov	dptr,#(_r2modm + 0x0072)
   05AE 74 A9              1102 	mov	a,#0xA9
   05B0 F0                 1103 	movx	@dptr,a
   05B1 90s41r73           1104 	mov	dptr,#(_r2modm + 0x0073)
   05B4 74 E8              1105 	mov	a,#0xE8
   05B6 F0                 1106 	movx	@dptr,a
   05B7 90s41r74           1107 	mov	dptr,#(_r2modm + 0x0074)
   05BA 74 18              1108 	mov	a,#0x18
   05BC F0                 1109 	movx	@dptr,a
   05BD 90s41r75           1110 	mov	dptr,#(_r2modm + 0x0075)
   05C0 74 32              1111 	mov	a,#0x32
   05C2 F0                 1112 	movx	@dptr,a
   05C3 90s41r76           1113 	mov	dptr,#(_r2modm + 0x0076)
   05C6 74 33              1114 	mov	a,#0x33
   05C8 F0                 1115 	movx	@dptr,a
   05C9 90s41r77           1116 	mov	dptr,#(_r2modm + 0x0077)
   05CC 74 78              1117 	mov	a,#0x78
   05CE F0                 1118 	movx	@dptr,a
   05CF 90s41r78           1119 	mov	dptr,#(_r2modm + 0x0078)
   05D2 74 B0              1120 	mov	a,#0xB0
   05D4 F0                 1121 	movx	@dptr,a
   05D5 90s41r79           1122 	mov	dptr,#(_r2modm + 0x0079)
   05D8 74 08              1123 	mov	a,#0x08
   05DA F0                 1124 	movx	@dptr,a
   05DB 90s41r7A           1125 	mov	dptr,#(_r2modm + 0x007a)
   05DE 74 E4              1126 	mov	a,#0xE4
   05E0 F0                 1127 	movx	@dptr,a
   05E1 90s41r7B           1128 	mov	dptr,#(_r2modm + 0x007b)
   05E4 74 7B              1129 	mov	a,#0x7B
   05E6 F0                 1130 	movx	@dptr,a
   05E7 90s41r7C           1131 	mov	dptr,#(_r2modm + 0x007c)
   05EA 74 59              1132 	mov	a,#0x59
   05EC F0                 1133 	movx	@dptr,a
   05ED 90s41r7D           1134 	mov	dptr,#(_r2modm + 0x007d)
   05F0 74 F2              1135 	mov	a,#0xF2
   05F2 F0                 1136 	movx	@dptr,a
   05F3 90s41r7E           1137 	mov	dptr,#(_r2modm + 0x007e)
   05F6 74 45              1138 	mov	a,#0x45
   05F8 F0                 1139 	movx	@dptr,a
   05F9 90s41r7F           1140 	mov	dptr,#(_r2modm + 0x007f)
   05FC 74 8A              1141 	mov	a,#0x8A
   05FE F0                 1142 	movx	@dptr,a
                           1143 ;	main.c:36: volatile __xdata __at (0x4200) unsigned char modulus[SIZE] = {0x6B, 0xF3, 0x61, 0x86, 0x13, 0x2C, 0xF5, 0x1B, 0xCA, 0x94, 0x9F, 0x12, 0xDA, 0xDA, 0xCC, 0x26, 0xD9, 0x73, 0x2E, 0x66, 0x11, 0x63, 0xEE, 0x72, 0x43, 0x40, 0x97, 0x55, 0x4C, 0x06, 0x20, 0x23, 0x7F, 0x47, 0xD7, 0x9F, 0xD4, 0xDE, 0xFC, 0x76, 0x10, 0xD3, 0x19, 0x6C, 0x90, 0x44, 0x58, 0xA9, 0xD7, 0x4A, 0x66, 0x28, 0x96, 0x24, 0x94, 0xF6, 0x08, 0xF4, 0x7B, 0x1A, 0x4D, 0x07, 0x86, 0x3B, 0x2A, 0x84, 0xF9, 0xBA, 0x4A, 0xDD, 0x3D, 0xD7, 0x07, 0x85, 0xC6, 0x67, 0x18, 0x5B, 0xAB, 0xBA, 0x5D, 0xF2, 0x35, 0x4E, 0xC4, 0x61, 0xA6, 0x06, 0x04, 0x55, 0xCF, 0x68, 0x92, 0x64, 0xDB, 0x90, 0x8B, 0xCF, 0x58, 0x50, 0x00, 0x7B, 0xD3, 0xB6, 0xE4, 0xCF, 0x60, 0x4A, 0x69, 0xC2, 0x70, 0x3D, 0x0F, 0xC4, 0x03, 0x2B, 0x4D, 0x87, 0xFA, 0x2C, 0x34, 0x7F, 0x77, 0x7A, 0x6A, 0x85, 0x48, 0x9B};
   05FF 90s42r00           1144 	mov	dptr,#_modulus
   0602 74 6B              1145 	mov	a,#0x6B
   0604 F0                 1146 	movx	@dptr,a
   0605 90s42r01           1147 	mov	dptr,#(_modulus + 0x0001)
   0608 74 F3              1148 	mov	a,#0xF3
   060A F0                 1149 	movx	@dptr,a
   060B 90s42r02           1150 	mov	dptr,#(_modulus + 0x0002)
   060E 74 61              1151 	mov	a,#0x61
   0610 F0                 1152 	movx	@dptr,a
   0611 90s42r03           1153 	mov	dptr,#(_modulus + 0x0003)
   0614 74 86              1154 	mov	a,#0x86
   0616 F0                 1155 	movx	@dptr,a
   0617 90s42r04           1156 	mov	dptr,#(_modulus + 0x0004)
   061A 74 13              1157 	mov	a,#0x13
   061C F0                 1158 	movx	@dptr,a
   061D 90s42r05           1159 	mov	dptr,#(_modulus + 0x0005)
   0620 74 2C              1160 	mov	a,#0x2C
   0622 F0                 1161 	movx	@dptr,a
   0623 90s42r06           1162 	mov	dptr,#(_modulus + 0x0006)
   0626 74 F5              1163 	mov	a,#0xF5
   0628 F0                 1164 	movx	@dptr,a
   0629 90s42r07           1165 	mov	dptr,#(_modulus + 0x0007)
   062C 74 1B              1166 	mov	a,#0x1B
   062E F0                 1167 	movx	@dptr,a
   062F 90s42r08           1168 	mov	dptr,#(_modulus + 0x0008)
   0632 74 CA              1169 	mov	a,#0xCA
   0634 F0                 1170 	movx	@dptr,a
   0635 90s42r09           1171 	mov	dptr,#(_modulus + 0x0009)
   0638 74 94              1172 	mov	a,#0x94
   063A F0                 1173 	movx	@dptr,a
   063B 90s42r0A           1174 	mov	dptr,#(_modulus + 0x000a)
   063E 74 9F              1175 	mov	a,#0x9F
   0640 F0                 1176 	movx	@dptr,a
   0641 90s42r0B           1177 	mov	dptr,#(_modulus + 0x000b)
   0644 74 12              1178 	mov	a,#0x12
   0646 F0                 1179 	movx	@dptr,a
   0647 90s42r0C           1180 	mov	dptr,#(_modulus + 0x000c)
   064A 74 DA              1181 	mov	a,#0xDA
   064C F0                 1182 	movx	@dptr,a
   064D 90s42r0D           1183 	mov	dptr,#(_modulus + 0x000d)
   0650 74 DA              1184 	mov	a,#0xDA
   0652 F0                 1185 	movx	@dptr,a
   0653 90s42r0E           1186 	mov	dptr,#(_modulus + 0x000e)
   0656 74 CC              1187 	mov	a,#0xCC
   0658 F0                 1188 	movx	@dptr,a
   0659 90s42r0F           1189 	mov	dptr,#(_modulus + 0x000f)
   065C 74 26              1190 	mov	a,#0x26
   065E F0                 1191 	movx	@dptr,a
   065F 90s42r10           1192 	mov	dptr,#(_modulus + 0x0010)
   0662 74 D9              1193 	mov	a,#0xD9
   0664 F0                 1194 	movx	@dptr,a
   0665 90s42r11           1195 	mov	dptr,#(_modulus + 0x0011)
   0668 74 73              1196 	mov	a,#0x73
   066A F0                 1197 	movx	@dptr,a
   066B 90s42r12           1198 	mov	dptr,#(_modulus + 0x0012)
   066E 74 2E              1199 	mov	a,#0x2E
   0670 F0                 1200 	movx	@dptr,a
   0671 90s42r13           1201 	mov	dptr,#(_modulus + 0x0013)
   0674 74 66              1202 	mov	a,#0x66
   0676 F0                 1203 	movx	@dptr,a
   0677 90s42r14           1204 	mov	dptr,#(_modulus + 0x0014)
   067A 74 11              1205 	mov	a,#0x11
   067C F0                 1206 	movx	@dptr,a
   067D 90s42r15           1207 	mov	dptr,#(_modulus + 0x0015)
   0680 74 63              1208 	mov	a,#0x63
   0682 F0                 1209 	movx	@dptr,a
   0683 90s42r16           1210 	mov	dptr,#(_modulus + 0x0016)
   0686 74 EE              1211 	mov	a,#0xEE
   0688 F0                 1212 	movx	@dptr,a
   0689 90s42r17           1213 	mov	dptr,#(_modulus + 0x0017)
   068C 74 72              1214 	mov	a,#0x72
   068E F0                 1215 	movx	@dptr,a
   068F 90s42r18           1216 	mov	dptr,#(_modulus + 0x0018)
   0692 74 43              1217 	mov	a,#0x43
   0694 F0                 1218 	movx	@dptr,a
   0695 90s42r19           1219 	mov	dptr,#(_modulus + 0x0019)
   0698 74 40              1220 	mov	a,#0x40
   069A F0                 1221 	movx	@dptr,a
   069B 90s42r1A           1222 	mov	dptr,#(_modulus + 0x001a)
   069E 74 97              1223 	mov	a,#0x97
   06A0 F0                 1224 	movx	@dptr,a
   06A1 90s42r1B           1225 	mov	dptr,#(_modulus + 0x001b)
   06A4 74 55              1226 	mov	a,#0x55
   06A6 F0                 1227 	movx	@dptr,a
   06A7 90s42r1C           1228 	mov	dptr,#(_modulus + 0x001c)
   06AA 74 4C              1229 	mov	a,#0x4C
   06AC F0                 1230 	movx	@dptr,a
   06AD 90s42r1D           1231 	mov	dptr,#(_modulus + 0x001d)
   06B0 74 06              1232 	mov	a,#0x06
   06B2 F0                 1233 	movx	@dptr,a
   06B3 90s42r1E           1234 	mov	dptr,#(_modulus + 0x001e)
   06B6 74 20              1235 	mov	a,#0x20
   06B8 F0                 1236 	movx	@dptr,a
   06B9 90s42r1F           1237 	mov	dptr,#(_modulus + 0x001f)
   06BC 74 23              1238 	mov	a,#0x23
   06BE F0                 1239 	movx	@dptr,a
   06BF 90s42r20           1240 	mov	dptr,#(_modulus + 0x0020)
   06C2 74 7F              1241 	mov	a,#0x7F
   06C4 F0                 1242 	movx	@dptr,a
   06C5 90s42r21           1243 	mov	dptr,#(_modulus + 0x0021)
   06C8 74 47              1244 	mov	a,#0x47
   06CA F0                 1245 	movx	@dptr,a
   06CB 90s42r22           1246 	mov	dptr,#(_modulus + 0x0022)
   06CE 74 D7              1247 	mov	a,#0xD7
   06D0 F0                 1248 	movx	@dptr,a
   06D1 90s42r23           1249 	mov	dptr,#(_modulus + 0x0023)
   06D4 74 9F              1250 	mov	a,#0x9F
   06D6 F0                 1251 	movx	@dptr,a
   06D7 90s42r24           1252 	mov	dptr,#(_modulus + 0x0024)
   06DA 74 D4              1253 	mov	a,#0xD4
   06DC F0                 1254 	movx	@dptr,a
   06DD 90s42r25           1255 	mov	dptr,#(_modulus + 0x0025)
   06E0 74 DE              1256 	mov	a,#0xDE
   06E2 F0                 1257 	movx	@dptr,a
   06E3 90s42r26           1258 	mov	dptr,#(_modulus + 0x0026)
   06E6 74 FC              1259 	mov	a,#0xFC
   06E8 F0                 1260 	movx	@dptr,a
   06E9 90s42r27           1261 	mov	dptr,#(_modulus + 0x0027)
   06EC 74 76              1262 	mov	a,#0x76
   06EE F0                 1263 	movx	@dptr,a
   06EF 90s42r28           1264 	mov	dptr,#(_modulus + 0x0028)
   06F2 74 10              1265 	mov	a,#0x10
   06F4 F0                 1266 	movx	@dptr,a
   06F5 90s42r29           1267 	mov	dptr,#(_modulus + 0x0029)
   06F8 74 D3              1268 	mov	a,#0xD3
   06FA F0                 1269 	movx	@dptr,a
   06FB 90s42r2A           1270 	mov	dptr,#(_modulus + 0x002a)
   06FE 74 19              1271 	mov	a,#0x19
   0700 F0                 1272 	movx	@dptr,a
   0701 90s42r2B           1273 	mov	dptr,#(_modulus + 0x002b)
   0704 74 6C              1274 	mov	a,#0x6C
   0706 F0                 1275 	movx	@dptr,a
   0707 90s42r2C           1276 	mov	dptr,#(_modulus + 0x002c)
   070A 74 90              1277 	mov	a,#0x90
   070C F0                 1278 	movx	@dptr,a
   070D 90s42r2D           1279 	mov	dptr,#(_modulus + 0x002d)
   0710 74 44              1280 	mov	a,#0x44
   0712 F0                 1281 	movx	@dptr,a
   0713 90s42r2E           1282 	mov	dptr,#(_modulus + 0x002e)
   0716 74 58              1283 	mov	a,#0x58
   0718 F0                 1284 	movx	@dptr,a
   0719 90s42r2F           1285 	mov	dptr,#(_modulus + 0x002f)
   071C 74 A9              1286 	mov	a,#0xA9
   071E F0                 1287 	movx	@dptr,a
   071F 90s42r30           1288 	mov	dptr,#(_modulus + 0x0030)
   0722 74 D7              1289 	mov	a,#0xD7
   0724 F0                 1290 	movx	@dptr,a
   0725 90s42r31           1291 	mov	dptr,#(_modulus + 0x0031)
   0728 74 4A              1292 	mov	a,#0x4A
   072A F0                 1293 	movx	@dptr,a
   072B 90s42r32           1294 	mov	dptr,#(_modulus + 0x0032)
   072E 74 66              1295 	mov	a,#0x66
   0730 F0                 1296 	movx	@dptr,a
   0731 90s42r33           1297 	mov	dptr,#(_modulus + 0x0033)
   0734 74 28              1298 	mov	a,#0x28
   0736 F0                 1299 	movx	@dptr,a
   0737 90s42r34           1300 	mov	dptr,#(_modulus + 0x0034)
   073A 74 96              1301 	mov	a,#0x96
   073C F0                 1302 	movx	@dptr,a
   073D 90s42r35           1303 	mov	dptr,#(_modulus + 0x0035)
   0740 74 24              1304 	mov	a,#0x24
   0742 F0                 1305 	movx	@dptr,a
   0743 90s42r36           1306 	mov	dptr,#(_modulus + 0x0036)
   0746 74 94              1307 	mov	a,#0x94
   0748 F0                 1308 	movx	@dptr,a
   0749 90s42r37           1309 	mov	dptr,#(_modulus + 0x0037)
   074C 74 F6              1310 	mov	a,#0xF6
   074E F0                 1311 	movx	@dptr,a
   074F 90s42r38           1312 	mov	dptr,#(_modulus + 0x0038)
   0752 74 08              1313 	mov	a,#0x08
   0754 F0                 1314 	movx	@dptr,a
   0755 90s42r39           1315 	mov	dptr,#(_modulus + 0x0039)
   0758 74 F4              1316 	mov	a,#0xF4
   075A F0                 1317 	movx	@dptr,a
   075B 90s42r3A           1318 	mov	dptr,#(_modulus + 0x003a)
   075E 74 7B              1319 	mov	a,#0x7B
   0760 F0                 1320 	movx	@dptr,a
   0761 90s42r3B           1321 	mov	dptr,#(_modulus + 0x003b)
   0764 74 1A              1322 	mov	a,#0x1A
   0766 F0                 1323 	movx	@dptr,a
   0767 90s42r3C           1324 	mov	dptr,#(_modulus + 0x003c)
   076A 74 4D              1325 	mov	a,#0x4D
   076C F0                 1326 	movx	@dptr,a
   076D 90s42r3D           1327 	mov	dptr,#(_modulus + 0x003d)
   0770 74 07              1328 	mov	a,#0x07
   0772 F0                 1329 	movx	@dptr,a
   0773 90s42r3E           1330 	mov	dptr,#(_modulus + 0x003e)
   0776 74 86              1331 	mov	a,#0x86
   0778 F0                 1332 	movx	@dptr,a
   0779 90s42r3F           1333 	mov	dptr,#(_modulus + 0x003f)
   077C 74 3B              1334 	mov	a,#0x3B
   077E F0                 1335 	movx	@dptr,a
   077F 90s42r40           1336 	mov	dptr,#(_modulus + 0x0040)
   0782 74 2A              1337 	mov	a,#0x2A
   0784 F0                 1338 	movx	@dptr,a
   0785 90s42r41           1339 	mov	dptr,#(_modulus + 0x0041)
   0788 74 84              1340 	mov	a,#0x84
   078A F0                 1341 	movx	@dptr,a
   078B 90s42r42           1342 	mov	dptr,#(_modulus + 0x0042)
   078E 74 F9              1343 	mov	a,#0xF9
   0790 F0                 1344 	movx	@dptr,a
   0791 90s42r43           1345 	mov	dptr,#(_modulus + 0x0043)
   0794 74 BA              1346 	mov	a,#0xBA
   0796 F0                 1347 	movx	@dptr,a
   0797 90s42r44           1348 	mov	dptr,#(_modulus + 0x0044)
   079A 74 4A              1349 	mov	a,#0x4A
   079C F0                 1350 	movx	@dptr,a
   079D 90s42r45           1351 	mov	dptr,#(_modulus + 0x0045)
   07A0 74 DD              1352 	mov	a,#0xDD
   07A2 F0                 1353 	movx	@dptr,a
   07A3 90s42r46           1354 	mov	dptr,#(_modulus + 0x0046)
   07A6 74 3D              1355 	mov	a,#0x3D
   07A8 F0                 1356 	movx	@dptr,a
   07A9 90s42r47           1357 	mov	dptr,#(_modulus + 0x0047)
   07AC 74 D7              1358 	mov	a,#0xD7
   07AE F0                 1359 	movx	@dptr,a
   07AF 90s42r48           1360 	mov	dptr,#(_modulus + 0x0048)
   07B2 74 07              1361 	mov	a,#0x07
   07B4 F0                 1362 	movx	@dptr,a
   07B5 90s42r49           1363 	mov	dptr,#(_modulus + 0x0049)
   07B8 74 85              1364 	mov	a,#0x85
   07BA F0                 1365 	movx	@dptr,a
   07BB 90s42r4A           1366 	mov	dptr,#(_modulus + 0x004a)
   07BE 74 C6              1367 	mov	a,#0xC6
   07C0 F0                 1368 	movx	@dptr,a
   07C1 90s42r4B           1369 	mov	dptr,#(_modulus + 0x004b)
   07C4 74 67              1370 	mov	a,#0x67
   07C6 F0                 1371 	movx	@dptr,a
   07C7 90s42r4C           1372 	mov	dptr,#(_modulus + 0x004c)
   07CA 74 18              1373 	mov	a,#0x18
   07CC F0                 1374 	movx	@dptr,a
   07CD 90s42r4D           1375 	mov	dptr,#(_modulus + 0x004d)
   07D0 74 5B              1376 	mov	a,#0x5B
   07D2 F0                 1377 	movx	@dptr,a
   07D3 90s42r4E           1378 	mov	dptr,#(_modulus + 0x004e)
   07D6 74 AB              1379 	mov	a,#0xAB
   07D8 F0                 1380 	movx	@dptr,a
   07D9 90s42r4F           1381 	mov	dptr,#(_modulus + 0x004f)
   07DC 74 BA              1382 	mov	a,#0xBA
   07DE F0                 1383 	movx	@dptr,a
   07DF 90s42r50           1384 	mov	dptr,#(_modulus + 0x0050)
   07E2 74 5D              1385 	mov	a,#0x5D
   07E4 F0                 1386 	movx	@dptr,a
   07E5 90s42r51           1387 	mov	dptr,#(_modulus + 0x0051)
   07E8 74 F2              1388 	mov	a,#0xF2
   07EA F0                 1389 	movx	@dptr,a
   07EB 90s42r52           1390 	mov	dptr,#(_modulus + 0x0052)
   07EE 74 35              1391 	mov	a,#0x35
   07F0 F0                 1392 	movx	@dptr,a
   07F1 90s42r53           1393 	mov	dptr,#(_modulus + 0x0053)
   07F4 74 4E              1394 	mov	a,#0x4E
   07F6 F0                 1395 	movx	@dptr,a
   07F7 90s42r54           1396 	mov	dptr,#(_modulus + 0x0054)
   07FA 74 C4              1397 	mov	a,#0xC4
   07FC F0                 1398 	movx	@dptr,a
   07FD 90s42r55           1399 	mov	dptr,#(_modulus + 0x0055)
   0800 74 61              1400 	mov	a,#0x61
   0802 F0                 1401 	movx	@dptr,a
   0803 90s42r56           1402 	mov	dptr,#(_modulus + 0x0056)
   0806 74 A6              1403 	mov	a,#0xA6
   0808 F0                 1404 	movx	@dptr,a
   0809 90s42r57           1405 	mov	dptr,#(_modulus + 0x0057)
   080C 74 06              1406 	mov	a,#0x06
   080E F0                 1407 	movx	@dptr,a
   080F 90s42r58           1408 	mov	dptr,#(_modulus + 0x0058)
   0812 74 04              1409 	mov	a,#0x04
   0814 F0                 1410 	movx	@dptr,a
   0815 90s42r59           1411 	mov	dptr,#(_modulus + 0x0059)
   0818 74 55              1412 	mov	a,#0x55
   081A F0                 1413 	movx	@dptr,a
   081B 90s42r5A           1414 	mov	dptr,#(_modulus + 0x005a)
   081E 74 CF              1415 	mov	a,#0xCF
   0820 F0                 1416 	movx	@dptr,a
   0821 90s42r5B           1417 	mov	dptr,#(_modulus + 0x005b)
   0824 74 68              1418 	mov	a,#0x68
   0826 F0                 1419 	movx	@dptr,a
   0827 90s42r5C           1420 	mov	dptr,#(_modulus + 0x005c)
   082A 74 92              1421 	mov	a,#0x92
   082C F0                 1422 	movx	@dptr,a
   082D 90s42r5D           1423 	mov	dptr,#(_modulus + 0x005d)
   0830 74 64              1424 	mov	a,#0x64
   0832 F0                 1425 	movx	@dptr,a
   0833 90s42r5E           1426 	mov	dptr,#(_modulus + 0x005e)
   0836 74 DB              1427 	mov	a,#0xDB
   0838 F0                 1428 	movx	@dptr,a
   0839 90s42r5F           1429 	mov	dptr,#(_modulus + 0x005f)
   083C 74 90              1430 	mov	a,#0x90
   083E F0                 1431 	movx	@dptr,a
   083F 90s42r60           1432 	mov	dptr,#(_modulus + 0x0060)
   0842 74 8B              1433 	mov	a,#0x8B
   0844 F0                 1434 	movx	@dptr,a
   0845 90s42r61           1435 	mov	dptr,#(_modulus + 0x0061)
   0848 74 CF              1436 	mov	a,#0xCF
   084A F0                 1437 	movx	@dptr,a
   084B 90s42r62           1438 	mov	dptr,#(_modulus + 0x0062)
   084E 74 58              1439 	mov	a,#0x58
   0850 F0                 1440 	movx	@dptr,a
   0851 90s42r63           1441 	mov	dptr,#(_modulus + 0x0063)
   0854 74 50              1442 	mov	a,#0x50
   0856 F0                 1443 	movx	@dptr,a
   0857 90s42r64           1444 	mov	dptr,#(_modulus + 0x0064)
   085A E4                 1445 	clr	a
   085B F0                 1446 	movx	@dptr,a
   085C 90s42r65           1447 	mov	dptr,#(_modulus + 0x0065)
   085F 74 7B              1448 	mov	a,#0x7B
   0861 F0                 1449 	movx	@dptr,a
   0862 90s42r66           1450 	mov	dptr,#(_modulus + 0x0066)
   0865 74 D3              1451 	mov	a,#0xD3
   0867 F0                 1452 	movx	@dptr,a
   0868 90s42r67           1453 	mov	dptr,#(_modulus + 0x0067)
   086B 74 B6              1454 	mov	a,#0xB6
   086D F0                 1455 	movx	@dptr,a
   086E 90s42r68           1456 	mov	dptr,#(_modulus + 0x0068)
   0871 74 E4              1457 	mov	a,#0xE4
   0873 F0                 1458 	movx	@dptr,a
   0874 90s42r69           1459 	mov	dptr,#(_modulus + 0x0069)
   0877 74 CF              1460 	mov	a,#0xCF
   0879 F0                 1461 	movx	@dptr,a
   087A 90s42r6A           1462 	mov	dptr,#(_modulus + 0x006a)
   087D 74 60              1463 	mov	a,#0x60
   087F F0                 1464 	movx	@dptr,a
   0880 90s42r6B           1465 	mov	dptr,#(_modulus + 0x006b)
   0883 74 4A              1466 	mov	a,#0x4A
   0885 F0                 1467 	movx	@dptr,a
   0886 90s42r6C           1468 	mov	dptr,#(_modulus + 0x006c)
   0889 74 69              1469 	mov	a,#0x69
   088B F0                 1470 	movx	@dptr,a
   088C 90s42r6D           1471 	mov	dptr,#(_modulus + 0x006d)
   088F 74 C2              1472 	mov	a,#0xC2
   0891 F0                 1473 	movx	@dptr,a
   0892 90s42r6E           1474 	mov	dptr,#(_modulus + 0x006e)
   0895 74 70              1475 	mov	a,#0x70
   0897 F0                 1476 	movx	@dptr,a
   0898 90s42r6F           1477 	mov	dptr,#(_modulus + 0x006f)
   089B 74 3D              1478 	mov	a,#0x3D
   089D F0                 1479 	movx	@dptr,a
   089E 90s42r70           1480 	mov	dptr,#(_modulus + 0x0070)
   08A1 74 0F              1481 	mov	a,#0x0F
   08A3 F0                 1482 	movx	@dptr,a
   08A4 90s42r71           1483 	mov	dptr,#(_modulus + 0x0071)
   08A7 74 C4              1484 	mov	a,#0xC4
   08A9 F0                 1485 	movx	@dptr,a
   08AA 90s42r72           1486 	mov	dptr,#(_modulus + 0x0072)
   08AD 74 03              1487 	mov	a,#0x03
   08AF F0                 1488 	movx	@dptr,a
   08B0 90s42r73           1489 	mov	dptr,#(_modulus + 0x0073)
   08B3 74 2B              1490 	mov	a,#0x2B
   08B5 F0                 1491 	movx	@dptr,a
   08B6 90s42r74           1492 	mov	dptr,#(_modulus + 0x0074)
   08B9 74 4D              1493 	mov	a,#0x4D
   08BB F0                 1494 	movx	@dptr,a
   08BC 90s42r75           1495 	mov	dptr,#(_modulus + 0x0075)
   08BF 74 87              1496 	mov	a,#0x87
   08C1 F0                 1497 	movx	@dptr,a
   08C2 90s42r76           1498 	mov	dptr,#(_modulus + 0x0076)
   08C5 74 FA              1499 	mov	a,#0xFA
   08C7 F0                 1500 	movx	@dptr,a
   08C8 90s42r77           1501 	mov	dptr,#(_modulus + 0x0077)
   08CB 74 2C              1502 	mov	a,#0x2C
   08CD F0                 1503 	movx	@dptr,a
   08CE 90s42r78           1504 	mov	dptr,#(_modulus + 0x0078)
   08D1 74 34              1505 	mov	a,#0x34
   08D3 F0                 1506 	movx	@dptr,a
   08D4 90s42r79           1507 	mov	dptr,#(_modulus + 0x0079)
   08D7 74 7F              1508 	mov	a,#0x7F
   08D9 F0                 1509 	movx	@dptr,a
   08DA 90s42r7A           1510 	mov	dptr,#(_modulus + 0x007a)
   08DD 74 77              1511 	mov	a,#0x77
   08DF F0                 1512 	movx	@dptr,a
   08E0 90s42r7B           1513 	mov	dptr,#(_modulus + 0x007b)
   08E3 74 7A              1514 	mov	a,#0x7A
   08E5 F0                 1515 	movx	@dptr,a
   08E6 90s42r7C           1516 	mov	dptr,#(_modulus + 0x007c)
   08E9 74 6A              1517 	mov	a,#0x6A
   08EB F0                 1518 	movx	@dptr,a
   08EC 90s42r7D           1519 	mov	dptr,#(_modulus + 0x007d)
   08EF 74 85              1520 	mov	a,#0x85
   08F1 F0                 1521 	movx	@dptr,a
   08F2 90s42r7E           1522 	mov	dptr,#(_modulus + 0x007e)
   08F5 74 48              1523 	mov	a,#0x48
   08F7 F0                 1524 	movx	@dptr,a
   08F8 90s42r7F           1525 	mov	dptr,#(_modulus + 0x007f)
   08FB 74 9B              1526 	mov	a,#0x9B
   08FD F0                 1527 	movx	@dptr,a
                           1528 ;	main.c:37: volatile __xdata __at (0x4300) unsigned char message[SIZE] = {0xE0, 0xFA, 0x7D, 0xF4, 0x9E, 0xFF, 0x31, 0x8A, 0x4A, 0x17, 0x7A, 0xE9, 0x37, 0x86, 0x15, 0x27, 0x2B, 0x29, 0x06, 0x53, 0xE1, 0x08, 0xD2, 0x11, 0xC6, 0xEF, 0x43, 0xB6, 0xC8, 0x93, 0x4F, 0x27, 0xD1, 0x62, 0xCF, 0x12, 0xC3, 0xE6, 0xA4, 0x32, 0x85, 0xA6, 0x4F, 0x26, 0x12, 0x66, 0x87, 0x5A, 0x8F, 0xAE, 0x57, 0xE2, 0x7C, 0x8E, 0xFB, 0xA6, 0xE3, 0x6A, 0x84, 0xF7, 0x92, 0x5D, 0x66, 0x09, 0x17, 0xFC, 0x4A, 0x98, 0x1E, 0xDA, 0xB7, 0xA1, 0x94, 0xE8, 0x59, 0xAE, 0x3A, 0xA3, 0x80, 0x13, 0x13, 0x81, 0x0A, 0x1C, 0x6F, 0x0C, 0x16, 0x67, 0x48, 0x2A, 0x1F, 0x40, 0x8F, 0x97, 0xBB, 0x55, 0x52, 0x35, 0x88, 0x65, 0xD8, 0x01, 0x8F, 0x77, 0x86, 0xA5, 0x55, 0x66, 0x53, 0x02, 0xF3, 0x41, 0xF4, 0x26, 0xCC, 0xD7, 0x0A, 0xEA, 0xE4, 0x3C, 0xA1, 0x65, 0xBA, 0x8D, 0x71, 0x08, 0xEE, 0x98};
   08FE 90s43r00           1529 	mov	dptr,#_message
   0901 74 E0              1530 	mov	a,#0xE0
   0903 F0                 1531 	movx	@dptr,a
   0904 90s43r01           1532 	mov	dptr,#(_message + 0x0001)
   0907 74 FA              1533 	mov	a,#0xFA
   0909 F0                 1534 	movx	@dptr,a
   090A 90s43r02           1535 	mov	dptr,#(_message + 0x0002)
   090D 74 7D              1536 	mov	a,#0x7D
   090F F0                 1537 	movx	@dptr,a
   0910 90s43r03           1538 	mov	dptr,#(_message + 0x0003)
   0913 74 F4              1539 	mov	a,#0xF4
   0915 F0                 1540 	movx	@dptr,a
   0916 90s43r04           1541 	mov	dptr,#(_message + 0x0004)
   0919 74 9E              1542 	mov	a,#0x9E
   091B F0                 1543 	movx	@dptr,a
   091C 90s43r05           1544 	mov	dptr,#(_message + 0x0005)
   091F 74 FF              1545 	mov	a,#0xFF
   0921 F0                 1546 	movx	@dptr,a
   0922 90s43r06           1547 	mov	dptr,#(_message + 0x0006)
   0925 74 31              1548 	mov	a,#0x31
   0927 F0                 1549 	movx	@dptr,a
   0928 90s43r07           1550 	mov	dptr,#(_message + 0x0007)
   092B 74 8A              1551 	mov	a,#0x8A
   092D F0                 1552 	movx	@dptr,a
   092E 90s43r08           1553 	mov	dptr,#(_message + 0x0008)
   0931 74 4A              1554 	mov	a,#0x4A
   0933 F0                 1555 	movx	@dptr,a
   0934 90s43r09           1556 	mov	dptr,#(_message + 0x0009)
   0937 74 17              1557 	mov	a,#0x17
   0939 F0                 1558 	movx	@dptr,a
   093A 90s43r0A           1559 	mov	dptr,#(_message + 0x000a)
   093D 74 7A              1560 	mov	a,#0x7A
   093F F0                 1561 	movx	@dptr,a
   0940 90s43r0B           1562 	mov	dptr,#(_message + 0x000b)
   0943 74 E9              1563 	mov	a,#0xE9
   0945 F0                 1564 	movx	@dptr,a
   0946 90s43r0C           1565 	mov	dptr,#(_message + 0x000c)
   0949 74 37              1566 	mov	a,#0x37
   094B F0                 1567 	movx	@dptr,a
   094C 90s43r0D           1568 	mov	dptr,#(_message + 0x000d)
   094F 74 86              1569 	mov	a,#0x86
   0951 F0                 1570 	movx	@dptr,a
   0952 90s43r0E           1571 	mov	dptr,#(_message + 0x000e)
   0955 74 15              1572 	mov	a,#0x15
   0957 F0                 1573 	movx	@dptr,a
   0958 90s43r0F           1574 	mov	dptr,#(_message + 0x000f)
   095B 74 27              1575 	mov	a,#0x27
   095D F0                 1576 	movx	@dptr,a
   095E 90s43r10           1577 	mov	dptr,#(_message + 0x0010)
   0961 74 2B              1578 	mov	a,#0x2B
   0963 F0                 1579 	movx	@dptr,a
   0964 90s43r11           1580 	mov	dptr,#(_message + 0x0011)
   0967 74 29              1581 	mov	a,#0x29
   0969 F0                 1582 	movx	@dptr,a
   096A 90s43r12           1583 	mov	dptr,#(_message + 0x0012)
   096D 74 06              1584 	mov	a,#0x06
   096F F0                 1585 	movx	@dptr,a
   0970 90s43r13           1586 	mov	dptr,#(_message + 0x0013)
   0973 74 53              1587 	mov	a,#0x53
   0975 F0                 1588 	movx	@dptr,a
   0976 90s43r14           1589 	mov	dptr,#(_message + 0x0014)
   0979 74 E1              1590 	mov	a,#0xE1
   097B F0                 1591 	movx	@dptr,a
   097C 90s43r15           1592 	mov	dptr,#(_message + 0x0015)
   097F 74 08              1593 	mov	a,#0x08
   0981 F0                 1594 	movx	@dptr,a
   0982 90s43r16           1595 	mov	dptr,#(_message + 0x0016)
   0985 74 D2              1596 	mov	a,#0xD2
   0987 F0                 1597 	movx	@dptr,a
   0988 90s43r17           1598 	mov	dptr,#(_message + 0x0017)
   098B 74 11              1599 	mov	a,#0x11
   098D F0                 1600 	movx	@dptr,a
   098E 90s43r18           1601 	mov	dptr,#(_message + 0x0018)
   0991 74 C6              1602 	mov	a,#0xC6
   0993 F0                 1603 	movx	@dptr,a
   0994 90s43r19           1604 	mov	dptr,#(_message + 0x0019)
   0997 74 EF              1605 	mov	a,#0xEF
   0999 F0                 1606 	movx	@dptr,a
   099A 90s43r1A           1607 	mov	dptr,#(_message + 0x001a)
   099D 74 43              1608 	mov	a,#0x43
   099F F0                 1609 	movx	@dptr,a
   09A0 90s43r1B           1610 	mov	dptr,#(_message + 0x001b)
   09A3 74 B6              1611 	mov	a,#0xB6
   09A5 F0                 1612 	movx	@dptr,a
   09A6 90s43r1C           1613 	mov	dptr,#(_message + 0x001c)
   09A9 74 C8              1614 	mov	a,#0xC8
   09AB F0                 1615 	movx	@dptr,a
   09AC 90s43r1D           1616 	mov	dptr,#(_message + 0x001d)
   09AF 74 93              1617 	mov	a,#0x93
   09B1 F0                 1618 	movx	@dptr,a
   09B2 90s43r1E           1619 	mov	dptr,#(_message + 0x001e)
   09B5 74 4F              1620 	mov	a,#0x4F
   09B7 F0                 1621 	movx	@dptr,a
   09B8 90s43r1F           1622 	mov	dptr,#(_message + 0x001f)
   09BB 74 27              1623 	mov	a,#0x27
   09BD F0                 1624 	movx	@dptr,a
   09BE 90s43r20           1625 	mov	dptr,#(_message + 0x0020)
   09C1 74 D1              1626 	mov	a,#0xD1
   09C3 F0                 1627 	movx	@dptr,a
   09C4 90s43r21           1628 	mov	dptr,#(_message + 0x0021)
   09C7 74 62              1629 	mov	a,#0x62
   09C9 F0                 1630 	movx	@dptr,a
   09CA 90s43r22           1631 	mov	dptr,#(_message + 0x0022)
   09CD 74 CF              1632 	mov	a,#0xCF
   09CF F0                 1633 	movx	@dptr,a
   09D0 90s43r23           1634 	mov	dptr,#(_message + 0x0023)
   09D3 74 12              1635 	mov	a,#0x12
   09D5 F0                 1636 	movx	@dptr,a
   09D6 90s43r24           1637 	mov	dptr,#(_message + 0x0024)
   09D9 74 C3              1638 	mov	a,#0xC3
   09DB F0                 1639 	movx	@dptr,a
   09DC 90s43r25           1640 	mov	dptr,#(_message + 0x0025)
   09DF 74 E6              1641 	mov	a,#0xE6
   09E1 F0                 1642 	movx	@dptr,a
   09E2 90s43r26           1643 	mov	dptr,#(_message + 0x0026)
   09E5 74 A4              1644 	mov	a,#0xA4
   09E7 F0                 1645 	movx	@dptr,a
   09E8 90s43r27           1646 	mov	dptr,#(_message + 0x0027)
   09EB 74 32              1647 	mov	a,#0x32
   09ED F0                 1648 	movx	@dptr,a
   09EE 90s43r28           1649 	mov	dptr,#(_message + 0x0028)
   09F1 74 85              1650 	mov	a,#0x85
   09F3 F0                 1651 	movx	@dptr,a
   09F4 90s43r29           1652 	mov	dptr,#(_message + 0x0029)
   09F7 74 A6              1653 	mov	a,#0xA6
   09F9 F0                 1654 	movx	@dptr,a
   09FA 90s43r2A           1655 	mov	dptr,#(_message + 0x002a)
   09FD 74 4F              1656 	mov	a,#0x4F
   09FF F0                 1657 	movx	@dptr,a
   0A00 90s43r2B           1658 	mov	dptr,#(_message + 0x002b)
   0A03 74 26              1659 	mov	a,#0x26
   0A05 F0                 1660 	movx	@dptr,a
   0A06 90s43r2C           1661 	mov	dptr,#(_message + 0x002c)
   0A09 74 12              1662 	mov	a,#0x12
   0A0B F0                 1663 	movx	@dptr,a
   0A0C 90s43r2D           1664 	mov	dptr,#(_message + 0x002d)
   0A0F 74 66              1665 	mov	a,#0x66
   0A11 F0                 1666 	movx	@dptr,a
   0A12 90s43r2E           1667 	mov	dptr,#(_message + 0x002e)
   0A15 74 87              1668 	mov	a,#0x87
   0A17 F0                 1669 	movx	@dptr,a
   0A18 90s43r2F           1670 	mov	dptr,#(_message + 0x002f)
   0A1B 74 5A              1671 	mov	a,#0x5A
   0A1D F0                 1672 	movx	@dptr,a
   0A1E 90s43r30           1673 	mov	dptr,#(_message + 0x0030)
   0A21 74 8F              1674 	mov	a,#0x8F
   0A23 F0                 1675 	movx	@dptr,a
   0A24 90s43r31           1676 	mov	dptr,#(_message + 0x0031)
   0A27 74 AE              1677 	mov	a,#0xAE
   0A29 F0                 1678 	movx	@dptr,a
   0A2A 90s43r32           1679 	mov	dptr,#(_message + 0x0032)
   0A2D 74 57              1680 	mov	a,#0x57
   0A2F F0                 1681 	movx	@dptr,a
   0A30 90s43r33           1682 	mov	dptr,#(_message + 0x0033)
   0A33 74 E2              1683 	mov	a,#0xE2
   0A35 F0                 1684 	movx	@dptr,a
   0A36 90s43r34           1685 	mov	dptr,#(_message + 0x0034)
   0A39 74 7C              1686 	mov	a,#0x7C
   0A3B F0                 1687 	movx	@dptr,a
   0A3C 90s43r35           1688 	mov	dptr,#(_message + 0x0035)
   0A3F 74 8E              1689 	mov	a,#0x8E
   0A41 F0                 1690 	movx	@dptr,a
   0A42 90s43r36           1691 	mov	dptr,#(_message + 0x0036)
   0A45 74 FB              1692 	mov	a,#0xFB
   0A47 F0                 1693 	movx	@dptr,a
   0A48 90s43r37           1694 	mov	dptr,#(_message + 0x0037)
   0A4B 74 A6              1695 	mov	a,#0xA6
   0A4D F0                 1696 	movx	@dptr,a
   0A4E 90s43r38           1697 	mov	dptr,#(_message + 0x0038)
   0A51 74 E3              1698 	mov	a,#0xE3
   0A53 F0                 1699 	movx	@dptr,a
   0A54 90s43r39           1700 	mov	dptr,#(_message + 0x0039)
   0A57 74 6A              1701 	mov	a,#0x6A
   0A59 F0                 1702 	movx	@dptr,a
   0A5A 90s43r3A           1703 	mov	dptr,#(_message + 0x003a)
   0A5D 74 84              1704 	mov	a,#0x84
   0A5F F0                 1705 	movx	@dptr,a
   0A60 90s43r3B           1706 	mov	dptr,#(_message + 0x003b)
   0A63 74 F7              1707 	mov	a,#0xF7
   0A65 F0                 1708 	movx	@dptr,a
   0A66 90s43r3C           1709 	mov	dptr,#(_message + 0x003c)
   0A69 74 92              1710 	mov	a,#0x92
   0A6B F0                 1711 	movx	@dptr,a
   0A6C 90s43r3D           1712 	mov	dptr,#(_message + 0x003d)
   0A6F 74 5D              1713 	mov	a,#0x5D
   0A71 F0                 1714 	movx	@dptr,a
   0A72 90s43r3E           1715 	mov	dptr,#(_message + 0x003e)
   0A75 74 66              1716 	mov	a,#0x66
   0A77 F0                 1717 	movx	@dptr,a
   0A78 90s43r3F           1718 	mov	dptr,#(_message + 0x003f)
   0A7B 74 09              1719 	mov	a,#0x09
   0A7D F0                 1720 	movx	@dptr,a
   0A7E 90s43r40           1721 	mov	dptr,#(_message + 0x0040)
   0A81 74 17              1722 	mov	a,#0x17
   0A83 F0                 1723 	movx	@dptr,a
   0A84 90s43r41           1724 	mov	dptr,#(_message + 0x0041)
   0A87 74 FC              1725 	mov	a,#0xFC
   0A89 F0                 1726 	movx	@dptr,a
   0A8A 90s43r42           1727 	mov	dptr,#(_message + 0x0042)
   0A8D 74 4A              1728 	mov	a,#0x4A
   0A8F F0                 1729 	movx	@dptr,a
   0A90 90s43r43           1730 	mov	dptr,#(_message + 0x0043)
   0A93 74 98              1731 	mov	a,#0x98
   0A95 F0                 1732 	movx	@dptr,a
   0A96 90s43r44           1733 	mov	dptr,#(_message + 0x0044)
   0A99 74 1E              1734 	mov	a,#0x1E
   0A9B F0                 1735 	movx	@dptr,a
   0A9C 90s43r45           1736 	mov	dptr,#(_message + 0x0045)
   0A9F 74 DA              1737 	mov	a,#0xDA
   0AA1 F0                 1738 	movx	@dptr,a
   0AA2 90s43r46           1739 	mov	dptr,#(_message + 0x0046)
   0AA5 74 B7              1740 	mov	a,#0xB7
   0AA7 F0                 1741 	movx	@dptr,a
   0AA8 90s43r47           1742 	mov	dptr,#(_message + 0x0047)
   0AAB 74 A1              1743 	mov	a,#0xA1
   0AAD F0                 1744 	movx	@dptr,a
   0AAE 90s43r48           1745 	mov	dptr,#(_message + 0x0048)
   0AB1 74 94              1746 	mov	a,#0x94
   0AB3 F0                 1747 	movx	@dptr,a
   0AB4 90s43r49           1748 	mov	dptr,#(_message + 0x0049)
   0AB7 74 E8              1749 	mov	a,#0xE8
   0AB9 F0                 1750 	movx	@dptr,a
   0ABA 90s43r4A           1751 	mov	dptr,#(_message + 0x004a)
   0ABD 74 59              1752 	mov	a,#0x59
   0ABF F0                 1753 	movx	@dptr,a
   0AC0 90s43r4B           1754 	mov	dptr,#(_message + 0x004b)
   0AC3 74 AE              1755 	mov	a,#0xAE
   0AC5 F0                 1756 	movx	@dptr,a
   0AC6 90s43r4C           1757 	mov	dptr,#(_message + 0x004c)
   0AC9 74 3A              1758 	mov	a,#0x3A
   0ACB F0                 1759 	movx	@dptr,a
   0ACC 90s43r4D           1760 	mov	dptr,#(_message + 0x004d)
   0ACF 74 A3              1761 	mov	a,#0xA3
   0AD1 F0                 1762 	movx	@dptr,a
   0AD2 90s43r4E           1763 	mov	dptr,#(_message + 0x004e)
   0AD5 74 80              1764 	mov	a,#0x80
   0AD7 F0                 1765 	movx	@dptr,a
   0AD8 90s43r4F           1766 	mov	dptr,#(_message + 0x004f)
   0ADB 74 13              1767 	mov	a,#0x13
   0ADD F0                 1768 	movx	@dptr,a
   0ADE 90s43r50           1769 	mov	dptr,#(_message + 0x0050)
   0AE1 74 13              1770 	mov	a,#0x13
   0AE3 F0                 1771 	movx	@dptr,a
   0AE4 90s43r51           1772 	mov	dptr,#(_message + 0x0051)
   0AE7 74 81              1773 	mov	a,#0x81
   0AE9 F0                 1774 	movx	@dptr,a
   0AEA 90s43r52           1775 	mov	dptr,#(_message + 0x0052)
   0AED 74 0A              1776 	mov	a,#0x0A
   0AEF F0                 1777 	movx	@dptr,a
   0AF0 90s43r53           1778 	mov	dptr,#(_message + 0x0053)
   0AF3 74 1C              1779 	mov	a,#0x1C
   0AF5 F0                 1780 	movx	@dptr,a
   0AF6 90s43r54           1781 	mov	dptr,#(_message + 0x0054)
   0AF9 74 6F              1782 	mov	a,#0x6F
   0AFB F0                 1783 	movx	@dptr,a
   0AFC 90s43r55           1784 	mov	dptr,#(_message + 0x0055)
   0AFF 74 0C              1785 	mov	a,#0x0C
   0B01 F0                 1786 	movx	@dptr,a
   0B02 90s43r56           1787 	mov	dptr,#(_message + 0x0056)
   0B05 74 16              1788 	mov	a,#0x16
   0B07 F0                 1789 	movx	@dptr,a
   0B08 90s43r57           1790 	mov	dptr,#(_message + 0x0057)
   0B0B 74 67              1791 	mov	a,#0x67
   0B0D F0                 1792 	movx	@dptr,a
   0B0E 90s43r58           1793 	mov	dptr,#(_message + 0x0058)
   0B11 74 48              1794 	mov	a,#0x48
   0B13 F0                 1795 	movx	@dptr,a
   0B14 90s43r59           1796 	mov	dptr,#(_message + 0x0059)
   0B17 74 2A              1797 	mov	a,#0x2A
   0B19 F0                 1798 	movx	@dptr,a
   0B1A 90s43r5A           1799 	mov	dptr,#(_message + 0x005a)
   0B1D 74 1F              1800 	mov	a,#0x1F
   0B1F F0                 1801 	movx	@dptr,a
   0B20 90s43r5B           1802 	mov	dptr,#(_message + 0x005b)
   0B23 74 40              1803 	mov	a,#0x40
   0B25 F0                 1804 	movx	@dptr,a
   0B26 90s43r5C           1805 	mov	dptr,#(_message + 0x005c)
   0B29 74 8F              1806 	mov	a,#0x8F
   0B2B F0                 1807 	movx	@dptr,a
   0B2C 90s43r5D           1808 	mov	dptr,#(_message + 0x005d)
   0B2F 74 97              1809 	mov	a,#0x97
   0B31 F0                 1810 	movx	@dptr,a
   0B32 90s43r5E           1811 	mov	dptr,#(_message + 0x005e)
   0B35 74 BB              1812 	mov	a,#0xBB
   0B37 F0                 1813 	movx	@dptr,a
   0B38 90s43r5F           1814 	mov	dptr,#(_message + 0x005f)
   0B3B 74 55              1815 	mov	a,#0x55
   0B3D F0                 1816 	movx	@dptr,a
   0B3E 90s43r60           1817 	mov	dptr,#(_message + 0x0060)
   0B41 74 52              1818 	mov	a,#0x52
   0B43 F0                 1819 	movx	@dptr,a
   0B44 90s43r61           1820 	mov	dptr,#(_message + 0x0061)
   0B47 74 35              1821 	mov	a,#0x35
   0B49 F0                 1822 	movx	@dptr,a
   0B4A 90s43r62           1823 	mov	dptr,#(_message + 0x0062)
   0B4D 74 88              1824 	mov	a,#0x88
   0B4F F0                 1825 	movx	@dptr,a
   0B50 90s43r63           1826 	mov	dptr,#(_message + 0x0063)
   0B53 74 65              1827 	mov	a,#0x65
   0B55 F0                 1828 	movx	@dptr,a
   0B56 90s43r64           1829 	mov	dptr,#(_message + 0x0064)
   0B59 74 D8              1830 	mov	a,#0xD8
   0B5B F0                 1831 	movx	@dptr,a
   0B5C 90s43r65           1832 	mov	dptr,#(_message + 0x0065)
   0B5F 74 01              1833 	mov	a,#0x01
   0B61 F0                 1834 	movx	@dptr,a
   0B62 90s43r66           1835 	mov	dptr,#(_message + 0x0066)
   0B65 74 8F              1836 	mov	a,#0x8F
   0B67 F0                 1837 	movx	@dptr,a
   0B68 90s43r67           1838 	mov	dptr,#(_message + 0x0067)
   0B6B 74 77              1839 	mov	a,#0x77
   0B6D F0                 1840 	movx	@dptr,a
   0B6E 90s43r68           1841 	mov	dptr,#(_message + 0x0068)
   0B71 74 86              1842 	mov	a,#0x86
   0B73 F0                 1843 	movx	@dptr,a
   0B74 90s43r69           1844 	mov	dptr,#(_message + 0x0069)
   0B77 74 A5              1845 	mov	a,#0xA5
   0B79 F0                 1846 	movx	@dptr,a
   0B7A 90s43r6A           1847 	mov	dptr,#(_message + 0x006a)
   0B7D 74 55              1848 	mov	a,#0x55
   0B7F F0                 1849 	movx	@dptr,a
   0B80 90s43r6B           1850 	mov	dptr,#(_message + 0x006b)
   0B83 74 66              1851 	mov	a,#0x66
   0B85 F0                 1852 	movx	@dptr,a
   0B86 90s43r6C           1853 	mov	dptr,#(_message + 0x006c)
   0B89 74 53              1854 	mov	a,#0x53
   0B8B F0                 1855 	movx	@dptr,a
   0B8C 90s43r6D           1856 	mov	dptr,#(_message + 0x006d)
   0B8F 74 02              1857 	mov	a,#0x02
   0B91 F0                 1858 	movx	@dptr,a
   0B92 90s43r6E           1859 	mov	dptr,#(_message + 0x006e)
   0B95 74 F3              1860 	mov	a,#0xF3
   0B97 F0                 1861 	movx	@dptr,a
   0B98 90s43r6F           1862 	mov	dptr,#(_message + 0x006f)
   0B9B 74 41              1863 	mov	a,#0x41
   0B9D F0                 1864 	movx	@dptr,a
   0B9E 90s43r70           1865 	mov	dptr,#(_message + 0x0070)
   0BA1 74 F4              1866 	mov	a,#0xF4
   0BA3 F0                 1867 	movx	@dptr,a
   0BA4 90s43r71           1868 	mov	dptr,#(_message + 0x0071)
   0BA7 74 26              1869 	mov	a,#0x26
   0BA9 F0                 1870 	movx	@dptr,a
   0BAA 90s43r72           1871 	mov	dptr,#(_message + 0x0072)
   0BAD 74 CC              1872 	mov	a,#0xCC
   0BAF F0                 1873 	movx	@dptr,a
   0BB0 90s43r73           1874 	mov	dptr,#(_message + 0x0073)
   0BB3 74 D7              1875 	mov	a,#0xD7
   0BB5 F0                 1876 	movx	@dptr,a
   0BB6 90s43r74           1877 	mov	dptr,#(_message + 0x0074)
   0BB9 74 0A              1878 	mov	a,#0x0A
   0BBB F0                 1879 	movx	@dptr,a
   0BBC 90s43r75           1880 	mov	dptr,#(_message + 0x0075)
   0BBF 74 EA              1881 	mov	a,#0xEA
   0BC1 F0                 1882 	movx	@dptr,a
   0BC2 90s43r76           1883 	mov	dptr,#(_message + 0x0076)
   0BC5 74 E4              1884 	mov	a,#0xE4
   0BC7 F0                 1885 	movx	@dptr,a
   0BC8 90s43r77           1886 	mov	dptr,#(_message + 0x0077)
   0BCB 74 3C              1887 	mov	a,#0x3C
   0BCD F0                 1888 	movx	@dptr,a
   0BCE 90s43r78           1889 	mov	dptr,#(_message + 0x0078)
   0BD1 74 A1              1890 	mov	a,#0xA1
   0BD3 F0                 1891 	movx	@dptr,a
   0BD4 90s43r79           1892 	mov	dptr,#(_message + 0x0079)
   0BD7 74 65              1893 	mov	a,#0x65
   0BD9 F0                 1894 	movx	@dptr,a
   0BDA 90s43r7A           1895 	mov	dptr,#(_message + 0x007a)
   0BDD 74 BA              1896 	mov	a,#0xBA
   0BDF F0                 1897 	movx	@dptr,a
   0BE0 90s43r7B           1898 	mov	dptr,#(_message + 0x007b)
   0BE3 74 8D              1899 	mov	a,#0x8D
   0BE5 F0                 1900 	movx	@dptr,a
   0BE6 90s43r7C           1901 	mov	dptr,#(_message + 0x007c)
   0BE9 74 71              1902 	mov	a,#0x71
   0BEB F0                 1903 	movx	@dptr,a
   0BEC 90s43r7D           1904 	mov	dptr,#(_message + 0x007d)
   0BEF 74 08              1905 	mov	a,#0x08
   0BF1 F0                 1906 	movx	@dptr,a
   0BF2 90s43r7E           1907 	mov	dptr,#(_message + 0x007e)
   0BF5 74 EE              1908 	mov	a,#0xEE
   0BF7 F0                 1909 	movx	@dptr,a
   0BF8 90s43r7F           1910 	mov	dptr,#(_message + 0x007f)
   0BFB 74 98              1911 	mov	a,#0x98
   0BFD F0                 1912 	movx	@dptr,a
                           1913 ;	main.c:38: volatile __xdata __at (0x4400) unsigned char publicKey[SIZE] = {0x01, 0x01};
   0BFE 90s44r00           1914 	mov	dptr,#_publicKey
   0C01 74 01              1915 	mov	a,#0x01
   0C03 F0                 1916 	movx	@dptr,a
   0C04 90s44r01           1917 	mov	dptr,#(_publicKey + 0x0001)
   0C07 74 01              1918 	mov	a,#0x01
   0C09 F0                 1919 	movx	@dptr,a
                           1920 ;	main.c:39: volatile __xdata __at (0x4500) unsigned char privateKey[SIZE] = {0x01, 0x23, 0xC5, 0xD2, 0x6A, 0xE6, 0x8B, 0x2B, 0xE7, 0x41, 0x5A, 0x8E, 0xBA, 0x08, 0x1A, 0x66, 0x97, 0xC4, 0xB7, 0x6E, 0x54, 0x5D, 0xC4, 0x99, 0x40, 0x63, 0x65, 0xED, 0x77, 0xCA, 0xCF, 0xEB, 0x75, 0xCF, 0x29, 0x3C, 0xE5, 0x27, 0x0B, 0x54, 0xD0, 0x11, 0x7E, 0xB2, 0x0B, 0x12, 0x9F, 0xBD, 0xBF, 0x2F, 0x51, 0x4C, 0x51, 0x6D, 0x2F, 0xF8, 0x2D, 0x62, 0xB4, 0x1E, 0xA5, 0xEC, 0xE9, 0xDE, 0x0B, 0xE9, 0x7A, 0x72, 0xAE, 0xA4, 0x56, 0xAF, 0xE3, 0xAF, 0x72, 0x54, 0x05, 0xBE, 0x14, 0xA1, 0x01, 0x4D, 0x0D, 0x8D, 0x02, 0x7F, 0xCA, 0xEF, 0xEC, 0x83, 0xE2, 0xA0, 0x75, 0x0A, 0xEF, 0x0C, 0x2C, 0x61, 0xC2, 0x5C, 0xDC, 0x95, 0xC3, 0x36, 0x63, 0x69, 0x6A, 0x76, 0x64, 0xD2, 0x57, 0x56, 0x7F, 0xE3, 0xC9, 0xCA, 0x11, 0x1F, 0xFD, 0xFC, 0x1A, 0x54, 0xA0, 0x70, 0x42, 0x97, 0xF7, 0x6D};
   0C0A 90s45r00           1921 	mov	dptr,#_privateKey
   0C0D 74 01              1922 	mov	a,#0x01
   0C0F F0                 1923 	movx	@dptr,a
   0C10 90s45r01           1924 	mov	dptr,#(_privateKey + 0x0001)
   0C13 74 23              1925 	mov	a,#0x23
   0C15 F0                 1926 	movx	@dptr,a
   0C16 90s45r02           1927 	mov	dptr,#(_privateKey + 0x0002)
   0C19 74 C5              1928 	mov	a,#0xC5
   0C1B F0                 1929 	movx	@dptr,a
   0C1C 90s45r03           1930 	mov	dptr,#(_privateKey + 0x0003)
   0C1F 74 D2              1931 	mov	a,#0xD2
   0C21 F0                 1932 	movx	@dptr,a
   0C22 90s45r04           1933 	mov	dptr,#(_privateKey + 0x0004)
   0C25 74 6A              1934 	mov	a,#0x6A
   0C27 F0                 1935 	movx	@dptr,a
   0C28 90s45r05           1936 	mov	dptr,#(_privateKey + 0x0005)
   0C2B 74 E6              1937 	mov	a,#0xE6
   0C2D F0                 1938 	movx	@dptr,a
   0C2E 90s45r06           1939 	mov	dptr,#(_privateKey + 0x0006)
   0C31 74 8B              1940 	mov	a,#0x8B
   0C33 F0                 1941 	movx	@dptr,a
   0C34 90s45r07           1942 	mov	dptr,#(_privateKey + 0x0007)
   0C37 74 2B              1943 	mov	a,#0x2B
   0C39 F0                 1944 	movx	@dptr,a
   0C3A 90s45r08           1945 	mov	dptr,#(_privateKey + 0x0008)
   0C3D 74 E7              1946 	mov	a,#0xE7
   0C3F F0                 1947 	movx	@dptr,a
   0C40 90s45r09           1948 	mov	dptr,#(_privateKey + 0x0009)
   0C43 74 41              1949 	mov	a,#0x41
   0C45 F0                 1950 	movx	@dptr,a
   0C46 90s45r0A           1951 	mov	dptr,#(_privateKey + 0x000a)
   0C49 74 5A              1952 	mov	a,#0x5A
   0C4B F0                 1953 	movx	@dptr,a
   0C4C 90s45r0B           1954 	mov	dptr,#(_privateKey + 0x000b)
   0C4F 74 8E              1955 	mov	a,#0x8E
   0C51 F0                 1956 	movx	@dptr,a
   0C52 90s45r0C           1957 	mov	dptr,#(_privateKey + 0x000c)
   0C55 74 BA              1958 	mov	a,#0xBA
   0C57 F0                 1959 	movx	@dptr,a
   0C58 90s45r0D           1960 	mov	dptr,#(_privateKey + 0x000d)
   0C5B 74 08              1961 	mov	a,#0x08
   0C5D F0                 1962 	movx	@dptr,a
   0C5E 90s45r0E           1963 	mov	dptr,#(_privateKey + 0x000e)
   0C61 74 1A              1964 	mov	a,#0x1A
   0C63 F0                 1965 	movx	@dptr,a
   0C64 90s45r0F           1966 	mov	dptr,#(_privateKey + 0x000f)
   0C67 74 66              1967 	mov	a,#0x66
   0C69 F0                 1968 	movx	@dptr,a
   0C6A 90s45r10           1969 	mov	dptr,#(_privateKey + 0x0010)
   0C6D 74 97              1970 	mov	a,#0x97
   0C6F F0                 1971 	movx	@dptr,a
   0C70 90s45r11           1972 	mov	dptr,#(_privateKey + 0x0011)
   0C73 74 C4              1973 	mov	a,#0xC4
   0C75 F0                 1974 	movx	@dptr,a
   0C76 90s45r12           1975 	mov	dptr,#(_privateKey + 0x0012)
   0C79 74 B7              1976 	mov	a,#0xB7
   0C7B F0                 1977 	movx	@dptr,a
   0C7C 90s45r13           1978 	mov	dptr,#(_privateKey + 0x0013)
   0C7F 74 6E              1979 	mov	a,#0x6E
   0C81 F0                 1980 	movx	@dptr,a
   0C82 90s45r14           1981 	mov	dptr,#(_privateKey + 0x0014)
   0C85 74 54              1982 	mov	a,#0x54
   0C87 F0                 1983 	movx	@dptr,a
   0C88 90s45r15           1984 	mov	dptr,#(_privateKey + 0x0015)
   0C8B 74 5D              1985 	mov	a,#0x5D
   0C8D F0                 1986 	movx	@dptr,a
   0C8E 90s45r16           1987 	mov	dptr,#(_privateKey + 0x0016)
   0C91 74 C4              1988 	mov	a,#0xC4
   0C93 F0                 1989 	movx	@dptr,a
   0C94 90s45r17           1990 	mov	dptr,#(_privateKey + 0x0017)
   0C97 74 99              1991 	mov	a,#0x99
   0C99 F0                 1992 	movx	@dptr,a
   0C9A 90s45r18           1993 	mov	dptr,#(_privateKey + 0x0018)
   0C9D 74 40              1994 	mov	a,#0x40
   0C9F F0                 1995 	movx	@dptr,a
   0CA0 90s45r19           1996 	mov	dptr,#(_privateKey + 0x0019)
   0CA3 74 63              1997 	mov	a,#0x63
   0CA5 F0                 1998 	movx	@dptr,a
   0CA6 90s45r1A           1999 	mov	dptr,#(_privateKey + 0x001a)
   0CA9 74 65              2000 	mov	a,#0x65
   0CAB F0                 2001 	movx	@dptr,a
   0CAC 90s45r1B           2002 	mov	dptr,#(_privateKey + 0x001b)
   0CAF 74 ED              2003 	mov	a,#0xED
   0CB1 F0                 2004 	movx	@dptr,a
   0CB2 90s45r1C           2005 	mov	dptr,#(_privateKey + 0x001c)
   0CB5 74 77              2006 	mov	a,#0x77
   0CB7 F0                 2007 	movx	@dptr,a
   0CB8 90s45r1D           2008 	mov	dptr,#(_privateKey + 0x001d)
   0CBB 74 CA              2009 	mov	a,#0xCA
   0CBD F0                 2010 	movx	@dptr,a
   0CBE 90s45r1E           2011 	mov	dptr,#(_privateKey + 0x001e)
   0CC1 74 CF              2012 	mov	a,#0xCF
   0CC3 F0                 2013 	movx	@dptr,a
   0CC4 90s45r1F           2014 	mov	dptr,#(_privateKey + 0x001f)
   0CC7 74 EB              2015 	mov	a,#0xEB
   0CC9 F0                 2016 	movx	@dptr,a
   0CCA 90s45r20           2017 	mov	dptr,#(_privateKey + 0x0020)
   0CCD 74 75              2018 	mov	a,#0x75
   0CCF F0                 2019 	movx	@dptr,a
   0CD0 90s45r21           2020 	mov	dptr,#(_privateKey + 0x0021)
   0CD3 74 CF              2021 	mov	a,#0xCF
   0CD5 F0                 2022 	movx	@dptr,a
   0CD6 90s45r22           2023 	mov	dptr,#(_privateKey + 0x0022)
   0CD9 74 29              2024 	mov	a,#0x29
   0CDB F0                 2025 	movx	@dptr,a
   0CDC 90s45r23           2026 	mov	dptr,#(_privateKey + 0x0023)
   0CDF 74 3C              2027 	mov	a,#0x3C
   0CE1 F0                 2028 	movx	@dptr,a
   0CE2 90s45r24           2029 	mov	dptr,#(_privateKey + 0x0024)
   0CE5 74 E5              2030 	mov	a,#0xE5
   0CE7 F0                 2031 	movx	@dptr,a
   0CE8 90s45r25           2032 	mov	dptr,#(_privateKey + 0x0025)
   0CEB 74 27              2033 	mov	a,#0x27
   0CED F0                 2034 	movx	@dptr,a
   0CEE 90s45r26           2035 	mov	dptr,#(_privateKey + 0x0026)
   0CF1 74 0B              2036 	mov	a,#0x0B
   0CF3 F0                 2037 	movx	@dptr,a
   0CF4 90s45r27           2038 	mov	dptr,#(_privateKey + 0x0027)
   0CF7 74 54              2039 	mov	a,#0x54
   0CF9 F0                 2040 	movx	@dptr,a
   0CFA 90s45r28           2041 	mov	dptr,#(_privateKey + 0x0028)
   0CFD 74 D0              2042 	mov	a,#0xD0
   0CFF F0                 2043 	movx	@dptr,a
   0D00 90s45r29           2044 	mov	dptr,#(_privateKey + 0x0029)
   0D03 74 11              2045 	mov	a,#0x11
   0D05 F0                 2046 	movx	@dptr,a
   0D06 90s45r2A           2047 	mov	dptr,#(_privateKey + 0x002a)
   0D09 74 7E              2048 	mov	a,#0x7E
   0D0B F0                 2049 	movx	@dptr,a
   0D0C 90s45r2B           2050 	mov	dptr,#(_privateKey + 0x002b)
   0D0F 74 B2              2051 	mov	a,#0xB2
   0D11 F0                 2052 	movx	@dptr,a
   0D12 90s45r2C           2053 	mov	dptr,#(_privateKey + 0x002c)
   0D15 74 0B              2054 	mov	a,#0x0B
   0D17 F0                 2055 	movx	@dptr,a
   0D18 90s45r2D           2056 	mov	dptr,#(_privateKey + 0x002d)
   0D1B 74 12              2057 	mov	a,#0x12
   0D1D F0                 2058 	movx	@dptr,a
   0D1E 90s45r2E           2059 	mov	dptr,#(_privateKey + 0x002e)
   0D21 74 9F              2060 	mov	a,#0x9F
   0D23 F0                 2061 	movx	@dptr,a
   0D24 90s45r2F           2062 	mov	dptr,#(_privateKey + 0x002f)
   0D27 74 BD              2063 	mov	a,#0xBD
   0D29 F0                 2064 	movx	@dptr,a
   0D2A 90s45r30           2065 	mov	dptr,#(_privateKey + 0x0030)
   0D2D 74 BF              2066 	mov	a,#0xBF
   0D2F F0                 2067 	movx	@dptr,a
   0D30 90s45r31           2068 	mov	dptr,#(_privateKey + 0x0031)
   0D33 74 2F              2069 	mov	a,#0x2F
   0D35 F0                 2070 	movx	@dptr,a
   0D36 90s45r32           2071 	mov	dptr,#(_privateKey + 0x0032)
   0D39 74 51              2072 	mov	a,#0x51
   0D3B F0                 2073 	movx	@dptr,a
   0D3C 90s45r33           2074 	mov	dptr,#(_privateKey + 0x0033)
   0D3F 74 4C              2075 	mov	a,#0x4C
   0D41 F0                 2076 	movx	@dptr,a
   0D42 90s45r34           2077 	mov	dptr,#(_privateKey + 0x0034)
   0D45 74 51              2078 	mov	a,#0x51
   0D47 F0                 2079 	movx	@dptr,a
   0D48 90s45r35           2080 	mov	dptr,#(_privateKey + 0x0035)
   0D4B 74 6D              2081 	mov	a,#0x6D
   0D4D F0                 2082 	movx	@dptr,a
   0D4E 90s45r36           2083 	mov	dptr,#(_privateKey + 0x0036)
   0D51 74 2F              2084 	mov	a,#0x2F
   0D53 F0                 2085 	movx	@dptr,a
   0D54 90s45r37           2086 	mov	dptr,#(_privateKey + 0x0037)
   0D57 74 F8              2087 	mov	a,#0xF8
   0D59 F0                 2088 	movx	@dptr,a
   0D5A 90s45r38           2089 	mov	dptr,#(_privateKey + 0x0038)
   0D5D 74 2D              2090 	mov	a,#0x2D
   0D5F F0                 2091 	movx	@dptr,a
   0D60 90s45r39           2092 	mov	dptr,#(_privateKey + 0x0039)
   0D63 74 62              2093 	mov	a,#0x62
   0D65 F0                 2094 	movx	@dptr,a
   0D66 90s45r3A           2095 	mov	dptr,#(_privateKey + 0x003a)
   0D69 74 B4              2096 	mov	a,#0xB4
   0D6B F0                 2097 	movx	@dptr,a
   0D6C 90s45r3B           2098 	mov	dptr,#(_privateKey + 0x003b)
   0D6F 74 1E              2099 	mov	a,#0x1E
   0D71 F0                 2100 	movx	@dptr,a
   0D72 90s45r3C           2101 	mov	dptr,#(_privateKey + 0x003c)
   0D75 74 A5              2102 	mov	a,#0xA5
   0D77 F0                 2103 	movx	@dptr,a
   0D78 90s45r3D           2104 	mov	dptr,#(_privateKey + 0x003d)
   0D7B 74 EC              2105 	mov	a,#0xEC
   0D7D F0                 2106 	movx	@dptr,a
   0D7E 90s45r3E           2107 	mov	dptr,#(_privateKey + 0x003e)
   0D81 74 E9              2108 	mov	a,#0xE9
   0D83 F0                 2109 	movx	@dptr,a
   0D84 90s45r3F           2110 	mov	dptr,#(_privateKey + 0x003f)
   0D87 74 DE              2111 	mov	a,#0xDE
   0D89 F0                 2112 	movx	@dptr,a
   0D8A 90s45r40           2113 	mov	dptr,#(_privateKey + 0x0040)
   0D8D 74 0B              2114 	mov	a,#0x0B
   0D8F F0                 2115 	movx	@dptr,a
   0D90 90s45r41           2116 	mov	dptr,#(_privateKey + 0x0041)
   0D93 74 E9              2117 	mov	a,#0xE9
   0D95 F0                 2118 	movx	@dptr,a
   0D96 90s45r42           2119 	mov	dptr,#(_privateKey + 0x0042)
   0D99 74 7A              2120 	mov	a,#0x7A
   0D9B F0                 2121 	movx	@dptr,a
   0D9C 90s45r43           2122 	mov	dptr,#(_privateKey + 0x0043)
   0D9F 74 72              2123 	mov	a,#0x72
   0DA1 F0                 2124 	movx	@dptr,a
   0DA2 90s45r44           2125 	mov	dptr,#(_privateKey + 0x0044)
   0DA5 74 AE              2126 	mov	a,#0xAE
   0DA7 F0                 2127 	movx	@dptr,a
   0DA8 90s45r45           2128 	mov	dptr,#(_privateKey + 0x0045)
   0DAB 74 A4              2129 	mov	a,#0xA4
   0DAD F0                 2130 	movx	@dptr,a
   0DAE 90s45r46           2131 	mov	dptr,#(_privateKey + 0x0046)
   0DB1 74 56              2132 	mov	a,#0x56
   0DB3 F0                 2133 	movx	@dptr,a
   0DB4 90s45r47           2134 	mov	dptr,#(_privateKey + 0x0047)
   0DB7 74 AF              2135 	mov	a,#0xAF
   0DB9 F0                 2136 	movx	@dptr,a
   0DBA 90s45r48           2137 	mov	dptr,#(_privateKey + 0x0048)
   0DBD 74 E3              2138 	mov	a,#0xE3
   0DBF F0                 2139 	movx	@dptr,a
   0DC0 90s45r49           2140 	mov	dptr,#(_privateKey + 0x0049)
   0DC3 74 AF              2141 	mov	a,#0xAF
   0DC5 F0                 2142 	movx	@dptr,a
   0DC6 90s45r4A           2143 	mov	dptr,#(_privateKey + 0x004a)
   0DC9 74 72              2144 	mov	a,#0x72
   0DCB F0                 2145 	movx	@dptr,a
   0DCC 90s45r4B           2146 	mov	dptr,#(_privateKey + 0x004b)
   0DCF 74 54              2147 	mov	a,#0x54
   0DD1 F0                 2148 	movx	@dptr,a
   0DD2 90s45r4C           2149 	mov	dptr,#(_privateKey + 0x004c)
   0DD5 74 05              2150 	mov	a,#0x05
   0DD7 F0                 2151 	movx	@dptr,a
   0DD8 90s45r4D           2152 	mov	dptr,#(_privateKey + 0x004d)
   0DDB 74 BE              2153 	mov	a,#0xBE
   0DDD F0                 2154 	movx	@dptr,a
   0DDE 90s45r4E           2155 	mov	dptr,#(_privateKey + 0x004e)
   0DE1 74 14              2156 	mov	a,#0x14
   0DE3 F0                 2157 	movx	@dptr,a
   0DE4 90s45r4F           2158 	mov	dptr,#(_privateKey + 0x004f)
   0DE7 74 A1              2159 	mov	a,#0xA1
   0DE9 F0                 2160 	movx	@dptr,a
   0DEA 90s45r50           2161 	mov	dptr,#(_privateKey + 0x0050)
   0DED 74 01              2162 	mov	a,#0x01
   0DEF F0                 2163 	movx	@dptr,a
   0DF0 90s45r51           2164 	mov	dptr,#(_privateKey + 0x0051)
   0DF3 74 4D              2165 	mov	a,#0x4D
   0DF5 F0                 2166 	movx	@dptr,a
   0DF6 90s45r52           2167 	mov	dptr,#(_privateKey + 0x0052)
   0DF9 74 0D              2168 	mov	a,#0x0D
   0DFB F0                 2169 	movx	@dptr,a
   0DFC 90s45r53           2170 	mov	dptr,#(_privateKey + 0x0053)
   0DFF 74 8D              2171 	mov	a,#0x8D
   0E01 F0                 2172 	movx	@dptr,a
   0E02 90s45r54           2173 	mov	dptr,#(_privateKey + 0x0054)
   0E05 74 02              2174 	mov	a,#0x02
   0E07 F0                 2175 	movx	@dptr,a
   0E08 90s45r55           2176 	mov	dptr,#(_privateKey + 0x0055)
   0E0B 74 7F              2177 	mov	a,#0x7F
   0E0D F0                 2178 	movx	@dptr,a
   0E0E 90s45r56           2179 	mov	dptr,#(_privateKey + 0x0056)
   0E11 74 CA              2180 	mov	a,#0xCA
   0E13 F0                 2181 	movx	@dptr,a
   0E14 90s45r57           2182 	mov	dptr,#(_privateKey + 0x0057)
   0E17 74 EF              2183 	mov	a,#0xEF
   0E19 F0                 2184 	movx	@dptr,a
   0E1A 90s45r58           2185 	mov	dptr,#(_privateKey + 0x0058)
   0E1D 74 EC              2186 	mov	a,#0xEC
   0E1F F0                 2187 	movx	@dptr,a
   0E20 90s45r59           2188 	mov	dptr,#(_privateKey + 0x0059)
   0E23 74 83              2189 	mov	a,#0x83
   0E25 F0                 2190 	movx	@dptr,a
   0E26 90s45r5A           2191 	mov	dptr,#(_privateKey + 0x005a)
   0E29 74 E2              2192 	mov	a,#0xE2
   0E2B F0                 2193 	movx	@dptr,a
   0E2C 90s45r5B           2194 	mov	dptr,#(_privateKey + 0x005b)
   0E2F 74 A0              2195 	mov	a,#0xA0
   0E31 F0                 2196 	movx	@dptr,a
   0E32 90s45r5C           2197 	mov	dptr,#(_privateKey + 0x005c)
   0E35 74 75              2198 	mov	a,#0x75
   0E37 F0                 2199 	movx	@dptr,a
   0E38 90s45r5D           2200 	mov	dptr,#(_privateKey + 0x005d)
   0E3B 74 0A              2201 	mov	a,#0x0A
   0E3D F0                 2202 	movx	@dptr,a
   0E3E 90s45r5E           2203 	mov	dptr,#(_privateKey + 0x005e)
   0E41 74 EF              2204 	mov	a,#0xEF
   0E43 F0                 2205 	movx	@dptr,a
   0E44 90s45r5F           2206 	mov	dptr,#(_privateKey + 0x005f)
   0E47 74 0C              2207 	mov	a,#0x0C
   0E49 F0                 2208 	movx	@dptr,a
   0E4A 90s45r60           2209 	mov	dptr,#(_privateKey + 0x0060)
   0E4D 74 2C              2210 	mov	a,#0x2C
   0E4F F0                 2211 	movx	@dptr,a
   0E50 90s45r61           2212 	mov	dptr,#(_privateKey + 0x0061)
   0E53 74 61              2213 	mov	a,#0x61
   0E55 F0                 2214 	movx	@dptr,a
   0E56 90s45r62           2215 	mov	dptr,#(_privateKey + 0x0062)
   0E59 74 C2              2216 	mov	a,#0xC2
   0E5B F0                 2217 	movx	@dptr,a
   0E5C 90s45r63           2218 	mov	dptr,#(_privateKey + 0x0063)
   0E5F 74 5C              2219 	mov	a,#0x5C
   0E61 F0                 2220 	movx	@dptr,a
   0E62 90s45r64           2221 	mov	dptr,#(_privateKey + 0x0064)
   0E65 74 DC              2222 	mov	a,#0xDC
   0E67 F0                 2223 	movx	@dptr,a
   0E68 90s45r65           2224 	mov	dptr,#(_privateKey + 0x0065)
   0E6B 74 95              2225 	mov	a,#0x95
   0E6D F0                 2226 	movx	@dptr,a
   0E6E 90s45r66           2227 	mov	dptr,#(_privateKey + 0x0066)
   0E71 74 C3              2228 	mov	a,#0xC3
   0E73 F0                 2229 	movx	@dptr,a
   0E74 90s45r67           2230 	mov	dptr,#(_privateKey + 0x0067)
   0E77 74 36              2231 	mov	a,#0x36
   0E79 F0                 2232 	movx	@dptr,a
   0E7A 90s45r68           2233 	mov	dptr,#(_privateKey + 0x0068)
   0E7D 74 63              2234 	mov	a,#0x63
   0E7F F0                 2235 	movx	@dptr,a
   0E80 90s45r69           2236 	mov	dptr,#(_privateKey + 0x0069)
   0E83 74 69              2237 	mov	a,#0x69
   0E85 F0                 2238 	movx	@dptr,a
   0E86 90s45r6A           2239 	mov	dptr,#(_privateKey + 0x006a)
   0E89 74 6A              2240 	mov	a,#0x6A
   0E8B F0                 2241 	movx	@dptr,a
   0E8C 90s45r6B           2242 	mov	dptr,#(_privateKey + 0x006b)
   0E8F 74 76              2243 	mov	a,#0x76
   0E91 F0                 2244 	movx	@dptr,a
   0E92 90s45r6C           2245 	mov	dptr,#(_privateKey + 0x006c)
   0E95 74 64              2246 	mov	a,#0x64
   0E97 F0                 2247 	movx	@dptr,a
   0E98 90s45r6D           2248 	mov	dptr,#(_privateKey + 0x006d)
   0E9B 74 D2              2249 	mov	a,#0xD2
   0E9D F0                 2250 	movx	@dptr,a
   0E9E 90s45r6E           2251 	mov	dptr,#(_privateKey + 0x006e)
   0EA1 74 57              2252 	mov	a,#0x57
   0EA3 F0                 2253 	movx	@dptr,a
   0EA4 90s45r6F           2254 	mov	dptr,#(_privateKey + 0x006f)
   0EA7 74 56              2255 	mov	a,#0x56
   0EA9 F0                 2256 	movx	@dptr,a
   0EAA 90s45r70           2257 	mov	dptr,#(_privateKey + 0x0070)
   0EAD 74 7F              2258 	mov	a,#0x7F
   0EAF F0                 2259 	movx	@dptr,a
   0EB0 90s45r71           2260 	mov	dptr,#(_privateKey + 0x0071)
   0EB3 74 E3              2261 	mov	a,#0xE3
   0EB5 F0                 2262 	movx	@dptr,a
   0EB6 90s45r72           2263 	mov	dptr,#(_privateKey + 0x0072)
   0EB9 74 C9              2264 	mov	a,#0xC9
   0EBB F0                 2265 	movx	@dptr,a
   0EBC 90s45r73           2266 	mov	dptr,#(_privateKey + 0x0073)
   0EBF 74 CA              2267 	mov	a,#0xCA
   0EC1 F0                 2268 	movx	@dptr,a
   0EC2 90s45r74           2269 	mov	dptr,#(_privateKey + 0x0074)
   0EC5 74 11              2270 	mov	a,#0x11
   0EC7 F0                 2271 	movx	@dptr,a
   0EC8 90s45r75           2272 	mov	dptr,#(_privateKey + 0x0075)
   0ECB 74 1F              2273 	mov	a,#0x1F
   0ECD F0                 2274 	movx	@dptr,a
   0ECE 90s45r76           2275 	mov	dptr,#(_privateKey + 0x0076)
   0ED1 74 FD              2276 	mov	a,#0xFD
   0ED3 F0                 2277 	movx	@dptr,a
   0ED4 90s45r77           2278 	mov	dptr,#(_privateKey + 0x0077)
   0ED7 74 FC              2279 	mov	a,#0xFC
   0ED9 F0                 2280 	movx	@dptr,a
   0EDA 90s45r78           2281 	mov	dptr,#(_privateKey + 0x0078)
   0EDD 74 1A              2282 	mov	a,#0x1A
   0EDF F0                 2283 	movx	@dptr,a
   0EE0 90s45r79           2284 	mov	dptr,#(_privateKey + 0x0079)
   0EE3 74 54              2285 	mov	a,#0x54
   0EE5 F0                 2286 	movx	@dptr,a
   0EE6 90s45r7A           2287 	mov	dptr,#(_privateKey + 0x007a)
   0EE9 74 A0              2288 	mov	a,#0xA0
   0EEB F0                 2289 	movx	@dptr,a
   0EEC 90s45r7B           2290 	mov	dptr,#(_privateKey + 0x007b)
   0EEF 74 70              2291 	mov	a,#0x70
   0EF1 F0                 2292 	movx	@dptr,a
   0EF2 90s45r7C           2293 	mov	dptr,#(_privateKey + 0x007c)
   0EF5 74 42              2294 	mov	a,#0x42
   0EF7 F0                 2295 	movx	@dptr,a
   0EF8 90s45r7D           2296 	mov	dptr,#(_privateKey + 0x007d)
   0EFB 74 97              2297 	mov	a,#0x97
   0EFD F0                 2298 	movx	@dptr,a
   0EFE 90s45r7E           2299 	mov	dptr,#(_privateKey + 0x007e)
   0F01 74 F7              2300 	mov	a,#0xF7
   0F03 F0                 2301 	movx	@dptr,a
   0F04 90s45r7F           2302 	mov	dptr,#(_privateKey + 0x007f)
   0F07 74 6D              2303 	mov	a,#0x6D
   0F09 F0                 2304 	movx	@dptr,a
                           2305 	.area GSFINAL (CODE)
   0000 02s00r03           2306 	ljmp	__sdcc_program_startup
                           2307 ;--------------------------------------------------------
                           2308 ; Home
                           2309 ;--------------------------------------------------------
                           2310 	.area HOME    (CODE)
                           2311 	.area HOME    (CODE)
   0003                    2312 __sdcc_program_startup:
   0003 12s00r00           2313 	lcall	_main
                           2314 ;	return from main will lock up
   0006 80 FE              2315 	sjmp .
                           2316 ;--------------------------------------------------------
                           2317 ; code
                           2318 ;--------------------------------------------------------
                           2319 	.area CSEG    (CODE)
                           2320 ;------------------------------------------------------------
                           2321 ;Allocation info for local variables in function 'main'
                           2322 ;------------------------------------------------------------
                           2323 ;i                         Allocated to registers r2 
                           2324 ;------------------------------------------------------------
                           2325 ;	main.c:65: int main() {
                           2326 ;	-----------------------------------------
                           2327 ;	 function main
                           2328 ;	-----------------------------------------
   0000                    2329 _main:
                    0002   2330 	ar2 = 0x02
                    0003   2331 	ar3 = 0x03
                    0004   2332 	ar4 = 0x04
                    0005   2333 	ar5 = 0x05
                    0006   2334 	ar6 = 0x06
                    0007   2335 	ar7 = 0x07
                    0000   2336 	ar0 = 0x00
                    0001   2337 	ar1 = 0x01
                           2338 ;	main.c:69: for (i = 0; i < SIZE; i++)
   0000 7A 00              2339 	mov	r2,#0x00
   0002                    2340 00101$:
   0002 BA 80 00           2341 	cjne	r2,#0x80,00124$
   0005                    2342 00124$:
   0005 50 17              2343 	jnc	00104$
                           2344 ;	main.c:70: sM[i] = modulus[i];
   0007 EA                 2345 	mov	a,r2
   0008 24 01              2346 	add	a,#_sM
   000A FB                 2347 	mov	r3,a
   000B E4                 2348 	clr	a
   000C 34 21              2349 	addc	a,#(_sM >> 8)
   000E FC                 2350 	mov	r4,a
   000F 8A 82              2351 	mov	dpl,r2
   0011 75 83s42           2352 	mov	dph,#(_modulus >> 8)
   0014 E0                 2353 	movx	a,@dptr
   0015 FD                 2354 	mov	r5,a
   0016 8B 82              2355 	mov	dpl,r3
   0018 8C 83              2356 	mov	dph,r4
   001A F0                 2357 	movx	@dptr,a
                           2358 ;	main.c:69: for (i = 0; i < SIZE; i++)
   001B 0A                 2359 	inc	r2
   001C 80 E4              2360 	sjmp	00101$
   001E                    2361 00104$:
                           2362 ;	main.c:71: _mul1_writeAll();
   001E 12s03rE9           2363 	lcall	__mul1_writeAll
                           2364 ;	main.c:73: montModExp(message, publicKey);
   0021 75*0Fr00           2365 	mov	_montModExp_PARM_2,#_publicKey
   0024 75*10s44           2366 	mov	(_montModExp_PARM_2 + 1),#(_publicKey >> 8)
   0027 75*11 00           2367 	mov	(_montModExp_PARM_2 + 2),#0x00
   002A 90s43r00           2368 	mov	dptr,#_message
   002D 75 F0 00           2369 	mov	b,#0x00
   0030 12s01rE5           2370 	lcall	_montModExp
                           2371 ;	main.c:74: for (i = 0; i < SIZE; i++)
   0033 7A 00              2372 	mov	r2,#0x00
   0035                    2373 00105$:
   0035 BA 80 00           2374 	cjne	r2,#0x80,00126$
   0038                    2375 00126$:
   0038 50 13              2376 	jnc	00108$
                           2377 ;	main.c:75: encryptedMessage[i] = sR[i];
   003A 8A 03              2378 	mov	ar3,r2
   003C 7C 50              2379 	mov	r4,#(_encryptedMessage >> 8)
   003E 8A 82              2380 	mov	dpl,r2
   0040 75 83 30           2381 	mov	dph,#(_sR >> 8)
   0043 E0                 2382 	movx	a,@dptr
   0044 FD                 2383 	mov	r5,a
   0045 8B 82              2384 	mov	dpl,r3
   0047 8C 83              2385 	mov	dph,r4
   0049 F0                 2386 	movx	@dptr,a
                           2387 ;	main.c:74: for (i = 0; i < SIZE; i++)
   004A 0A                 2388 	inc	r2
   004B 80 E8              2389 	sjmp	00105$
   004D                    2390 00108$:
                           2391 ;	main.c:76: montModExp(encryptedMessage, privateKey);
   004D 75*0Fr00           2392 	mov	_montModExp_PARM_2,#_privateKey
   0050 75*10s45           2393 	mov	(_montModExp_PARM_2 + 1),#(_privateKey >> 8)
   0053 75*11 00           2394 	mov	(_montModExp_PARM_2 + 2),#0x00
   0056 90 50 00           2395 	mov	dptr,#_encryptedMessage
   0059 75 F0 00           2396 	mov	b,#0x00
   005C 12s01rE5           2397 	lcall	_montModExp
                           2398 ;	main.c:77: for (i = 0; i < SIZE; i++)
   005F 7A 00              2399 	mov	r2,#0x00
   0061                    2400 00109$:
   0061 BA 80 00           2401 	cjne	r2,#0x80,00128$
   0064                    2402 00128$:
   0064 50 13              2403 	jnc	00112$
                           2404 ;	main.c:78: decryptedMessage[i] = sR[i];
   0066 8A 03              2405 	mov	ar3,r2
   0068 7C 51              2406 	mov	r4,#(_decryptedMessage >> 8)
   006A 8A 82              2407 	mov	dpl,r2
   006C 75 83 30           2408 	mov	dph,#(_sR >> 8)
   006F E0                 2409 	movx	a,@dptr
   0070 FD                 2410 	mov	r5,a
   0071 8B 82              2411 	mov	dpl,r3
   0073 8C 83              2412 	mov	dph,r4
   0075 F0                 2413 	movx	@dptr,a
                           2414 ;	main.c:77: for (i = 0; i < SIZE; i++)
   0076 0A                 2415 	inc	r2
   0077 80 E8              2416 	sjmp	00109$
   0079                    2417 00112$:
                           2418 ;	main.c:80: _terminate();
   0079 12s04r3B           2419 	lcall	__terminate
                           2420 ;	main.c:81: return 0;
   007C 90 00 00           2421 	mov	dptr,#0x0000
   007F 22                 2422 	ret
                           2423 ;------------------------------------------------------------
                           2424 ;Allocation info for local variables in function 'montMultiply'
                           2425 ;------------------------------------------------------------
                           2426 ;a                         Allocated with name '_montMultiply_PARM_2'
                           2427 ;b                         Allocated with name '_montMultiply_PARM_3'
                           2428 ;r                         Allocated with name '_montMultiply_r_1_1'
                           2429 ;i                         Allocated to registers r5 
                           2430 ;------------------------------------------------------------
                           2431 ;	main.c:84: void montMultiply(unsigned char *r, unsigned char *a, unsigned char *b, bool readResult) {
                           2432 ;	-----------------------------------------
                           2433 ;	 function montMultiply
                           2434 ;	-----------------------------------------
   0080                    2435 _montMultiply:
   0080 85 82*06           2436 	mov	_montMultiply_r_1_1,dpl
   0083 85 83*07           2437 	mov	(_montMultiply_r_1_1 + 1),dph
   0086 85 F0*08           2438 	mov	(_montMultiply_r_1_1 + 2),b
                           2439 ;	main.c:87: for (i = 0; i < SIZE; i++)
   0089 7D 00              2440 	mov	r5,#0x00
   008B                    2441 00105$:
   008B BD 80 00           2442 	cjne	r5,#0x80,00130$
   008E                    2443 00130$:
   008E 50 20              2444 	jnc	00108$
                           2445 ;	main.c:88: sA[i] = a[i];
   0090 8D 06              2446 	mov	ar6,r5
   0092 7F 20              2447 	mov	r7,#(_sA >> 8)
   0094 ED                 2448 	mov	a,r5
   0095 25*00              2449 	add	a,_montMultiply_PARM_2
   0097 F8                 2450 	mov	r0,a
   0098 E4                 2451 	clr	a
   0099 35*01              2452 	addc	a,(_montMultiply_PARM_2 + 1)
   009B F9                 2453 	mov	r1,a
   009C AA*02              2454 	mov	r2,(_montMultiply_PARM_2 + 2)
   009E 88 82              2455 	mov	dpl,r0
   00A0 89 83              2456 	mov	dph,r1
   00A2 8A F0              2457 	mov	b,r2
   00A4 12s00r00           2458 	lcall	__gptrget
   00A7 F8                 2459 	mov	r0,a
   00A8 8E 82              2460 	mov	dpl,r6
   00AA 8F 83              2461 	mov	dph,r7
   00AC F0                 2462 	movx	@dptr,a
                           2463 ;	main.c:87: for (i = 0; i < SIZE; i++)
   00AD 0D                 2464 	inc	r5
   00AE 80 DB              2465 	sjmp	00105$
   00B0                    2466 00108$:
                           2467 ;	main.c:89: for (i = 0; i < SIZE; i++)
   00B0 7A 00              2468 	mov	r2,#0x00
   00B2                    2469 00109$:
   00B2 BA 80 00           2470 	cjne	r2,#0x80,00132$
   00B5                    2471 00132$:
   00B5 50 24              2472 	jnc	00112$
                           2473 ;	main.c:90: sB[i] = b[i];
   00B7 EA                 2474 	mov	a,r2
   00B8 24 81              2475 	add	a,#_sB
   00BA FB                 2476 	mov	r3,a
   00BB E4                 2477 	clr	a
   00BC 34 20              2478 	addc	a,#(_sB >> 8)
   00BE FC                 2479 	mov	r4,a
   00BF EA                 2480 	mov	a,r2
   00C0 25*03              2481 	add	a,_montMultiply_PARM_3
   00C2 FD                 2482 	mov	r5,a
   00C3 E4                 2483 	clr	a
   00C4 35*04              2484 	addc	a,(_montMultiply_PARM_3 + 1)
   00C6 FE                 2485 	mov	r6,a
   00C7 AF*05              2486 	mov	r7,(_montMultiply_PARM_3 + 2)
   00C9 8D 82              2487 	mov	dpl,r5
   00CB 8E 83              2488 	mov	dph,r6
   00CD 8F F0              2489 	mov	b,r7
   00CF 12s00r00           2490 	lcall	__gptrget
   00D2 FD                 2491 	mov	r5,a
   00D3 8B 82              2492 	mov	dpl,r3
   00D5 8C 83              2493 	mov	dph,r4
   00D7 F0                 2494 	movx	@dptr,a
                           2495 ;	main.c:89: for (i = 0; i < SIZE; i++)
   00D8 0A                 2496 	inc	r2
   00D9 80 D7              2497 	sjmp	00109$
   00DB                    2498 00112$:
                           2499 ;	main.c:92: _mul1_writeAll();
   00DB 12s03rE9           2500 	lcall	__mul1_writeAll
                           2501 ;	main.c:93: _mul1_montgomery();
   00DE 12s04r34           2502 	lcall	__mul1_montgomery
                           2503 ;	main.c:95: if (readResult) {
   00E1 30*00 36           2504 	jnb	_montMultiply_PARM_4,00117$
                           2505 ;	main.c:96: _mul1_readResult();
   00E4 12s04r12           2506 	lcall	__mul1_readResult
                           2507 ;	main.c:97: if (r != sR)
   00E7 74 00              2508 	mov	a,#_sR
   00E9 B5*06 0A           2509 	cjne	a,_montMultiply_r_1_1,00135$
   00EC 74 30              2510 	mov	a,#(_sR >> 8)
   00EE B5*07 05           2511 	cjne	a,(_montMultiply_r_1_1 + 1),00135$
   00F1 E4                 2512 	clr	a
   00F2 B5*08 01           2513 	cjne	a,(_montMultiply_r_1_1 + 2),00135$
   00F5 22                 2514 	ret
   00F6                    2515 00135$:
                           2516 ;	main.c:98: for (i = 0; i < SIZE; i++)
   00F6 7A 00              2517 	mov	r2,#0x00
   00F8                    2518 00113$:
   00F8 BA 80 00           2519 	cjne	r2,#0x80,00136$
   00FB                    2520 00136$:
   00FB 50 1D              2521 	jnc	00117$
                           2522 ;	main.c:99: r[i] = sR[i];
   00FD EA                 2523 	mov	a,r2
   00FE 25*06              2524 	add	a,_montMultiply_r_1_1
   0100 FB                 2525 	mov	r3,a
   0101 E4                 2526 	clr	a
   0102 35*07              2527 	addc	a,(_montMultiply_r_1_1 + 1)
   0104 FC                 2528 	mov	r4,a
   0105 AD*08              2529 	mov	r5,(_montMultiply_r_1_1 + 2)
   0107 8A 82              2530 	mov	dpl,r2
   0109 75 83 30           2531 	mov	dph,#(_sR >> 8)
   010C E0                 2532 	movx	a,@dptr
   010D FE                 2533 	mov	r6,a
   010E 8B 82              2534 	mov	dpl,r3
   0110 8C 83              2535 	mov	dph,r4
   0112 8D F0              2536 	mov	b,r5
   0114 12s00r00           2537 	lcall	__gptrput
                           2538 ;	main.c:98: for (i = 0; i < SIZE; i++)
   0117 0A                 2539 	inc	r2
   0118 80 DE              2540 	sjmp	00113$
   011A                    2541 00117$:
   011A 22                 2542 	ret
                           2543 ;------------------------------------------------------------
                           2544 ;Allocation info for local variables in function 'montMultiply_One'
                           2545 ;------------------------------------------------------------
                           2546 ;a                         Allocated with name '_montMultiply_One_PARM_2'
                           2547 ;r                         Allocated with name '_montMultiply_One_r_1_1'
                           2548 ;i                         Allocated to registers r5 
                           2549 ;------------------------------------------------------------
                           2550 ;	main.c:103: void montMultiply_One(unsigned char *r, unsigned char *a, bool readResult) {
                           2551 ;	-----------------------------------------
                           2552 ;	 function montMultiply_One
                           2553 ;	-----------------------------------------
   011B                    2554 _montMultiply_One:
   011B 85 82*0C           2555 	mov	_montMultiply_One_r_1_1,dpl
   011E 85 83*0D           2556 	mov	(_montMultiply_One_r_1_1 + 1),dph
   0121 85 F0*0E           2557 	mov	(_montMultiply_One_r_1_1 + 2),b
                           2558 ;	main.c:106: for (i = 0; i < SIZE; i++)
   0124 7D 00              2559 	mov	r5,#0x00
   0126                    2560 00105$:
   0126 BD 80 00           2561 	cjne	r5,#0x80,00123$
   0129                    2562 00123$:
   0129 50 20              2563 	jnc	00108$
                           2564 ;	main.c:107: sA[i] = a[i];
   012B 8D 06              2565 	mov	ar6,r5
   012D 7F 20              2566 	mov	r7,#(_sA >> 8)
   012F ED                 2567 	mov	a,r5
   0130 25*09              2568 	add	a,_montMultiply_One_PARM_2
   0132 F8                 2569 	mov	r0,a
   0133 E4                 2570 	clr	a
   0134 35*0A              2571 	addc	a,(_montMultiply_One_PARM_2 + 1)
   0136 F9                 2572 	mov	r1,a
   0137 AA*0B              2573 	mov	r2,(_montMultiply_One_PARM_2 + 2)
   0139 88 82              2574 	mov	dpl,r0
   013B 89 83              2575 	mov	dph,r1
   013D 8A F0              2576 	mov	b,r2
   013F 12s00r00           2577 	lcall	__gptrget
   0142 F8                 2578 	mov	r0,a
   0143 8E 82              2579 	mov	dpl,r6
   0145 8F 83              2580 	mov	dph,r7
   0147 F0                 2581 	movx	@dptr,a
                           2582 ;	main.c:106: for (i = 0; i < SIZE; i++)
   0148 0D                 2583 	inc	r5
   0149 80 DB              2584 	sjmp	00105$
   014B                    2585 00108$:
                           2586 ;	main.c:109: _mul1_writeOne();
   014B 12s03rFA           2587 	lcall	__mul1_writeOne
                           2588 ;	main.c:110: _mul1_montgomery();
   014E 12s04r34           2589 	lcall	__mul1_montgomery
                           2590 ;	main.c:112: if (readResult) {
   0151 30*01 36           2591 	jnb	_montMultiply_One_PARM_3,00113$
                           2592 ;	main.c:113: _mul1_readResult();
   0154 12s04r12           2593 	lcall	__mul1_readResult
                           2594 ;	main.c:114: if (r != sR)
   0157 74 00              2595 	mov	a,#_sR
   0159 B5*0C 0A           2596 	cjne	a,_montMultiply_One_r_1_1,00126$
   015C 74 30              2597 	mov	a,#(_sR >> 8)
   015E B5*0D 05           2598 	cjne	a,(_montMultiply_One_r_1_1 + 1),00126$
   0161 E4                 2599 	clr	a
   0162 B5*0E 01           2600 	cjne	a,(_montMultiply_One_r_1_1 + 2),00126$
   0165 22                 2601 	ret
   0166                    2602 00126$:
                           2603 ;	main.c:115: for (i = 0; i < SIZE; i++)
   0166 7A 00              2604 	mov	r2,#0x00
   0168                    2605 00109$:
   0168 BA 80 00           2606 	cjne	r2,#0x80,00127$
   016B                    2607 00127$:
   016B 50 1D              2608 	jnc	00113$
                           2609 ;	main.c:116: r[i] = sR[i];
   016D EA                 2610 	mov	a,r2
   016E 25*0C              2611 	add	a,_montMultiply_One_r_1_1
   0170 FB                 2612 	mov	r3,a
   0171 E4                 2613 	clr	a
   0172 35*0D              2614 	addc	a,(_montMultiply_One_r_1_1 + 1)
   0174 FC                 2615 	mov	r4,a
   0175 AD*0E              2616 	mov	r5,(_montMultiply_One_r_1_1 + 2)
   0177 8A 82              2617 	mov	dpl,r2
   0179 75 83 30           2618 	mov	dph,#(_sR >> 8)
   017C E0                 2619 	movx	a,@dptr
   017D FE                 2620 	mov	r6,a
   017E 8B 82              2621 	mov	dpl,r3
   0180 8C 83              2622 	mov	dph,r4
   0182 8D F0              2623 	mov	b,r5
   0184 12s00r00           2624 	lcall	__gptrput
                           2625 ;	main.c:115: for (i = 0; i < SIZE; i++)
   0187 0A                 2626 	inc	r2
   0188 80 DE              2627 	sjmp	00109$
   018A                    2628 00113$:
   018A 22                 2629 	ret
                           2630 ;------------------------------------------------------------
                           2631 ;Allocation info for local variables in function 'montMultiply_Result'
                           2632 ;------------------------------------------------------------
                           2633 ;r                         Allocated to registers r2 r3 r4 
                           2634 ;i                         Allocated to registers r5 
                           2635 ;------------------------------------------------------------
                           2636 ;	main.c:120: void montMultiply_Result(unsigned char *r, bool readResult) {
                           2637 ;	-----------------------------------------
                           2638 ;	 function montMultiply_Result
                           2639 ;	-----------------------------------------
   018B                    2640 _montMultiply_Result:
   018B AA 82              2641 	mov	r2,dpl
   018D AB 83              2642 	mov	r3,dph
   018F AC F0              2643 	mov	r4,b
                           2644 ;	main.c:123: _mul1_writeReg();
   0191 C0 02              2645 	push	ar2
   0193 C0 03              2646 	push	ar3
   0195 C0 04              2647 	push	ar4
   0197 12s04r0B           2648 	lcall	__mul1_writeReg
                           2649 ;	main.c:124: _mul1_montgomery();
   019A 12s04r34           2650 	lcall	__mul1_montgomery
   019D D0 04              2651 	pop	ar4
   019F D0 03              2652 	pop	ar3
   01A1 D0 02              2653 	pop	ar2
                           2654 ;	main.c:126: if (readResult) {
   01A3 30*02 3E           2655 	jnb	_montMultiply_Result_PARM_2,00109$
                           2656 ;	main.c:127: _mul1_readResult();
   01A6 C0 02              2657 	push	ar2
   01A8 C0 03              2658 	push	ar3
   01AA C0 04              2659 	push	ar4
   01AC 12s04r12           2660 	lcall	__mul1_readResult
   01AF D0 04              2661 	pop	ar4
   01B1 D0 03              2662 	pop	ar3
   01B3 D0 02              2663 	pop	ar2
                           2664 ;	main.c:128: if (r != sR)
   01B5 EA                 2665 	mov	a,r2
   01B6 B4 00 09           2666 	cjne	a,#_sR,00117$
   01B9 EB                 2667 	mov	a,r3
   01BA B4 30 05           2668 	cjne	a,#(_sR >> 8),00117$
   01BD EC                 2669 	mov	a,r4
   01BE B4 00 01           2670 	cjne	a,#0x00,00117$
   01C1 22                 2671 	ret
   01C2                    2672 00117$:
                           2673 ;	main.c:129: for (i = 0; i < SIZE; i++)
   01C2 7D 00              2674 	mov	r5,#0x00
   01C4                    2675 00105$:
   01C4 BD 80 00           2676 	cjne	r5,#0x80,00118$
   01C7                    2677 00118$:
   01C7 50 1B              2678 	jnc	00109$
                           2679 ;	main.c:130: r[i] = sR[i];
   01C9 ED                 2680 	mov	a,r5
   01CA 2A                 2681 	add	a,r2
   01CB FE                 2682 	mov	r6,a
   01CC E4                 2683 	clr	a
   01CD 3B                 2684 	addc	a,r3
   01CE FF                 2685 	mov	r7,a
   01CF 8C 00              2686 	mov	ar0,r4
   01D1 8D 82              2687 	mov	dpl,r5
   01D3 75 83 30           2688 	mov	dph,#(_sR >> 8)
   01D6 E0                 2689 	movx	a,@dptr
   01D7 F9                 2690 	mov	r1,a
   01D8 8E 82              2691 	mov	dpl,r6
   01DA 8F 83              2692 	mov	dph,r7
   01DC 88 F0              2693 	mov	b,r0
   01DE 12s00r00           2694 	lcall	__gptrput
                           2695 ;	main.c:129: for (i = 0; i < SIZE; i++)
   01E1 0D                 2696 	inc	r5
   01E2 80 E0              2697 	sjmp	00105$
   01E4                    2698 00109$:
   01E4 22                 2699 	ret
                           2700 ;------------------------------------------------------------
                           2701 ;Allocation info for local variables in function 'montModExp'
                           2702 ;------------------------------------------------------------
                           2703 ;e                         Allocated with name '_montModExp_PARM_2'
                           2704 ;x                         Allocated to registers r2 r3 r4 
                           2705 ;i                         Allocated to registers r2 r3 
                           2706 ;t                         Allocated with name '_montModExp_t_1_1'
                           2707 ;one                       Allocated with name '_montModExp_one_1_1'
                           2708 ;xTilde                    Allocated with name '_montModExp_xTilde_1_1'
                           2709 ;------------------------------------------------------------
                           2710 ;	main.c:134: void montModExp(unsigned char *x, unsigned char *e) {
                           2711 ;	-----------------------------------------
                           2712 ;	 function montModExp
                           2713 ;	-----------------------------------------
   01E5                    2714 _montModExp:
   01E5 AA 82              2715 	mov	r2,dpl
   01E7 AB 83              2716 	mov	r3,dph
   01E9 AC F0              2717 	mov	r4,b
                           2718 ;	main.c:141: *one = 0x01;
   01EB 90 11 00           2719 	mov	dptr,#_montModExp_one_1_1
   01EE 74 01              2720 	mov	a,#0x01
   01F0 F0                 2721 	movx	@dptr,a
                           2722 ;	main.c:143: t = _findFirstOne(e);
   01F1 85*0F 82           2723 	mov	dpl,_montModExp_PARM_2
   01F4 85*10 83           2724 	mov	dph,(_montModExp_PARM_2 + 1)
   01F7 85*11 F0           2725 	mov	b,(_montModExp_PARM_2 + 2)
   01FA C0 02              2726 	push	ar2
   01FC C0 03              2727 	push	ar3
   01FE C0 04              2728 	push	ar4
   0200 12s03r33           2729 	lcall	__findFirstOne
   0203 85 82*12           2730 	mov	_montModExp_t_1_1,dpl
   0206 85 83*13           2731 	mov	(_montModExp_t_1_1 + 1),dph
   0209 D0 04              2732 	pop	ar4
   020B D0 03              2733 	pop	ar3
   020D D0 02              2734 	pop	ar2
                           2735 ;	main.c:145: montMultiply(xTilde, x, r2modm, true);
   020F 75*03r00           2736 	mov	_montMultiply_PARM_3,#_r2modm
   0212 75*04s41           2737 	mov	(_montMultiply_PARM_3 + 1),#(_r2modm >> 8)
   0215 75*05 00           2738 	mov	(_montMultiply_PARM_3 + 2),#0x00
   0218 8A*00              2739 	mov	_montMultiply_PARM_2,r2
   021A 8B*01              2740 	mov	(_montMultiply_PARM_2 + 1),r3
   021C 8C*02              2741 	mov	(_montMultiply_PARM_2 + 2),r4
   021E D2*00              2742 	setb	_montMultiply_PARM_4
   0220 90 12 00           2743 	mov	dptr,#_montModExp_xTilde_1_1
   0223 75 F0 00           2744 	mov	b,#0x00
   0226 12s00r80           2745 	lcall	_montMultiply
                           2746 ;	main.c:147: for (i = 0; i < SIZE; i++)
   0229 7A 00              2747 	mov	r2,#0x00
   022B 7B 00              2748 	mov	r3,#0x00
   022D                    2749 00105$:
   022D C3                 2750 	clr	c
   022E EA                 2751 	mov	a,r2
   022F 94 80              2752 	subb	a,#0x80
   0231 EB                 2753 	mov	a,r3
   0232 94 00              2754 	subb	a,#0x00
   0234 50 1B              2755 	jnc	00108$
                           2756 ;	main.c:148: sR[i] = rmodm[i];
   0236 8A 04              2757 	mov	ar4,r2
   0238 74 30              2758 	mov	a,#(_sR >> 8)
   023A 2B                 2759 	add	a,r3
   023B FF                 2760 	mov	r7,a
   023C 8A 82              2761 	mov	dpl,r2
   023E 74s40              2762 	mov	a,#(_rmodm >> 8)
   0240 2B                 2763 	add	a,r3
   0241 F5 83              2764 	mov	dph,a
   0243 E0                 2765 	movx	a,@dptr
   0244 F8                 2766 	mov	r0,a
   0245 8C 82              2767 	mov	dpl,r4
   0247 8F 83              2768 	mov	dph,r7
   0249 F0                 2769 	movx	@dptr,a
                           2770 ;	main.c:147: for (i = 0; i < SIZE; i++)
   024A 0A                 2771 	inc	r2
   024B BA 00 DF           2772 	cjne	r2,#0x00,00105$
   024E 0B                 2773 	inc	r3
   024F 80 DC              2774 	sjmp	00105$
   0251                    2775 00108$:
                           2776 ;	main.c:149: _mul1_writeResult();
   0251 12s04r23           2777 	lcall	__mul1_writeResult
                           2778 ;	main.c:151: for (i = 0; i <= t; i++) {
   0254 7A 00              2779 	mov	r2,#0x00
   0256 7B 00              2780 	mov	r3,#0x00
   0258                    2781 00109$:
   0258 C3                 2782 	clr	c
   0259 E5*12              2783 	mov	a,_montModExp_t_1_1
   025B 9A                 2784 	subb	a,r2
   025C E5*13              2785 	mov	a,(_montModExp_t_1_1 + 1)
   025E 9B                 2786 	subb	a,r3
   025F 50 03              2787 	jnc	00124$
   0261 02s03r1F           2788 	ljmp	00112$
   0264                    2789 00124$:
                           2790 ;	main.c:152: if (i != 0)
   0264 EA                 2791 	mov	a,r2
   0265 4B                 2792 	orl	a,r3
   0266 60 52              2793 	jz	00102$
                           2794 ;	main.c:153: montMultiply_Result(sR, ((e[(t-i)/8] >> (t-i)%8)) & 1);
   0268 E5*12              2795 	mov	a,_montModExp_t_1_1
   026A C3                 2796 	clr	c
   026B 9A                 2797 	subb	a,r2
   026C FC                 2798 	mov	r4,a
   026D E5*13              2799 	mov	a,(_montModExp_t_1_1 + 1)
   026F 9B                 2800 	subb	a,r3
   0270 8C 00              2801 	mov	ar0,r4
   0272 C4                 2802 	swap	a
   0273 23                 2803 	rl	a
   0274 C8                 2804 	xch	a,r0
   0275 C4                 2805 	swap	a
   0276 23                 2806 	rl	a
   0277 54 1F              2807 	anl	a,#0x1f
   0279 68                 2808 	xrl	a,r0
   027A C8                 2809 	xch	a,r0
   027B 54 1F              2810 	anl	a,#0x1f
   027D C8                 2811 	xch	a,r0
   027E 68                 2812 	xrl	a,r0
   027F C8                 2813 	xch	a,r0
   0280 F9                 2814 	mov	r1,a
   0281 E8                 2815 	mov	a,r0
   0282 25*0F              2816 	add	a,_montModExp_PARM_2
   0284 F8                 2817 	mov	r0,a
   0285 E9                 2818 	mov	a,r1
   0286 35*10              2819 	addc	a,(_montModExp_PARM_2 + 1)
   0288 F9                 2820 	mov	r1,a
   0289 AD*11              2821 	mov	r5,(_montModExp_PARM_2 + 2)
   028B 88 82              2822 	mov	dpl,r0
   028D 89 83              2823 	mov	dph,r1
   028F 8D F0              2824 	mov	b,r5
   0291 12s00r00           2825 	lcall	__gptrget
   0294 F8                 2826 	mov	r0,a
   0295 53 04 07           2827 	anl	ar4,#0x07
   0298 7F 00              2828 	mov	r7,#0x00
   029A 8C F0              2829 	mov	b,r4
   029C 05 F0              2830 	inc	b
   029E E8                 2831 	mov	a,r0
   029F 80 02              2832 	sjmp	00127$
   02A1                    2833 00126$:
   02A1 C3                 2834 	clr	c
   02A2 13                 2835 	rrc	a
   02A3                    2836 00127$:
   02A3 D5 F0 FB           2837 	djnz	b,00126$
   02A6 13                 2838 	rrc	a
   02A7 92*02              2839 	mov	_montMultiply_Result_PARM_2,c
   02A9 90 30 00           2840 	mov	dptr,#_sR
   02AC 75 F0 00           2841 	mov	b,#0x00
   02AF C0 02              2842 	push	ar2
   02B1 C0 03              2843 	push	ar3
   02B3 12s01r8B           2844 	lcall	_montMultiply_Result
   02B6 D0 03              2845 	pop	ar3
   02B8 D0 02              2846 	pop	ar2
   02BA                    2847 00102$:
                           2848 ;	main.c:154: if (((e[(t-i)/8] >> (t-i)%8)) & 1)
   02BA E5*12              2849 	mov	a,_montModExp_t_1_1
   02BC C3                 2850 	clr	c
   02BD 9A                 2851 	subb	a,r2
   02BE FC                 2852 	mov	r4,a
   02BF E5*13              2853 	mov	a,(_montModExp_t_1_1 + 1)
   02C1 9B                 2854 	subb	a,r3
   02C2 8C 06              2855 	mov	ar6,r4
   02C4 C4                 2856 	swap	a
   02C5 23                 2857 	rl	a
   02C6 CE                 2858 	xch	a,r6
   02C7 C4                 2859 	swap	a
   02C8 23                 2860 	rl	a
   02C9 54 1F              2861 	anl	a,#0x1f
   02CB 6E                 2862 	xrl	a,r6
   02CC CE                 2863 	xch	a,r6
   02CD 54 1F              2864 	anl	a,#0x1f
   02CF CE                 2865 	xch	a,r6
   02D0 6E                 2866 	xrl	a,r6
   02D1 CE                 2867 	xch	a,r6
   02D2 FF                 2868 	mov	r7,a
   02D3 EE                 2869 	mov	a,r6
   02D4 25*0F              2870 	add	a,_montModExp_PARM_2
   02D6 FE                 2871 	mov	r6,a
   02D7 EF                 2872 	mov	a,r7
   02D8 35*10              2873 	addc	a,(_montModExp_PARM_2 + 1)
   02DA FF                 2874 	mov	r7,a
   02DB A8*11              2875 	mov	r0,(_montModExp_PARM_2 + 2)
   02DD 8E 82              2876 	mov	dpl,r6
   02DF 8F 83              2877 	mov	dph,r7
   02E1 88 F0              2878 	mov	b,r0
   02E3 12s00r00           2879 	lcall	__gptrget
   02E6 FE                 2880 	mov	r6,a
   02E7 53 04 07           2881 	anl	ar4,#0x07
   02EA 7D 00              2882 	mov	r5,#0x00
   02EC 8C F0              2883 	mov	b,r4
   02EE 05 F0              2884 	inc	b
   02F0 EE                 2885 	mov	a,r6
   02F1 80 02              2886 	sjmp	00129$
   02F3                    2887 00128$:
   02F3 C3                 2888 	clr	c
   02F4 13                 2889 	rrc	a
   02F5                    2890 00129$:
   02F5 D5 F0 FB           2891 	djnz	b,00128$
   02F8 30 E0 1C           2892 	jnb	acc.0,00111$
                           2893 ;	main.c:155: montMultiply_One(sR, xTilde, false);
   02FB 75*09 00           2894 	mov	_montMultiply_One_PARM_2,#_montModExp_xTilde_1_1
   02FE 75*0A 12           2895 	mov	(_montMultiply_One_PARM_2 + 1),#(_montModExp_xTilde_1_1 >> 8)
   0301 75*0B 00           2896 	mov	(_montMultiply_One_PARM_2 + 2),#0x00
   0304 C2*01              2897 	clr	_montMultiply_One_PARM_3
   0306 90 30 00           2898 	mov	dptr,#_sR
   0309 75 F0 00           2899 	mov	b,#0x00
   030C C0 02              2900 	push	ar2
   030E C0 03              2901 	push	ar3
   0310 12s01r1B           2902 	lcall	_montMultiply_One
   0313 D0 03              2903 	pop	ar3
   0315 D0 02              2904 	pop	ar2
   0317                    2905 00111$:
                           2906 ;	main.c:151: for (i = 0; i <= t; i++) {
   0317 0A                 2907 	inc	r2
   0318 BA 00 01           2908 	cjne	r2,#0x00,00131$
   031B 0B                 2909 	inc	r3
   031C                    2910 00131$:
   031C 02s02r58           2911 	ljmp	00109$
   031F                    2912 00112$:
                           2913 ;	main.c:158: montMultiply_One(sR, one, true);
   031F 75*09 00           2914 	mov	_montMultiply_One_PARM_2,#_montModExp_one_1_1
   0322 75*0A 11           2915 	mov	(_montMultiply_One_PARM_2 + 1),#(_montModExp_one_1_1 >> 8)
   0325 75*0B 00           2916 	mov	(_montMultiply_One_PARM_2 + 2),#0x00
   0328 D2*01              2917 	setb	_montMultiply_One_PARM_3
   032A 90 30 00           2918 	mov	dptr,#_sR
   032D 75 F0 00           2919 	mov	b,#0x00
   0330 02s01r1B           2920 	ljmp	_montMultiply_One
                           2921 ;------------------------------------------------------------
                           2922 ;Allocation info for local variables in function '_findFirstOne'
                           2923 ;------------------------------------------------------------
                           2924 ;e                         Allocated with name '__findFirstOne_e_1_1'
                           2925 ;i                         Allocated with name '__findFirstOne_i_1_1'
                           2926 ;j                         Allocated to registers r6 
                           2927 ;------------------------------------------------------------
                           2928 ;	main.c:162: unsigned short _findFirstOne(unsigned char *e) {
                           2929 ;	-----------------------------------------
                           2930 ;	 function _findFirstOne
                           2931 ;	-----------------------------------------
   0333                    2932 __findFirstOne:
   0333 85 82*00           2933 	mov	__findFirstOne_e_1_1,dpl
   0336 85 83*01           2934 	mov	(__findFirstOne_e_1_1 + 1),dph
   0339 85 F0*02           2935 	mov	(__findFirstOne_e_1_1 + 2),b
                           2936 ;	main.c:166: for (i = 0; i < SIZE; i++) {
   033C 75*03 00           2937 	mov	__findFirstOne_i_1_1,#0x00
   033F                    2938 00109$:
   033F 74 80              2939 	mov	a,#0x100 - 0x80
   0341 25*03              2940 	add	a,__findFirstOne_i_1_1
   0343 50 03              2941 	jnc	00121$
   0345 02s03rDE           2942 	ljmp	00112$
   0348                    2943 00121$:
                           2944 ;	main.c:167: if (e[(SIZE-1)-i] != 0) {
   0348 AE*03              2945 	mov	r6,__findFirstOne_i_1_1
   034A 7F 00              2946 	mov	r7,#0x00
   034C 74 7F              2947 	mov	a,#0x7F
   034E C3                 2948 	clr	c
   034F 9E                 2949 	subb	a,r6
   0350 FE                 2950 	mov	r6,a
   0351 E4                 2951 	clr	a
   0352 9F                 2952 	subb	a,r7
   0353 FF                 2953 	mov	r7,a
   0354 EE                 2954 	mov	a,r6
   0355 25*00              2955 	add	a,__findFirstOne_e_1_1
   0357 FE                 2956 	mov	r6,a
   0358 EF                 2957 	mov	a,r7
   0359 35*01              2958 	addc	a,(__findFirstOne_e_1_1 + 1)
   035B FF                 2959 	mov	r7,a
   035C A8*02              2960 	mov	r0,(__findFirstOne_e_1_1 + 2)
   035E 8E 82              2961 	mov	dpl,r6
   0360 8F 83              2962 	mov	dph,r7
   0362 88 F0              2963 	mov	b,r0
   0364 12s00r00           2964 	lcall	__gptrget
   0367 70 03              2965 	jnz	00122$
   0369 02s03rD9           2966 	ljmp	00111$
   036C                    2967 00122$:
                           2968 ;	main.c:168: for (j = 0; j < 8; j++) {
   036C 7E 00              2969 	mov	r6,#0x00
   036E                    2970 00105$:
   036E BE 08 00           2971 	cjne	r6,#0x08,00123$
   0371                    2972 00123$:
   0371 50 66              2973 	jnc	00111$
                           2974 ;	main.c:169: if (e[(SIZE-1)-i] >> (7-j) & 1)
   0373 AF*03              2975 	mov	r7,__findFirstOne_i_1_1
   0375 78 00              2976 	mov	r0,#0x00
   0377 74 7F              2977 	mov	a,#0x7F
   0379 C3                 2978 	clr	c
   037A 9F                 2979 	subb	a,r7
   037B F9                 2980 	mov	r1,a
   037C E4                 2981 	clr	a
   037D 98                 2982 	subb	a,r0
   037E FA                 2983 	mov	r2,a
   037F E9                 2984 	mov	a,r1
   0380 25*00              2985 	add	a,__findFirstOne_e_1_1
   0382 F9                 2986 	mov	r1,a
   0383 EA                 2987 	mov	a,r2
   0384 35*01              2988 	addc	a,(__findFirstOne_e_1_1 + 1)
   0386 FA                 2989 	mov	r2,a
   0387 AB*02              2990 	mov	r3,(__findFirstOne_e_1_1 + 2)
   0389 89 82              2991 	mov	dpl,r1
   038B 8A 83              2992 	mov	dph,r2
   038D 8B F0              2993 	mov	b,r3
   038F 12s00r00           2994 	lcall	__gptrget
   0392 F9                 2995 	mov	r1,a
   0393 8E 02              2996 	mov	ar2,r6
   0395 7B 00              2997 	mov	r3,#0x00
   0397 74 07              2998 	mov	a,#0x07
   0399 C3                 2999 	clr	c
   039A 9A                 3000 	subb	a,r2
   039B FC                 3001 	mov	r4,a
   039C E4                 3002 	clr	a
   039D 9B                 3003 	subb	a,r3
   039E FD                 3004 	mov	r5,a
   039F 8C F0              3005 	mov	b,r4
   03A1 05 F0              3006 	inc	b
   03A3 E9                 3007 	mov	a,r1
   03A4 80 02              3008 	sjmp	00126$
   03A6                    3009 00125$:
   03A6 C3                 3010 	clr	c
   03A7 13                 3011 	rrc	a
   03A8                    3012 00126$:
   03A8 D5 F0 FB           3013 	djnz	b,00125$
   03AB 30 E0 27           3014 	jnb	acc.0,00107$
                           3015 ;	main.c:170: return 8*((SIZE-1)-i) + (7-j);
   03AE 74 7F              3016 	mov	a,#0x7F
   03B0 C3                 3017 	clr	c
   03B1 9F                 3018 	subb	a,r7
   03B2 FF                 3019 	mov	r7,a
   03B3 E4                 3020 	clr	a
   03B4 98                 3021 	subb	a,r0
   03B5 C4                 3022 	swap	a
   03B6 03                 3023 	rr	a
   03B7 54 F8              3024 	anl	a,#0xf8
   03B9 CF                 3025 	xch	a,r7
   03BA C4                 3026 	swap	a
   03BB 03                 3027 	rr	a
   03BC CF                 3028 	xch	a,r7
   03BD 6F                 3029 	xrl	a,r7
   03BE CF                 3030 	xch	a,r7
   03BF 54 F8              3031 	anl	a,#0xf8
   03C1 CF                 3032 	xch	a,r7
   03C2 6F                 3033 	xrl	a,r7
   03C3 F8                 3034 	mov	r0,a
   03C4 74 07              3035 	mov	a,#0x07
   03C6 C3                 3036 	clr	c
   03C7 9A                 3037 	subb	a,r2
   03C8 FA                 3038 	mov	r2,a
   03C9 E4                 3039 	clr	a
   03CA 9B                 3040 	subb	a,r3
   03CB FB                 3041 	mov	r3,a
   03CC EA                 3042 	mov	a,r2
   03CD 2F                 3043 	add	a,r7
   03CE F5 82              3044 	mov	dpl,a
   03D0 EB                 3045 	mov	a,r3
   03D1 38                 3046 	addc	a,r0
   03D2 F5 83              3047 	mov	dph,a
   03D4 22                 3048 	ret
   03D5                    3049 00107$:
                           3050 ;	main.c:168: for (j = 0; j < 8; j++) {
   03D5 0E                 3051 	inc	r6
   03D6 02s03r6E           3052 	ljmp	00105$
   03D9                    3053 00111$:
                           3054 ;	main.c:166: for (i = 0; i < SIZE; i++) {
   03D9 05*03              3055 	inc	__findFirstOne_i_1_1
   03DB 02s03r3F           3056 	ljmp	00109$
   03DE                    3057 00112$:
                           3058 ;	main.c:175: return 0;
   03DE 90 00 00           3059 	mov	dptr,#0x0000
   03E1 22                 3060 	ret
                           3061 ;------------------------------------------------------------
                           3062 ;Allocation info for local variables in function '_displayCycles'
                           3063 ;------------------------------------------------------------
                           3064 ;------------------------------------------------------------
                           3065 ;	main.c:178: void _displayCycles() {
                           3066 ;	-----------------------------------------
                           3067 ;	 function _displayCycles
                           3068 ;	-----------------------------------------
   03E2                    3069 __displayCycles:
                           3070 ;	main.c:179: P0 = INS_DISPLAY_CYCLES;
   03E2 75 80 01           3071 	mov	_P0,#0x01
                           3072 ;	main.c:180: P0 = INS_IDLE;
   03E5 75 80 00           3073 	mov	_P0,#0x00
   03E8 22                 3074 	ret
                           3075 ;------------------------------------------------------------
                           3076 ;Allocation info for local variables in function '_mul1_writeAll'
                           3077 ;------------------------------------------------------------
                           3078 ;------------------------------------------------------------
                           3079 ;	main.c:183: void _mul1_writeAll() {
                           3080 ;	-----------------------------------------
                           3081 ;	 function _mul1_writeAll
                           3082 ;	-----------------------------------------
   03E9                    3083 __mul1_writeAll:
                           3084 ;	main.c:184: P1 = 0;
   03E9 75 90 00           3085 	mov	_P1,#0x00
                           3086 ;	main.c:186: P0 = INS_MUL1_WRITE_ALL;
   03EC 75 80 10           3087 	mov	_P0,#0x10
                           3088 ;	main.c:187: P0 = INS_IDLE;
   03EF 75 80 00           3089 	mov	_P0,#0x00
                           3090 ;	main.c:189: while (P1 == 0) {}
   03F2                    3091 00101$:
   03F2 E5 90              3092 	mov	a,_P1
   03F4 60 FC              3093 	jz	00101$
                           3094 ;	main.c:190: P0 = INS_ACK;
   03F6 75 80 0F           3095 	mov	_P0,#0x0F
   03F9 22                 3096 	ret
                           3097 ;------------------------------------------------------------
                           3098 ;Allocation info for local variables in function '_mul1_writeOne'
                           3099 ;------------------------------------------------------------
                           3100 ;------------------------------------------------------------
                           3101 ;	main.c:193: void _mul1_writeOne() {
                           3102 ;	-----------------------------------------
                           3103 ;	 function _mul1_writeOne
                           3104 ;	-----------------------------------------
   03FA                    3105 __mul1_writeOne:
                           3106 ;	main.c:194: P1 = 0;
   03FA 75 90 00           3107 	mov	_P1,#0x00
                           3108 ;	main.c:196: P0 = INS_MUL1_WRITE_ONE;
   03FD 75 80 11           3109 	mov	_P0,#0x11
                           3110 ;	main.c:197: P0 = INS_IDLE;
   0400 75 80 00           3111 	mov	_P0,#0x00
                           3112 ;	main.c:199: while (P1 == 0) {}
   0403                    3113 00101$:
   0403 E5 90              3114 	mov	a,_P1
   0405 60 FC              3115 	jz	00101$
                           3116 ;	main.c:200: P0 = INS_ACK;
   0407 75 80 0F           3117 	mov	_P0,#0x0F
   040A 22                 3118 	ret
                           3119 ;------------------------------------------------------------
                           3120 ;Allocation info for local variables in function '_mul1_writeReg'
                           3121 ;------------------------------------------------------------
                           3122 ;------------------------------------------------------------
                           3123 ;	main.c:203: void _mul1_writeReg() {
                           3124 ;	-----------------------------------------
                           3125 ;	 function _mul1_writeReg
                           3126 ;	-----------------------------------------
   040B                    3127 __mul1_writeReg:
                           3128 ;	main.c:204: P0 = INS_MUL1_WRITE_REG;
   040B 75 80 12           3129 	mov	_P0,#0x12
                           3130 ;	main.c:205: P0 = INS_IDLE;
   040E 75 80 00           3131 	mov	_P0,#0x00
   0411 22                 3132 	ret
                           3133 ;------------------------------------------------------------
                           3134 ;Allocation info for local variables in function '_mul1_readResult'
                           3135 ;------------------------------------------------------------
                           3136 ;------------------------------------------------------------
                           3137 ;	main.c:208: void _mul1_readResult() {
                           3138 ;	-----------------------------------------
                           3139 ;	 function _mul1_readResult
                           3140 ;	-----------------------------------------
   0412                    3141 __mul1_readResult:
                           3142 ;	main.c:209: P1 = 0;
   0412 75 90 00           3143 	mov	_P1,#0x00
                           3144 ;	main.c:211: P0 = INS_MUL1_READ_RESULT;
   0415 75 80 13           3145 	mov	_P0,#0x13
                           3146 ;	main.c:212: while (P1 == 0) {}
   0418                    3147 00101$:
   0418 E5 90              3148 	mov	a,_P1
   041A 60 FC              3149 	jz	00101$
                           3150 ;	main.c:213: P0 = INS_ACK;
   041C 75 80 0F           3151 	mov	_P0,#0x0F
                           3152 ;	main.c:215: P0 = INS_IDLE;
   041F 75 80 00           3153 	mov	_P0,#0x00
   0422 22                 3154 	ret
                           3155 ;------------------------------------------------------------
                           3156 ;Allocation info for local variables in function '_mul1_writeResult'
                           3157 ;------------------------------------------------------------
                           3158 ;------------------------------------------------------------
                           3159 ;	main.c:218: void _mul1_writeResult() {
                           3160 ;	-----------------------------------------
                           3161 ;	 function _mul1_writeResult
                           3162 ;	-----------------------------------------
   0423                    3163 __mul1_writeResult:
                           3164 ;	main.c:219: P1 = 0;
   0423 75 90 00           3165 	mov	_P1,#0x00
                           3166 ;	main.c:221: P0 = INS_MUL1_WRITE_RESULT;
   0426 75 80 14           3167 	mov	_P0,#0x14
                           3168 ;	main.c:222: P0 = INS_IDLE;
   0429 75 80 00           3169 	mov	_P0,#0x00
                           3170 ;	main.c:224: while (P1 == 0) {}
   042C                    3171 00101$:
   042C E5 90              3172 	mov	a,_P1
   042E 60 FC              3173 	jz	00101$
                           3174 ;	main.c:225: P0 = INS_ACK;
   0430 75 80 0F           3175 	mov	_P0,#0x0F
   0433 22                 3176 	ret
                           3177 ;------------------------------------------------------------
                           3178 ;Allocation info for local variables in function '_mul1_montgomery'
                           3179 ;------------------------------------------------------------
                           3180 ;------------------------------------------------------------
                           3181 ;	main.c:228: void _mul1_montgomery() {
                           3182 ;	-----------------------------------------
                           3183 ;	 function _mul1_montgomery
                           3184 ;	-----------------------------------------
   0434                    3185 __mul1_montgomery:
                           3186 ;	main.c:229: P0 = INS_MUL1_MONTGOMERY;
   0434 75 80 15           3187 	mov	_P0,#0x15
                           3188 ;	main.c:230: P0 = INS_IDLE;
   0437 75 80 00           3189 	mov	_P0,#0x00
   043A 22                 3190 	ret
                           3191 ;------------------------------------------------------------
                           3192 ;Allocation info for local variables in function '_terminate'
                           3193 ;------------------------------------------------------------
                           3194 ;------------------------------------------------------------
                           3195 ;	main.c:233: void _terminate() {
                           3196 ;	-----------------------------------------
                           3197 ;	 function _terminate
                           3198 ;	-----------------------------------------
   043B                    3199 __terminate:
                           3200 ;	main.c:234: P3 = 0x55;
   043B 75 B0 55           3201 	mov	_P3,#0x55
   043E 22                 3202 	ret
                           3203 	.area CSEG    (CODE)
                           3204 	.area CONST   (CODE)
                           3205 	.area XINIT   (CODE)
                           3206 	.area CABS    (ABS,CODE)
