                              1 ;--------------------------------------------------------
                              2 ; File Created by SDCC : free open source ANSI-C Compiler
                              3 ; Version 2.9.0 #5416 (Aug  6 2010) (UNIX)
                              4 ; This file was generated Mon Nov  5 10:06:08 2012
                              5 ;--------------------------------------------------------
                              6 	.module main
                              7 	.optsdcc -mmcs51 --model-small
                              8 	
                              9 ;--------------------------------------------------------
                             10 ; Public variables in this module
                             11 ;--------------------------------------------------------
                             12 	.globl _add_PARM_2
                             13 	.globl _main
                             14 	.globl _CY
                             15 	.globl _AC
                             16 	.globl _F0
                             17 	.globl _RS1
                             18 	.globl _RS0
                             19 	.globl _OV
                             20 	.globl _F1
                             21 	.globl _P
                             22 	.globl _PS
                             23 	.globl _PT1
                             24 	.globl _PX1
                             25 	.globl _PT0
                             26 	.globl _PX0
                             27 	.globl _RD
                             28 	.globl _WR
                             29 	.globl _T1
                             30 	.globl _T0
                             31 	.globl _INT1
                             32 	.globl _INT0
                             33 	.globl _TXD
                             34 	.globl _RXD
                             35 	.globl _P3_7
                             36 	.globl _P3_6
                             37 	.globl _P3_5
                             38 	.globl _P3_4
                             39 	.globl _P3_3
                             40 	.globl _P3_2
                             41 	.globl _P3_1
                             42 	.globl _P3_0
                             43 	.globl _EA
                             44 	.globl _ES
                             45 	.globl _ET1
                             46 	.globl _EX1
                             47 	.globl _ET0
                             48 	.globl _EX0
                             49 	.globl _P2_7
                             50 	.globl _P2_6
                             51 	.globl _P2_5
                             52 	.globl _P2_4
                             53 	.globl _P2_3
                             54 	.globl _P2_2
                             55 	.globl _P2_1
                             56 	.globl _P2_0
                             57 	.globl _SM0
                             58 	.globl _SM1
                             59 	.globl _SM2
                             60 	.globl _REN
                             61 	.globl _TB8
                             62 	.globl _RB8
                             63 	.globl _TI
                             64 	.globl _RI
                             65 	.globl _P1_7
                             66 	.globl _P1_6
                             67 	.globl _P1_5
                             68 	.globl _P1_4
                             69 	.globl _P1_3
                             70 	.globl _P1_2
                             71 	.globl _P1_1
                             72 	.globl _P1_0
                             73 	.globl _TF1
                             74 	.globl _TR1
                             75 	.globl _TF0
                             76 	.globl _TR0
                             77 	.globl _IE1
                             78 	.globl _IT1
                             79 	.globl _IE0
                             80 	.globl _IT0
                             81 	.globl _P0_7
                             82 	.globl _P0_6
                             83 	.globl _P0_5
                             84 	.globl _P0_4
                             85 	.globl _P0_3
                             86 	.globl _P0_2
                             87 	.globl _P0_1
                             88 	.globl _P0_0
                             89 	.globl _B
                             90 	.globl _ACC
                             91 	.globl _PSW
                             92 	.globl _IP
                             93 	.globl _P3
                             94 	.globl _IE
                             95 	.globl _P2
                             96 	.globl _SBUF
                             97 	.globl _SCON
                             98 	.globl _P1
                             99 	.globl _TH1
                            100 	.globl _TH0
                            101 	.globl _TL1
                            102 	.globl _TL0
                            103 	.globl _TMOD
                            104 	.globl _TCON
                            105 	.globl _PCON
                            106 	.globl _DPH
                            107 	.globl _DPL
                            108 	.globl _SP
                            109 	.globl _P0
                            110 	.globl _endBrk
                            111 	.globl _startBrk
                            112 	.globl _fips_PARM_5
                            113 	.globl _fips_PARM_4
                            114 	.globl _fips_PARM_3
                            115 	.globl _fips_PARM_2
                            116 	.globl _fips
                            117 	.globl _add
                            118 ;--------------------------------------------------------
                            119 ; special function registers
                            120 ;--------------------------------------------------------
                            121 	.area RSEG    (DATA)
                    0080    122 _P0	=	0x0080
                    0081    123 _SP	=	0x0081
                    0082    124 _DPL	=	0x0082
                    0083    125 _DPH	=	0x0083
                    0087    126 _PCON	=	0x0087
                    0088    127 _TCON	=	0x0088
                    0089    128 _TMOD	=	0x0089
                    008A    129 _TL0	=	0x008a
                    008B    130 _TL1	=	0x008b
                    008C    131 _TH0	=	0x008c
                    008D    132 _TH1	=	0x008d
                    0090    133 _P1	=	0x0090
                    0098    134 _SCON	=	0x0098
                    0099    135 _SBUF	=	0x0099
                    00A0    136 _P2	=	0x00a0
                    00A8    137 _IE	=	0x00a8
                    00B0    138 _P3	=	0x00b0
                    00B8    139 _IP	=	0x00b8
                    00D0    140 _PSW	=	0x00d0
                    00E0    141 _ACC	=	0x00e0
                    00F0    142 _B	=	0x00f0
                            143 ;--------------------------------------------------------
                            144 ; special function bits
                            145 ;--------------------------------------------------------
                            146 	.area RSEG    (DATA)
                    0080    147 _P0_0	=	0x0080
                    0081    148 _P0_1	=	0x0081
                    0082    149 _P0_2	=	0x0082
                    0083    150 _P0_3	=	0x0083
                    0084    151 _P0_4	=	0x0084
                    0085    152 _P0_5	=	0x0085
                    0086    153 _P0_6	=	0x0086
                    0087    154 _P0_7	=	0x0087
                    0088    155 _IT0	=	0x0088
                    0089    156 _IE0	=	0x0089
                    008A    157 _IT1	=	0x008a
                    008B    158 _IE1	=	0x008b
                    008C    159 _TR0	=	0x008c
                    008D    160 _TF0	=	0x008d
                    008E    161 _TR1	=	0x008e
                    008F    162 _TF1	=	0x008f
                    0090    163 _P1_0	=	0x0090
                    0091    164 _P1_1	=	0x0091
                    0092    165 _P1_2	=	0x0092
                    0093    166 _P1_3	=	0x0093
                    0094    167 _P1_4	=	0x0094
                    0095    168 _P1_5	=	0x0095
                    0096    169 _P1_6	=	0x0096
                    0097    170 _P1_7	=	0x0097
                    0098    171 _RI	=	0x0098
                    0099    172 _TI	=	0x0099
                    009A    173 _RB8	=	0x009a
                    009B    174 _TB8	=	0x009b
                    009C    175 _REN	=	0x009c
                    009D    176 _SM2	=	0x009d
                    009E    177 _SM1	=	0x009e
                    009F    178 _SM0	=	0x009f
                    00A0    179 _P2_0	=	0x00a0
                    00A1    180 _P2_1	=	0x00a1
                    00A2    181 _P2_2	=	0x00a2
                    00A3    182 _P2_3	=	0x00a3
                    00A4    183 _P2_4	=	0x00a4
                    00A5    184 _P2_5	=	0x00a5
                    00A6    185 _P2_6	=	0x00a6
                    00A7    186 _P2_7	=	0x00a7
                    00A8    187 _EX0	=	0x00a8
                    00A9    188 _ET0	=	0x00a9
                    00AA    189 _EX1	=	0x00aa
                    00AB    190 _ET1	=	0x00ab
                    00AC    191 _ES	=	0x00ac
                    00AF    192 _EA	=	0x00af
                    00B0    193 _P3_0	=	0x00b0
                    00B1    194 _P3_1	=	0x00b1
                    00B2    195 _P3_2	=	0x00b2
                    00B3    196 _P3_3	=	0x00b3
                    00B4    197 _P3_4	=	0x00b4
                    00B5    198 _P3_5	=	0x00b5
                    00B6    199 _P3_6	=	0x00b6
                    00B7    200 _P3_7	=	0x00b7
                    00B0    201 _RXD	=	0x00b0
                    00B1    202 _TXD	=	0x00b1
                    00B2    203 _INT0	=	0x00b2
                    00B3    204 _INT1	=	0x00b3
                    00B4    205 _T0	=	0x00b4
                    00B5    206 _T1	=	0x00b5
                    00B6    207 _WR	=	0x00b6
                    00B7    208 _RD	=	0x00b7
                    00B8    209 _PX0	=	0x00b8
                    00B9    210 _PT0	=	0x00b9
                    00BA    211 _PX1	=	0x00ba
                    00BB    212 _PT1	=	0x00bb
                    00BC    213 _PS	=	0x00bc
                    00D0    214 _P	=	0x00d0
                    00D1    215 _F1	=	0x00d1
                    00D2    216 _OV	=	0x00d2
                    00D3    217 _RS0	=	0x00d3
                    00D4    218 _RS1	=	0x00d4
                    00D5    219 _F0	=	0x00d5
                    00D6    220 _AC	=	0x00d6
                    00D7    221 _CY	=	0x00d7
                            222 ;--------------------------------------------------------
                            223 ; overlayable register banks
                            224 ;--------------------------------------------------------
                            225 	.area REG_BANK_0	(REL,OVR,DATA)
   0000                     226 	.ds 8
                            227 ;--------------------------------------------------------
                            228 ; internal ram data
                            229 ;--------------------------------------------------------
                            230 	.area DSEG    (DATA)
   0008                     231 _fips_PARM_2:
   0008                     232 	.ds 3
   000B                     233 _fips_PARM_3:
   000B                     234 	.ds 3
   000E                     235 _fips_PARM_4:
   000E                     236 	.ds 1
   000F                     237 _fips_PARM_5:
   000F                     238 	.ds 3
   0012                     239 _fips_a_1_1:
   0012                     240 	.ds 3
   0015                     241 _fips_tmp_1_1:
   0015                     242 	.ds 2
   0017                     243 _fips_i_1_1:
   0017                     244 	.ds 2
   0019                     245 _fips_j_1_1:
   0019                     246 	.ds 2
   001B                     247 _fips_c_1_1:
   001B                     248 	.ds 1
   001C                     249 _fips_s_1_1:
   001C                     250 	.ds 1
   001D                     251 _fips_v_1_1:
   001D                     252 	.ds 1
   001E                     253 _fips_t_1_1:
   001E                     254 	.ds 3
   0021                     255 _fips_sloc0_1_0:
   0021                     256 	.ds 3
   0024                     257 _fips_sloc1_1_0:
   0024                     258 	.ds 3
   0027                     259 _fips_sloc2_1_0:
   0027                     260 	.ds 1
   0028                     261 _fips_sloc3_1_0:
   0028                     262 	.ds 2
   002A                     263 _fips_sloc4_1_0:
   002A                     264 	.ds 3
   002D                     265 _fips_sloc5_1_0:
   002D                     266 	.ds 2
                            267 ;--------------------------------------------------------
                            268 ; overlayable items in internal ram 
                            269 ;--------------------------------------------------------
                            270 	.area	OSEG    (OVR,DATA)
   002F                     271 _add_PARM_2::
   002F                     272 	.ds 1
   0030                     273 _add_t_1_1::
   0030                     274 	.ds 3
                            275 ;--------------------------------------------------------
                            276 ; Stack segment in internal ram 
                            277 ;--------------------------------------------------------
                            278 	.area	SSEG	(DATA)
   0033                     279 __start__stack:
   0033                     280 	.ds	1
                            281 
                            282 ;--------------------------------------------------------
                            283 ; indirectly addressable internal ram data
                            284 ;--------------------------------------------------------
                            285 	.area ISEG    (DATA)
                            286 ;--------------------------------------------------------
                            287 ; absolute internal ram data
                            288 ;--------------------------------------------------------
                            289 	.area IABS    (ABS,DATA)
                            290 	.area IABS    (ABS,DATA)
                            291 ;--------------------------------------------------------
                            292 ; bit data
                            293 ;--------------------------------------------------------
                            294 	.area BSEG    (BIT)
                            295 ;--------------------------------------------------------
                            296 ; paged external ram data
                            297 ;--------------------------------------------------------
                            298 	.area PSEG    (PAG,XDATA)
                            299 ;--------------------------------------------------------
                            300 ; external ram data
                            301 ;--------------------------------------------------------
                            302 	.area XSEG    (XDATA)
                    FFFE    303 _startBrk	=	0xfffe
                    FFFF    304 _endBrk	=	0xffff
                    0200    305 _main_m_1_1	=	0x0200
                    0300    306 _fips_result_1_1	=	0x0300
                            307 ;--------------------------------------------------------
                            308 ; absolute external ram data
                            309 ;--------------------------------------------------------
                            310 	.area XABS    (ABS,XDATA)
                    0000    311 _main_n_1_1	=	0x0000
                    0080    312 _main_a_1_1	=	0x0080
                    0100    313 _main_b_1_1	=	0x0100
                    0180    314 _main_n_prime_1_1	=	0x0180
                            315 ;--------------------------------------------------------
                            316 ; external initialized ram data
                            317 ;--------------------------------------------------------
                            318 	.area XISEG   (XDATA)
                            319 	.area HOME    (CODE)
                            320 	.area GSINIT0 (CODE)
                            321 	.area GSINIT1 (CODE)
                            322 	.area GSINIT2 (CODE)
                            323 	.area GSINIT3 (CODE)
                            324 	.area GSINIT4 (CODE)
                            325 	.area GSINIT5 (CODE)
                            326 	.area GSINIT  (CODE)
                            327 	.area GSFINAL (CODE)
                            328 	.area CSEG    (CODE)
                            329 ;--------------------------------------------------------
                            330 ; interrupt vector 
                            331 ;--------------------------------------------------------
                            332 	.area HOME    (CODE)
   0000                     333 __interrupt_vect:
   0000 02 00 08            334 	ljmp	__sdcc_gsinit_startup
                            335 ;--------------------------------------------------------
                            336 ; global & static initialisations
                            337 ;--------------------------------------------------------
                            338 	.area HOME    (CODE)
                            339 	.area GSINIT  (CODE)
                            340 	.area GSFINAL (CODE)
                            341 	.area GSINIT  (CODE)
                            342 	.globl __sdcc_gsinit_startup
                            343 	.globl __sdcc_program_startup
                            344 	.globl __start__stack
                            345 	.globl __mcs51_genXINIT
                            346 	.globl __mcs51_genXRAMCLEAR
                            347 	.globl __mcs51_genRAMCLEAR
                            348 	.area GSFINAL (CODE)
   0061 02 00 03            349 	ljmp	__sdcc_program_startup
                            350 ;--------------------------------------------------------
                            351 ; Home
                            352 ;--------------------------------------------------------
                            353 	.area HOME    (CODE)
                            354 	.area HOME    (CODE)
   0003                     355 __sdcc_program_startup:
   0003 12 00 64            356 	lcall	_main
                            357 ;	return from main will lock up
   0006 80 FE               358 	sjmp .
                            359 ;--------------------------------------------------------
                            360 ; code
                            361 ;--------------------------------------------------------
                            362 	.area CSEG    (CODE)
                            363 ;------------------------------------------------------------
                            364 ;Allocation info for local variables in function 'main'
                            365 ;------------------------------------------------------------
                            366 ;m                         Allocated with name '_main_m_1_1'
                            367 ;------------------------------------------------------------
                            368 ;	main.c:13: int main() {
                            369 ;	-----------------------------------------
                            370 ;	 function main
                            371 ;	-----------------------------------------
   0064                     372 _main:
                    0002    373 	ar2 = 0x02
                    0003    374 	ar3 = 0x03
                    0004    375 	ar4 = 0x04
                    0005    376 	ar5 = 0x05
                    0006    377 	ar6 = 0x06
                    0007    378 	ar7 = 0x07
                    0000    379 	ar0 = 0x00
                    0001    380 	ar1 = 0x01
                            381 ;	main.c:14: __xdata __at (0x0000) unsigned char n[SIZE] = {0xD3,0x55,0xA4,0x5F,0x57,0xF3,0xF9,0x3E,0xCF,0x84,0x6D,0xFF,0x20,0xC1,0xAE,0x12,0xCF,0xF1,0x00,0x66,0x45,0xE2,0x34,0x61,0x27,0xF2,0x57,0xB3,0x42,0x21,0x80,0x95,0xAB,0x15,0xA2,0x1D,0x53,0xB2,0x27,0xE6,0x56,0x93,0x27,0xAF,0xC2,0xEE,0x2B,0x2F,0x9A,0xAE,0x6A,0x09,0xE5,0x7F,0xAE,0x7D,0x2B,0xDD,0x58,0x2F,0x87,0x70,0x05,0x1F,0xF8,0xBD,0x0B,0xE0,0xFD,0xF1,0x81,0x60,0xBF,0xD2,0xFE,0x8F,0x7B,0xB9,0xA9,0xA4,0x6A,0x0A,0xA3,0xA3,0x70,0x22,0xBF,0x4C,0x1B,0xB0,0x41,0x24,0x4C,0x3A,0x08,0xEC,0xF4,0x91,0xFF,0x93,0x8D,0xFC,0xFA,0x4C,0x26,0x2D,0xD2,0xE9,0xFC,0x76,0xB1,0x67,0x5E,0x24,0x9E,0x31,0x66,0x5D,0x98,0x4C,0x0D,0x79,0x81,0x76,0xAC,0x1D,0xE2,0xCA};
   0064 90 00 00            382 	mov	dptr,#_main_n_1_1
   0067 74 D3               383 	mov	a,#0xD3
   0069 F0                  384 	movx	@dptr,a
   006A 90 00 01            385 	mov	dptr,#(_main_n_1_1 + 0x0001)
   006D 74 55               386 	mov	a,#0x55
   006F F0                  387 	movx	@dptr,a
   0070 90 00 02            388 	mov	dptr,#(_main_n_1_1 + 0x0002)
   0073 74 A4               389 	mov	a,#0xA4
   0075 F0                  390 	movx	@dptr,a
   0076 90 00 03            391 	mov	dptr,#(_main_n_1_1 + 0x0003)
   0079 74 5F               392 	mov	a,#0x5F
   007B F0                  393 	movx	@dptr,a
   007C 90 00 04            394 	mov	dptr,#(_main_n_1_1 + 0x0004)
   007F 74 57               395 	mov	a,#0x57
   0081 F0                  396 	movx	@dptr,a
   0082 90 00 05            397 	mov	dptr,#(_main_n_1_1 + 0x0005)
   0085 74 F3               398 	mov	a,#0xF3
   0087 F0                  399 	movx	@dptr,a
   0088 90 00 06            400 	mov	dptr,#(_main_n_1_1 + 0x0006)
   008B 74 F9               401 	mov	a,#0xF9
   008D F0                  402 	movx	@dptr,a
   008E 90 00 07            403 	mov	dptr,#(_main_n_1_1 + 0x0007)
   0091 74 3E               404 	mov	a,#0x3E
   0093 F0                  405 	movx	@dptr,a
   0094 90 00 08            406 	mov	dptr,#(_main_n_1_1 + 0x0008)
   0097 74 CF               407 	mov	a,#0xCF
   0099 F0                  408 	movx	@dptr,a
   009A 90 00 09            409 	mov	dptr,#(_main_n_1_1 + 0x0009)
   009D 74 84               410 	mov	a,#0x84
   009F F0                  411 	movx	@dptr,a
   00A0 90 00 0A            412 	mov	dptr,#(_main_n_1_1 + 0x000a)
   00A3 74 6D               413 	mov	a,#0x6D
   00A5 F0                  414 	movx	@dptr,a
   00A6 90 00 0B            415 	mov	dptr,#(_main_n_1_1 + 0x000b)
   00A9 74 FF               416 	mov	a,#0xFF
   00AB F0                  417 	movx	@dptr,a
   00AC 90 00 0C            418 	mov	dptr,#(_main_n_1_1 + 0x000c)
   00AF 74 20               419 	mov	a,#0x20
   00B1 F0                  420 	movx	@dptr,a
   00B2 90 00 0D            421 	mov	dptr,#(_main_n_1_1 + 0x000d)
   00B5 74 C1               422 	mov	a,#0xC1
   00B7 F0                  423 	movx	@dptr,a
   00B8 90 00 0E            424 	mov	dptr,#(_main_n_1_1 + 0x000e)
   00BB 74 AE               425 	mov	a,#0xAE
   00BD F0                  426 	movx	@dptr,a
   00BE 90 00 0F            427 	mov	dptr,#(_main_n_1_1 + 0x000f)
   00C1 74 12               428 	mov	a,#0x12
   00C3 F0                  429 	movx	@dptr,a
   00C4 90 00 10            430 	mov	dptr,#(_main_n_1_1 + 0x0010)
   00C7 74 CF               431 	mov	a,#0xCF
   00C9 F0                  432 	movx	@dptr,a
   00CA 90 00 11            433 	mov	dptr,#(_main_n_1_1 + 0x0011)
   00CD 74 F1               434 	mov	a,#0xF1
   00CF F0                  435 	movx	@dptr,a
   00D0 90 00 12            436 	mov	dptr,#(_main_n_1_1 + 0x0012)
   00D3 E4                  437 	clr	a
   00D4 F0                  438 	movx	@dptr,a
   00D5 90 00 13            439 	mov	dptr,#(_main_n_1_1 + 0x0013)
   00D8 74 66               440 	mov	a,#0x66
   00DA F0                  441 	movx	@dptr,a
   00DB 90 00 14            442 	mov	dptr,#(_main_n_1_1 + 0x0014)
   00DE 74 45               443 	mov	a,#0x45
   00E0 F0                  444 	movx	@dptr,a
   00E1 90 00 15            445 	mov	dptr,#(_main_n_1_1 + 0x0015)
   00E4 74 E2               446 	mov	a,#0xE2
   00E6 F0                  447 	movx	@dptr,a
   00E7 90 00 16            448 	mov	dptr,#(_main_n_1_1 + 0x0016)
   00EA 74 34               449 	mov	a,#0x34
   00EC F0                  450 	movx	@dptr,a
   00ED 90 00 17            451 	mov	dptr,#(_main_n_1_1 + 0x0017)
   00F0 74 61               452 	mov	a,#0x61
   00F2 F0                  453 	movx	@dptr,a
   00F3 90 00 18            454 	mov	dptr,#(_main_n_1_1 + 0x0018)
   00F6 74 27               455 	mov	a,#0x27
   00F8 F0                  456 	movx	@dptr,a
   00F9 90 00 19            457 	mov	dptr,#(_main_n_1_1 + 0x0019)
   00FC 74 F2               458 	mov	a,#0xF2
   00FE F0                  459 	movx	@dptr,a
   00FF 90 00 1A            460 	mov	dptr,#(_main_n_1_1 + 0x001a)
   0102 74 57               461 	mov	a,#0x57
   0104 F0                  462 	movx	@dptr,a
   0105 90 00 1B            463 	mov	dptr,#(_main_n_1_1 + 0x001b)
   0108 74 B3               464 	mov	a,#0xB3
   010A F0                  465 	movx	@dptr,a
   010B 90 00 1C            466 	mov	dptr,#(_main_n_1_1 + 0x001c)
   010E 74 42               467 	mov	a,#0x42
   0110 F0                  468 	movx	@dptr,a
   0111 90 00 1D            469 	mov	dptr,#(_main_n_1_1 + 0x001d)
   0114 74 21               470 	mov	a,#0x21
   0116 F0                  471 	movx	@dptr,a
   0117 90 00 1E            472 	mov	dptr,#(_main_n_1_1 + 0x001e)
   011A 74 80               473 	mov	a,#0x80
   011C F0                  474 	movx	@dptr,a
   011D 90 00 1F            475 	mov	dptr,#(_main_n_1_1 + 0x001f)
   0120 74 95               476 	mov	a,#0x95
   0122 F0                  477 	movx	@dptr,a
   0123 90 00 20            478 	mov	dptr,#(_main_n_1_1 + 0x0020)
   0126 74 AB               479 	mov	a,#0xAB
   0128 F0                  480 	movx	@dptr,a
   0129 90 00 21            481 	mov	dptr,#(_main_n_1_1 + 0x0021)
   012C 74 15               482 	mov	a,#0x15
   012E F0                  483 	movx	@dptr,a
   012F 90 00 22            484 	mov	dptr,#(_main_n_1_1 + 0x0022)
   0132 74 A2               485 	mov	a,#0xA2
   0134 F0                  486 	movx	@dptr,a
   0135 90 00 23            487 	mov	dptr,#(_main_n_1_1 + 0x0023)
   0138 74 1D               488 	mov	a,#0x1D
   013A F0                  489 	movx	@dptr,a
   013B 90 00 24            490 	mov	dptr,#(_main_n_1_1 + 0x0024)
   013E 74 53               491 	mov	a,#0x53
   0140 F0                  492 	movx	@dptr,a
   0141 90 00 25            493 	mov	dptr,#(_main_n_1_1 + 0x0025)
   0144 74 B2               494 	mov	a,#0xB2
   0146 F0                  495 	movx	@dptr,a
   0147 90 00 26            496 	mov	dptr,#(_main_n_1_1 + 0x0026)
   014A 74 27               497 	mov	a,#0x27
   014C F0                  498 	movx	@dptr,a
   014D 90 00 27            499 	mov	dptr,#(_main_n_1_1 + 0x0027)
   0150 74 E6               500 	mov	a,#0xE6
   0152 F0                  501 	movx	@dptr,a
   0153 90 00 28            502 	mov	dptr,#(_main_n_1_1 + 0x0028)
   0156 74 56               503 	mov	a,#0x56
   0158 F0                  504 	movx	@dptr,a
   0159 90 00 29            505 	mov	dptr,#(_main_n_1_1 + 0x0029)
   015C 74 93               506 	mov	a,#0x93
   015E F0                  507 	movx	@dptr,a
   015F 90 00 2A            508 	mov	dptr,#(_main_n_1_1 + 0x002a)
   0162 74 27               509 	mov	a,#0x27
   0164 F0                  510 	movx	@dptr,a
   0165 90 00 2B            511 	mov	dptr,#(_main_n_1_1 + 0x002b)
   0168 74 AF               512 	mov	a,#0xAF
   016A F0                  513 	movx	@dptr,a
   016B 90 00 2C            514 	mov	dptr,#(_main_n_1_1 + 0x002c)
   016E 74 C2               515 	mov	a,#0xC2
   0170 F0                  516 	movx	@dptr,a
   0171 90 00 2D            517 	mov	dptr,#(_main_n_1_1 + 0x002d)
   0174 74 EE               518 	mov	a,#0xEE
   0176 F0                  519 	movx	@dptr,a
   0177 90 00 2E            520 	mov	dptr,#(_main_n_1_1 + 0x002e)
   017A 74 2B               521 	mov	a,#0x2B
   017C F0                  522 	movx	@dptr,a
   017D 90 00 2F            523 	mov	dptr,#(_main_n_1_1 + 0x002f)
   0180 74 2F               524 	mov	a,#0x2F
   0182 F0                  525 	movx	@dptr,a
   0183 90 00 30            526 	mov	dptr,#(_main_n_1_1 + 0x0030)
   0186 74 9A               527 	mov	a,#0x9A
   0188 F0                  528 	movx	@dptr,a
   0189 90 00 31            529 	mov	dptr,#(_main_n_1_1 + 0x0031)
   018C 74 AE               530 	mov	a,#0xAE
   018E F0                  531 	movx	@dptr,a
   018F 90 00 32            532 	mov	dptr,#(_main_n_1_1 + 0x0032)
   0192 74 6A               533 	mov	a,#0x6A
   0194 F0                  534 	movx	@dptr,a
   0195 90 00 33            535 	mov	dptr,#(_main_n_1_1 + 0x0033)
   0198 74 09               536 	mov	a,#0x09
   019A F0                  537 	movx	@dptr,a
   019B 90 00 34            538 	mov	dptr,#(_main_n_1_1 + 0x0034)
   019E 74 E5               539 	mov	a,#0xE5
   01A0 F0                  540 	movx	@dptr,a
   01A1 90 00 35            541 	mov	dptr,#(_main_n_1_1 + 0x0035)
   01A4 74 7F               542 	mov	a,#0x7F
   01A6 F0                  543 	movx	@dptr,a
   01A7 90 00 36            544 	mov	dptr,#(_main_n_1_1 + 0x0036)
   01AA 74 AE               545 	mov	a,#0xAE
   01AC F0                  546 	movx	@dptr,a
   01AD 90 00 37            547 	mov	dptr,#(_main_n_1_1 + 0x0037)
   01B0 74 7D               548 	mov	a,#0x7D
   01B2 F0                  549 	movx	@dptr,a
   01B3 90 00 38            550 	mov	dptr,#(_main_n_1_1 + 0x0038)
   01B6 74 2B               551 	mov	a,#0x2B
   01B8 F0                  552 	movx	@dptr,a
   01B9 90 00 39            553 	mov	dptr,#(_main_n_1_1 + 0x0039)
   01BC 74 DD               554 	mov	a,#0xDD
   01BE F0                  555 	movx	@dptr,a
   01BF 90 00 3A            556 	mov	dptr,#(_main_n_1_1 + 0x003a)
   01C2 74 58               557 	mov	a,#0x58
   01C4 F0                  558 	movx	@dptr,a
   01C5 90 00 3B            559 	mov	dptr,#(_main_n_1_1 + 0x003b)
   01C8 74 2F               560 	mov	a,#0x2F
   01CA F0                  561 	movx	@dptr,a
   01CB 90 00 3C            562 	mov	dptr,#(_main_n_1_1 + 0x003c)
   01CE 74 87               563 	mov	a,#0x87
   01D0 F0                  564 	movx	@dptr,a
   01D1 90 00 3D            565 	mov	dptr,#(_main_n_1_1 + 0x003d)
   01D4 74 70               566 	mov	a,#0x70
   01D6 F0                  567 	movx	@dptr,a
   01D7 90 00 3E            568 	mov	dptr,#(_main_n_1_1 + 0x003e)
   01DA 74 05               569 	mov	a,#0x05
   01DC F0                  570 	movx	@dptr,a
   01DD 90 00 3F            571 	mov	dptr,#(_main_n_1_1 + 0x003f)
   01E0 74 1F               572 	mov	a,#0x1F
   01E2 F0                  573 	movx	@dptr,a
   01E3 90 00 40            574 	mov	dptr,#(_main_n_1_1 + 0x0040)
   01E6 74 F8               575 	mov	a,#0xF8
   01E8 F0                  576 	movx	@dptr,a
   01E9 90 00 41            577 	mov	dptr,#(_main_n_1_1 + 0x0041)
   01EC 74 BD               578 	mov	a,#0xBD
   01EE F0                  579 	movx	@dptr,a
   01EF 90 00 42            580 	mov	dptr,#(_main_n_1_1 + 0x0042)
   01F2 74 0B               581 	mov	a,#0x0B
   01F4 F0                  582 	movx	@dptr,a
   01F5 90 00 43            583 	mov	dptr,#(_main_n_1_1 + 0x0043)
   01F8 74 E0               584 	mov	a,#0xE0
   01FA F0                  585 	movx	@dptr,a
   01FB 90 00 44            586 	mov	dptr,#(_main_n_1_1 + 0x0044)
   01FE 74 FD               587 	mov	a,#0xFD
   0200 F0                  588 	movx	@dptr,a
   0201 90 00 45            589 	mov	dptr,#(_main_n_1_1 + 0x0045)
   0204 74 F1               590 	mov	a,#0xF1
   0206 F0                  591 	movx	@dptr,a
   0207 90 00 46            592 	mov	dptr,#(_main_n_1_1 + 0x0046)
   020A 74 81               593 	mov	a,#0x81
   020C F0                  594 	movx	@dptr,a
   020D 90 00 47            595 	mov	dptr,#(_main_n_1_1 + 0x0047)
   0210 74 60               596 	mov	a,#0x60
   0212 F0                  597 	movx	@dptr,a
   0213 90 00 48            598 	mov	dptr,#(_main_n_1_1 + 0x0048)
   0216 74 BF               599 	mov	a,#0xBF
   0218 F0                  600 	movx	@dptr,a
   0219 90 00 49            601 	mov	dptr,#(_main_n_1_1 + 0x0049)
   021C 74 D2               602 	mov	a,#0xD2
   021E F0                  603 	movx	@dptr,a
   021F 90 00 4A            604 	mov	dptr,#(_main_n_1_1 + 0x004a)
   0222 74 FE               605 	mov	a,#0xFE
   0224 F0                  606 	movx	@dptr,a
   0225 90 00 4B            607 	mov	dptr,#(_main_n_1_1 + 0x004b)
   0228 74 8F               608 	mov	a,#0x8F
   022A F0                  609 	movx	@dptr,a
   022B 90 00 4C            610 	mov	dptr,#(_main_n_1_1 + 0x004c)
   022E 74 7B               611 	mov	a,#0x7B
   0230 F0                  612 	movx	@dptr,a
   0231 90 00 4D            613 	mov	dptr,#(_main_n_1_1 + 0x004d)
   0234 74 B9               614 	mov	a,#0xB9
   0236 F0                  615 	movx	@dptr,a
   0237 90 00 4E            616 	mov	dptr,#(_main_n_1_1 + 0x004e)
   023A 74 A9               617 	mov	a,#0xA9
   023C F0                  618 	movx	@dptr,a
   023D 90 00 4F            619 	mov	dptr,#(_main_n_1_1 + 0x004f)
   0240 74 A4               620 	mov	a,#0xA4
   0242 F0                  621 	movx	@dptr,a
   0243 90 00 50            622 	mov	dptr,#(_main_n_1_1 + 0x0050)
   0246 74 6A               623 	mov	a,#0x6A
   0248 F0                  624 	movx	@dptr,a
   0249 90 00 51            625 	mov	dptr,#(_main_n_1_1 + 0x0051)
   024C 74 0A               626 	mov	a,#0x0A
   024E F0                  627 	movx	@dptr,a
   024F 90 00 52            628 	mov	dptr,#(_main_n_1_1 + 0x0052)
   0252 74 A3               629 	mov	a,#0xA3
   0254 F0                  630 	movx	@dptr,a
   0255 90 00 53            631 	mov	dptr,#(_main_n_1_1 + 0x0053)
   0258 74 A3               632 	mov	a,#0xA3
   025A F0                  633 	movx	@dptr,a
   025B 90 00 54            634 	mov	dptr,#(_main_n_1_1 + 0x0054)
   025E 74 70               635 	mov	a,#0x70
   0260 F0                  636 	movx	@dptr,a
   0261 90 00 55            637 	mov	dptr,#(_main_n_1_1 + 0x0055)
   0264 74 22               638 	mov	a,#0x22
   0266 F0                  639 	movx	@dptr,a
   0267 90 00 56            640 	mov	dptr,#(_main_n_1_1 + 0x0056)
   026A 74 BF               641 	mov	a,#0xBF
   026C F0                  642 	movx	@dptr,a
   026D 90 00 57            643 	mov	dptr,#(_main_n_1_1 + 0x0057)
   0270 74 4C               644 	mov	a,#0x4C
   0272 F0                  645 	movx	@dptr,a
   0273 90 00 58            646 	mov	dptr,#(_main_n_1_1 + 0x0058)
   0276 74 1B               647 	mov	a,#0x1B
   0278 F0                  648 	movx	@dptr,a
   0279 90 00 59            649 	mov	dptr,#(_main_n_1_1 + 0x0059)
   027C 74 B0               650 	mov	a,#0xB0
   027E F0                  651 	movx	@dptr,a
   027F 90 00 5A            652 	mov	dptr,#(_main_n_1_1 + 0x005a)
   0282 74 41               653 	mov	a,#0x41
   0284 F0                  654 	movx	@dptr,a
   0285 90 00 5B            655 	mov	dptr,#(_main_n_1_1 + 0x005b)
   0288 74 24               656 	mov	a,#0x24
   028A F0                  657 	movx	@dptr,a
   028B 90 00 5C            658 	mov	dptr,#(_main_n_1_1 + 0x005c)
   028E 74 4C               659 	mov	a,#0x4C
   0290 F0                  660 	movx	@dptr,a
   0291 90 00 5D            661 	mov	dptr,#(_main_n_1_1 + 0x005d)
   0294 74 3A               662 	mov	a,#0x3A
   0296 F0                  663 	movx	@dptr,a
   0297 90 00 5E            664 	mov	dptr,#(_main_n_1_1 + 0x005e)
   029A 74 08               665 	mov	a,#0x08
   029C F0                  666 	movx	@dptr,a
   029D 90 00 5F            667 	mov	dptr,#(_main_n_1_1 + 0x005f)
   02A0 74 EC               668 	mov	a,#0xEC
   02A2 F0                  669 	movx	@dptr,a
   02A3 90 00 60            670 	mov	dptr,#(_main_n_1_1 + 0x0060)
   02A6 74 F4               671 	mov	a,#0xF4
   02A8 F0                  672 	movx	@dptr,a
   02A9 90 00 61            673 	mov	dptr,#(_main_n_1_1 + 0x0061)
   02AC 74 91               674 	mov	a,#0x91
   02AE F0                  675 	movx	@dptr,a
   02AF 90 00 62            676 	mov	dptr,#(_main_n_1_1 + 0x0062)
   02B2 74 FF               677 	mov	a,#0xFF
   02B4 F0                  678 	movx	@dptr,a
   02B5 90 00 63            679 	mov	dptr,#(_main_n_1_1 + 0x0063)
   02B8 74 93               680 	mov	a,#0x93
   02BA F0                  681 	movx	@dptr,a
   02BB 90 00 64            682 	mov	dptr,#(_main_n_1_1 + 0x0064)
   02BE 74 8D               683 	mov	a,#0x8D
   02C0 F0                  684 	movx	@dptr,a
   02C1 90 00 65            685 	mov	dptr,#(_main_n_1_1 + 0x0065)
   02C4 74 FC               686 	mov	a,#0xFC
   02C6 F0                  687 	movx	@dptr,a
   02C7 90 00 66            688 	mov	dptr,#(_main_n_1_1 + 0x0066)
   02CA 74 FA               689 	mov	a,#0xFA
   02CC F0                  690 	movx	@dptr,a
   02CD 90 00 67            691 	mov	dptr,#(_main_n_1_1 + 0x0067)
   02D0 74 4C               692 	mov	a,#0x4C
   02D2 F0                  693 	movx	@dptr,a
   02D3 90 00 68            694 	mov	dptr,#(_main_n_1_1 + 0x0068)
   02D6 74 26               695 	mov	a,#0x26
   02D8 F0                  696 	movx	@dptr,a
   02D9 90 00 69            697 	mov	dptr,#(_main_n_1_1 + 0x0069)
   02DC 74 2D               698 	mov	a,#0x2D
   02DE F0                  699 	movx	@dptr,a
   02DF 90 00 6A            700 	mov	dptr,#(_main_n_1_1 + 0x006a)
   02E2 74 D2               701 	mov	a,#0xD2
   02E4 F0                  702 	movx	@dptr,a
   02E5 90 00 6B            703 	mov	dptr,#(_main_n_1_1 + 0x006b)
   02E8 74 E9               704 	mov	a,#0xE9
   02EA F0                  705 	movx	@dptr,a
   02EB 90 00 6C            706 	mov	dptr,#(_main_n_1_1 + 0x006c)
   02EE 74 FC               707 	mov	a,#0xFC
   02F0 F0                  708 	movx	@dptr,a
   02F1 90 00 6D            709 	mov	dptr,#(_main_n_1_1 + 0x006d)
   02F4 74 76               710 	mov	a,#0x76
   02F6 F0                  711 	movx	@dptr,a
   02F7 90 00 6E            712 	mov	dptr,#(_main_n_1_1 + 0x006e)
   02FA 74 B1               713 	mov	a,#0xB1
   02FC F0                  714 	movx	@dptr,a
   02FD 90 00 6F            715 	mov	dptr,#(_main_n_1_1 + 0x006f)
   0300 74 67               716 	mov	a,#0x67
   0302 F0                  717 	movx	@dptr,a
   0303 90 00 70            718 	mov	dptr,#(_main_n_1_1 + 0x0070)
   0306 74 5E               719 	mov	a,#0x5E
   0308 F0                  720 	movx	@dptr,a
   0309 90 00 71            721 	mov	dptr,#(_main_n_1_1 + 0x0071)
   030C 74 24               722 	mov	a,#0x24
   030E F0                  723 	movx	@dptr,a
   030F 90 00 72            724 	mov	dptr,#(_main_n_1_1 + 0x0072)
   0312 74 9E               725 	mov	a,#0x9E
   0314 F0                  726 	movx	@dptr,a
   0315 90 00 73            727 	mov	dptr,#(_main_n_1_1 + 0x0073)
   0318 74 31               728 	mov	a,#0x31
   031A F0                  729 	movx	@dptr,a
   031B 90 00 74            730 	mov	dptr,#(_main_n_1_1 + 0x0074)
   031E 74 66               731 	mov	a,#0x66
   0320 F0                  732 	movx	@dptr,a
   0321 90 00 75            733 	mov	dptr,#(_main_n_1_1 + 0x0075)
   0324 74 5D               734 	mov	a,#0x5D
   0326 F0                  735 	movx	@dptr,a
   0327 90 00 76            736 	mov	dptr,#(_main_n_1_1 + 0x0076)
   032A 74 98               737 	mov	a,#0x98
   032C F0                  738 	movx	@dptr,a
   032D 90 00 77            739 	mov	dptr,#(_main_n_1_1 + 0x0077)
   0330 74 4C               740 	mov	a,#0x4C
   0332 F0                  741 	movx	@dptr,a
   0333 90 00 78            742 	mov	dptr,#(_main_n_1_1 + 0x0078)
   0336 74 0D               743 	mov	a,#0x0D
   0338 F0                  744 	movx	@dptr,a
   0339 90 00 79            745 	mov	dptr,#(_main_n_1_1 + 0x0079)
   033C 74 79               746 	mov	a,#0x79
   033E F0                  747 	movx	@dptr,a
   033F 90 00 7A            748 	mov	dptr,#(_main_n_1_1 + 0x007a)
   0342 74 81               749 	mov	a,#0x81
   0344 F0                  750 	movx	@dptr,a
   0345 90 00 7B            751 	mov	dptr,#(_main_n_1_1 + 0x007b)
   0348 74 76               752 	mov	a,#0x76
   034A F0                  753 	movx	@dptr,a
   034B 90 00 7C            754 	mov	dptr,#(_main_n_1_1 + 0x007c)
   034E 74 AC               755 	mov	a,#0xAC
   0350 F0                  756 	movx	@dptr,a
   0351 90 00 7D            757 	mov	dptr,#(_main_n_1_1 + 0x007d)
   0354 74 1D               758 	mov	a,#0x1D
   0356 F0                  759 	movx	@dptr,a
   0357 90 00 7E            760 	mov	dptr,#(_main_n_1_1 + 0x007e)
   035A 74 E2               761 	mov	a,#0xE2
   035C F0                  762 	movx	@dptr,a
   035D 90 00 7F            763 	mov	dptr,#(_main_n_1_1 + 0x007f)
   0360 74 CA               764 	mov	a,#0xCA
   0362 F0                  765 	movx	@dptr,a
                            766 ;	main.c:15: __xdata __at (0x0080) unsigned char a[SIZE] = {0xFF,0x7F,0x14,0x64,0x47,0x68,0xC2,0xB6,0x27,0x32,0x63,0x2C,0xB0,0xC3,0x95,0x13,0xC5,0x7E,0x17,0x22,0xF3,0x7C,0x2D,0xE8,0x13,0x47,0x5E,0x15,0x4E,0xEF,0x83,0x81,0xDF,0xC3,0x47,0xD3,0x60,0xBB,0x8B,0x3E,0xB6,0x35,0xB1,0x6E,0xD1,0xD5,0xDA,0x6F,0x28,0x16,0x2C,0x74,0x36,0xF9,0x04,0x79,0xF9,0x76,0xE2,0xCC,0xA4,0x82,0xA7,0xA4,0x68,0x4E,0x24,0xA6,0xC1,0x58,0x68,0x24,0x58,0xDC,0x14,0xF9,0xFF,0x4D,0xA1,0xEF,0x53,0xA3,0xC2,0x84,0x1B,0x81,0x16,0x6C,0xDD,0xE3,0xDB,0xA8,0x03,0x8F,0xF2,0x31,0xFD,0x94,0x5D,0x26,0x13,0xC6,0x68,0xB4,0x0D,0xCD,0xF1,0xB8,0x66,0x0D,0x5D,0x3B,0x2F,0xC4,0x4A,0xD1,0x0B,0x36,0xC6,0x10,0x1A,0x2F,0x72,0xD1,0xBB,0x15,0x29,0xCA};
   0363 90 00 80            767 	mov	dptr,#_main_a_1_1
   0366 74 FF               768 	mov	a,#0xFF
   0368 F0                  769 	movx	@dptr,a
   0369 90 00 81            770 	mov	dptr,#(_main_a_1_1 + 0x0001)
   036C 74 7F               771 	mov	a,#0x7F
   036E F0                  772 	movx	@dptr,a
   036F 90 00 82            773 	mov	dptr,#(_main_a_1_1 + 0x0002)
   0372 74 14               774 	mov	a,#0x14
   0374 F0                  775 	movx	@dptr,a
   0375 90 00 83            776 	mov	dptr,#(_main_a_1_1 + 0x0003)
   0378 74 64               777 	mov	a,#0x64
   037A F0                  778 	movx	@dptr,a
   037B 90 00 84            779 	mov	dptr,#(_main_a_1_1 + 0x0004)
   037E 74 47               780 	mov	a,#0x47
   0380 F0                  781 	movx	@dptr,a
   0381 90 00 85            782 	mov	dptr,#(_main_a_1_1 + 0x0005)
   0384 74 68               783 	mov	a,#0x68
   0386 F0                  784 	movx	@dptr,a
   0387 90 00 86            785 	mov	dptr,#(_main_a_1_1 + 0x0006)
   038A 74 C2               786 	mov	a,#0xC2
   038C F0                  787 	movx	@dptr,a
   038D 90 00 87            788 	mov	dptr,#(_main_a_1_1 + 0x0007)
   0390 74 B6               789 	mov	a,#0xB6
   0392 F0                  790 	movx	@dptr,a
   0393 90 00 88            791 	mov	dptr,#(_main_a_1_1 + 0x0008)
   0396 74 27               792 	mov	a,#0x27
   0398 F0                  793 	movx	@dptr,a
   0399 90 00 89            794 	mov	dptr,#(_main_a_1_1 + 0x0009)
   039C 74 32               795 	mov	a,#0x32
   039E F0                  796 	movx	@dptr,a
   039F 90 00 8A            797 	mov	dptr,#(_main_a_1_1 + 0x000a)
   03A2 74 63               798 	mov	a,#0x63
   03A4 F0                  799 	movx	@dptr,a
   03A5 90 00 8B            800 	mov	dptr,#(_main_a_1_1 + 0x000b)
   03A8 74 2C               801 	mov	a,#0x2C
   03AA F0                  802 	movx	@dptr,a
   03AB 90 00 8C            803 	mov	dptr,#(_main_a_1_1 + 0x000c)
   03AE 74 B0               804 	mov	a,#0xB0
   03B0 F0                  805 	movx	@dptr,a
   03B1 90 00 8D            806 	mov	dptr,#(_main_a_1_1 + 0x000d)
   03B4 74 C3               807 	mov	a,#0xC3
   03B6 F0                  808 	movx	@dptr,a
   03B7 90 00 8E            809 	mov	dptr,#(_main_a_1_1 + 0x000e)
   03BA 74 95               810 	mov	a,#0x95
   03BC F0                  811 	movx	@dptr,a
   03BD 90 00 8F            812 	mov	dptr,#(_main_a_1_1 + 0x000f)
   03C0 74 13               813 	mov	a,#0x13
   03C2 F0                  814 	movx	@dptr,a
   03C3 90 00 90            815 	mov	dptr,#(_main_a_1_1 + 0x0010)
   03C6 74 C5               816 	mov	a,#0xC5
   03C8 F0                  817 	movx	@dptr,a
   03C9 90 00 91            818 	mov	dptr,#(_main_a_1_1 + 0x0011)
   03CC 74 7E               819 	mov	a,#0x7E
   03CE F0                  820 	movx	@dptr,a
   03CF 90 00 92            821 	mov	dptr,#(_main_a_1_1 + 0x0012)
   03D2 74 17               822 	mov	a,#0x17
   03D4 F0                  823 	movx	@dptr,a
   03D5 90 00 93            824 	mov	dptr,#(_main_a_1_1 + 0x0013)
   03D8 74 22               825 	mov	a,#0x22
   03DA F0                  826 	movx	@dptr,a
   03DB 90 00 94            827 	mov	dptr,#(_main_a_1_1 + 0x0014)
   03DE 74 F3               828 	mov	a,#0xF3
   03E0 F0                  829 	movx	@dptr,a
   03E1 90 00 95            830 	mov	dptr,#(_main_a_1_1 + 0x0015)
   03E4 74 7C               831 	mov	a,#0x7C
   03E6 F0                  832 	movx	@dptr,a
   03E7 90 00 96            833 	mov	dptr,#(_main_a_1_1 + 0x0016)
   03EA 74 2D               834 	mov	a,#0x2D
   03EC F0                  835 	movx	@dptr,a
   03ED 90 00 97            836 	mov	dptr,#(_main_a_1_1 + 0x0017)
   03F0 74 E8               837 	mov	a,#0xE8
   03F2 F0                  838 	movx	@dptr,a
   03F3 90 00 98            839 	mov	dptr,#(_main_a_1_1 + 0x0018)
   03F6 74 13               840 	mov	a,#0x13
   03F8 F0                  841 	movx	@dptr,a
   03F9 90 00 99            842 	mov	dptr,#(_main_a_1_1 + 0x0019)
   03FC 74 47               843 	mov	a,#0x47
   03FE F0                  844 	movx	@dptr,a
   03FF 90 00 9A            845 	mov	dptr,#(_main_a_1_1 + 0x001a)
   0402 74 5E               846 	mov	a,#0x5E
   0404 F0                  847 	movx	@dptr,a
   0405 90 00 9B            848 	mov	dptr,#(_main_a_1_1 + 0x001b)
   0408 74 15               849 	mov	a,#0x15
   040A F0                  850 	movx	@dptr,a
   040B 90 00 9C            851 	mov	dptr,#(_main_a_1_1 + 0x001c)
   040E 74 4E               852 	mov	a,#0x4E
   0410 F0                  853 	movx	@dptr,a
   0411 90 00 9D            854 	mov	dptr,#(_main_a_1_1 + 0x001d)
   0414 74 EF               855 	mov	a,#0xEF
   0416 F0                  856 	movx	@dptr,a
   0417 90 00 9E            857 	mov	dptr,#(_main_a_1_1 + 0x001e)
   041A 74 83               858 	mov	a,#0x83
   041C F0                  859 	movx	@dptr,a
   041D 90 00 9F            860 	mov	dptr,#(_main_a_1_1 + 0x001f)
   0420 74 81               861 	mov	a,#0x81
   0422 F0                  862 	movx	@dptr,a
   0423 90 00 A0            863 	mov	dptr,#(_main_a_1_1 + 0x0020)
   0426 74 DF               864 	mov	a,#0xDF
   0428 F0                  865 	movx	@dptr,a
   0429 90 00 A1            866 	mov	dptr,#(_main_a_1_1 + 0x0021)
   042C 74 C3               867 	mov	a,#0xC3
   042E F0                  868 	movx	@dptr,a
   042F 90 00 A2            869 	mov	dptr,#(_main_a_1_1 + 0x0022)
   0432 74 47               870 	mov	a,#0x47
   0434 F0                  871 	movx	@dptr,a
   0435 90 00 A3            872 	mov	dptr,#(_main_a_1_1 + 0x0023)
   0438 74 D3               873 	mov	a,#0xD3
   043A F0                  874 	movx	@dptr,a
   043B 90 00 A4            875 	mov	dptr,#(_main_a_1_1 + 0x0024)
   043E 74 60               876 	mov	a,#0x60
   0440 F0                  877 	movx	@dptr,a
   0441 90 00 A5            878 	mov	dptr,#(_main_a_1_1 + 0x0025)
   0444 74 BB               879 	mov	a,#0xBB
   0446 F0                  880 	movx	@dptr,a
   0447 90 00 A6            881 	mov	dptr,#(_main_a_1_1 + 0x0026)
   044A 74 8B               882 	mov	a,#0x8B
   044C F0                  883 	movx	@dptr,a
   044D 90 00 A7            884 	mov	dptr,#(_main_a_1_1 + 0x0027)
   0450 74 3E               885 	mov	a,#0x3E
   0452 F0                  886 	movx	@dptr,a
   0453 90 00 A8            887 	mov	dptr,#(_main_a_1_1 + 0x0028)
   0456 74 B6               888 	mov	a,#0xB6
   0458 F0                  889 	movx	@dptr,a
   0459 90 00 A9            890 	mov	dptr,#(_main_a_1_1 + 0x0029)
   045C 74 35               891 	mov	a,#0x35
   045E F0                  892 	movx	@dptr,a
   045F 90 00 AA            893 	mov	dptr,#(_main_a_1_1 + 0x002a)
   0462 74 B1               894 	mov	a,#0xB1
   0464 F0                  895 	movx	@dptr,a
   0465 90 00 AB            896 	mov	dptr,#(_main_a_1_1 + 0x002b)
   0468 74 6E               897 	mov	a,#0x6E
   046A F0                  898 	movx	@dptr,a
   046B 90 00 AC            899 	mov	dptr,#(_main_a_1_1 + 0x002c)
   046E 74 D1               900 	mov	a,#0xD1
   0470 F0                  901 	movx	@dptr,a
   0471 90 00 AD            902 	mov	dptr,#(_main_a_1_1 + 0x002d)
   0474 74 D5               903 	mov	a,#0xD5
   0476 F0                  904 	movx	@dptr,a
   0477 90 00 AE            905 	mov	dptr,#(_main_a_1_1 + 0x002e)
   047A 74 DA               906 	mov	a,#0xDA
   047C F0                  907 	movx	@dptr,a
   047D 90 00 AF            908 	mov	dptr,#(_main_a_1_1 + 0x002f)
   0480 74 6F               909 	mov	a,#0x6F
   0482 F0                  910 	movx	@dptr,a
   0483 90 00 B0            911 	mov	dptr,#(_main_a_1_1 + 0x0030)
   0486 74 28               912 	mov	a,#0x28
   0488 F0                  913 	movx	@dptr,a
   0489 90 00 B1            914 	mov	dptr,#(_main_a_1_1 + 0x0031)
   048C 74 16               915 	mov	a,#0x16
   048E F0                  916 	movx	@dptr,a
   048F 90 00 B2            917 	mov	dptr,#(_main_a_1_1 + 0x0032)
   0492 74 2C               918 	mov	a,#0x2C
   0494 F0                  919 	movx	@dptr,a
   0495 90 00 B3            920 	mov	dptr,#(_main_a_1_1 + 0x0033)
   0498 74 74               921 	mov	a,#0x74
   049A F0                  922 	movx	@dptr,a
   049B 90 00 B4            923 	mov	dptr,#(_main_a_1_1 + 0x0034)
   049E 74 36               924 	mov	a,#0x36
   04A0 F0                  925 	movx	@dptr,a
   04A1 90 00 B5            926 	mov	dptr,#(_main_a_1_1 + 0x0035)
   04A4 74 F9               927 	mov	a,#0xF9
   04A6 F0                  928 	movx	@dptr,a
   04A7 90 00 B6            929 	mov	dptr,#(_main_a_1_1 + 0x0036)
   04AA 74 04               930 	mov	a,#0x04
   04AC F0                  931 	movx	@dptr,a
   04AD 90 00 B7            932 	mov	dptr,#(_main_a_1_1 + 0x0037)
   04B0 74 79               933 	mov	a,#0x79
   04B2 F0                  934 	movx	@dptr,a
   04B3 90 00 B8            935 	mov	dptr,#(_main_a_1_1 + 0x0038)
   04B6 74 F9               936 	mov	a,#0xF9
   04B8 F0                  937 	movx	@dptr,a
   04B9 90 00 B9            938 	mov	dptr,#(_main_a_1_1 + 0x0039)
   04BC 74 76               939 	mov	a,#0x76
   04BE F0                  940 	movx	@dptr,a
   04BF 90 00 BA            941 	mov	dptr,#(_main_a_1_1 + 0x003a)
   04C2 74 E2               942 	mov	a,#0xE2
   04C4 F0                  943 	movx	@dptr,a
   04C5 90 00 BB            944 	mov	dptr,#(_main_a_1_1 + 0x003b)
   04C8 74 CC               945 	mov	a,#0xCC
   04CA F0                  946 	movx	@dptr,a
   04CB 90 00 BC            947 	mov	dptr,#(_main_a_1_1 + 0x003c)
   04CE 74 A4               948 	mov	a,#0xA4
   04D0 F0                  949 	movx	@dptr,a
   04D1 90 00 BD            950 	mov	dptr,#(_main_a_1_1 + 0x003d)
   04D4 74 82               951 	mov	a,#0x82
   04D6 F0                  952 	movx	@dptr,a
   04D7 90 00 BE            953 	mov	dptr,#(_main_a_1_1 + 0x003e)
   04DA 74 A7               954 	mov	a,#0xA7
   04DC F0                  955 	movx	@dptr,a
   04DD 90 00 BF            956 	mov	dptr,#(_main_a_1_1 + 0x003f)
   04E0 74 A4               957 	mov	a,#0xA4
   04E2 F0                  958 	movx	@dptr,a
   04E3 90 00 C0            959 	mov	dptr,#(_main_a_1_1 + 0x0040)
   04E6 74 68               960 	mov	a,#0x68
   04E8 F0                  961 	movx	@dptr,a
   04E9 90 00 C1            962 	mov	dptr,#(_main_a_1_1 + 0x0041)
   04EC 74 4E               963 	mov	a,#0x4E
   04EE F0                  964 	movx	@dptr,a
   04EF 90 00 C2            965 	mov	dptr,#(_main_a_1_1 + 0x0042)
   04F2 74 24               966 	mov	a,#0x24
   04F4 F0                  967 	movx	@dptr,a
   04F5 90 00 C3            968 	mov	dptr,#(_main_a_1_1 + 0x0043)
   04F8 74 A6               969 	mov	a,#0xA6
   04FA F0                  970 	movx	@dptr,a
   04FB 90 00 C4            971 	mov	dptr,#(_main_a_1_1 + 0x0044)
   04FE 74 C1               972 	mov	a,#0xC1
   0500 F0                  973 	movx	@dptr,a
   0501 90 00 C5            974 	mov	dptr,#(_main_a_1_1 + 0x0045)
   0504 74 58               975 	mov	a,#0x58
   0506 F0                  976 	movx	@dptr,a
   0507 90 00 C6            977 	mov	dptr,#(_main_a_1_1 + 0x0046)
   050A 74 68               978 	mov	a,#0x68
   050C F0                  979 	movx	@dptr,a
   050D 90 00 C7            980 	mov	dptr,#(_main_a_1_1 + 0x0047)
   0510 74 24               981 	mov	a,#0x24
   0512 F0                  982 	movx	@dptr,a
   0513 90 00 C8            983 	mov	dptr,#(_main_a_1_1 + 0x0048)
   0516 74 58               984 	mov	a,#0x58
   0518 F0                  985 	movx	@dptr,a
   0519 90 00 C9            986 	mov	dptr,#(_main_a_1_1 + 0x0049)
   051C 74 DC               987 	mov	a,#0xDC
   051E F0                  988 	movx	@dptr,a
   051F 90 00 CA            989 	mov	dptr,#(_main_a_1_1 + 0x004a)
   0522 74 14               990 	mov	a,#0x14
   0524 F0                  991 	movx	@dptr,a
   0525 90 00 CB            992 	mov	dptr,#(_main_a_1_1 + 0x004b)
   0528 74 F9               993 	mov	a,#0xF9
   052A F0                  994 	movx	@dptr,a
   052B 90 00 CC            995 	mov	dptr,#(_main_a_1_1 + 0x004c)
   052E 74 FF               996 	mov	a,#0xFF
   0530 F0                  997 	movx	@dptr,a
   0531 90 00 CD            998 	mov	dptr,#(_main_a_1_1 + 0x004d)
   0534 74 4D               999 	mov	a,#0x4D
   0536 F0                 1000 	movx	@dptr,a
   0537 90 00 CE           1001 	mov	dptr,#(_main_a_1_1 + 0x004e)
   053A 74 A1              1002 	mov	a,#0xA1
   053C F0                 1003 	movx	@dptr,a
   053D 90 00 CF           1004 	mov	dptr,#(_main_a_1_1 + 0x004f)
   0540 74 EF              1005 	mov	a,#0xEF
   0542 F0                 1006 	movx	@dptr,a
   0543 90 00 D0           1007 	mov	dptr,#(_main_a_1_1 + 0x0050)
   0546 74 53              1008 	mov	a,#0x53
   0548 F0                 1009 	movx	@dptr,a
   0549 90 00 D1           1010 	mov	dptr,#(_main_a_1_1 + 0x0051)
   054C 74 A3              1011 	mov	a,#0xA3
   054E F0                 1012 	movx	@dptr,a
   054F 90 00 D2           1013 	mov	dptr,#(_main_a_1_1 + 0x0052)
   0552 74 C2              1014 	mov	a,#0xC2
   0554 F0                 1015 	movx	@dptr,a
   0555 90 00 D3           1016 	mov	dptr,#(_main_a_1_1 + 0x0053)
   0558 74 84              1017 	mov	a,#0x84
   055A F0                 1018 	movx	@dptr,a
   055B 90 00 D4           1019 	mov	dptr,#(_main_a_1_1 + 0x0054)
   055E 74 1B              1020 	mov	a,#0x1B
   0560 F0                 1021 	movx	@dptr,a
   0561 90 00 D5           1022 	mov	dptr,#(_main_a_1_1 + 0x0055)
   0564 74 81              1023 	mov	a,#0x81
   0566 F0                 1024 	movx	@dptr,a
   0567 90 00 D6           1025 	mov	dptr,#(_main_a_1_1 + 0x0056)
   056A 74 16              1026 	mov	a,#0x16
   056C F0                 1027 	movx	@dptr,a
   056D 90 00 D7           1028 	mov	dptr,#(_main_a_1_1 + 0x0057)
   0570 74 6C              1029 	mov	a,#0x6C
   0572 F0                 1030 	movx	@dptr,a
   0573 90 00 D8           1031 	mov	dptr,#(_main_a_1_1 + 0x0058)
   0576 74 DD              1032 	mov	a,#0xDD
   0578 F0                 1033 	movx	@dptr,a
   0579 90 00 D9           1034 	mov	dptr,#(_main_a_1_1 + 0x0059)
   057C 74 E3              1035 	mov	a,#0xE3
   057E F0                 1036 	movx	@dptr,a
   057F 90 00 DA           1037 	mov	dptr,#(_main_a_1_1 + 0x005a)
   0582 74 DB              1038 	mov	a,#0xDB
   0584 F0                 1039 	movx	@dptr,a
   0585 90 00 DB           1040 	mov	dptr,#(_main_a_1_1 + 0x005b)
   0588 74 A8              1041 	mov	a,#0xA8
   058A F0                 1042 	movx	@dptr,a
   058B 90 00 DC           1043 	mov	dptr,#(_main_a_1_1 + 0x005c)
   058E 74 03              1044 	mov	a,#0x03
   0590 F0                 1045 	movx	@dptr,a
   0591 90 00 DD           1046 	mov	dptr,#(_main_a_1_1 + 0x005d)
   0594 74 8F              1047 	mov	a,#0x8F
   0596 F0                 1048 	movx	@dptr,a
   0597 90 00 DE           1049 	mov	dptr,#(_main_a_1_1 + 0x005e)
   059A 74 F2              1050 	mov	a,#0xF2
   059C F0                 1051 	movx	@dptr,a
   059D 90 00 DF           1052 	mov	dptr,#(_main_a_1_1 + 0x005f)
   05A0 74 31              1053 	mov	a,#0x31
   05A2 F0                 1054 	movx	@dptr,a
   05A3 90 00 E0           1055 	mov	dptr,#(_main_a_1_1 + 0x0060)
   05A6 74 FD              1056 	mov	a,#0xFD
   05A8 F0                 1057 	movx	@dptr,a
   05A9 90 00 E1           1058 	mov	dptr,#(_main_a_1_1 + 0x0061)
   05AC 74 94              1059 	mov	a,#0x94
   05AE F0                 1060 	movx	@dptr,a
   05AF 90 00 E2           1061 	mov	dptr,#(_main_a_1_1 + 0x0062)
   05B2 74 5D              1062 	mov	a,#0x5D
   05B4 F0                 1063 	movx	@dptr,a
   05B5 90 00 E3           1064 	mov	dptr,#(_main_a_1_1 + 0x0063)
   05B8 74 26              1065 	mov	a,#0x26
   05BA F0                 1066 	movx	@dptr,a
   05BB 90 00 E4           1067 	mov	dptr,#(_main_a_1_1 + 0x0064)
   05BE 74 13              1068 	mov	a,#0x13
   05C0 F0                 1069 	movx	@dptr,a
   05C1 90 00 E5           1070 	mov	dptr,#(_main_a_1_1 + 0x0065)
   05C4 74 C6              1071 	mov	a,#0xC6
   05C6 F0                 1072 	movx	@dptr,a
   05C7 90 00 E6           1073 	mov	dptr,#(_main_a_1_1 + 0x0066)
   05CA 74 68              1074 	mov	a,#0x68
   05CC F0                 1075 	movx	@dptr,a
   05CD 90 00 E7           1076 	mov	dptr,#(_main_a_1_1 + 0x0067)
   05D0 74 B4              1077 	mov	a,#0xB4
   05D2 F0                 1078 	movx	@dptr,a
   05D3 90 00 E8           1079 	mov	dptr,#(_main_a_1_1 + 0x0068)
   05D6 74 0D              1080 	mov	a,#0x0D
   05D8 F0                 1081 	movx	@dptr,a
   05D9 90 00 E9           1082 	mov	dptr,#(_main_a_1_1 + 0x0069)
   05DC 74 CD              1083 	mov	a,#0xCD
   05DE F0                 1084 	movx	@dptr,a
   05DF 90 00 EA           1085 	mov	dptr,#(_main_a_1_1 + 0x006a)
   05E2 74 F1              1086 	mov	a,#0xF1
   05E4 F0                 1087 	movx	@dptr,a
   05E5 90 00 EB           1088 	mov	dptr,#(_main_a_1_1 + 0x006b)
   05E8 74 B8              1089 	mov	a,#0xB8
   05EA F0                 1090 	movx	@dptr,a
   05EB 90 00 EC           1091 	mov	dptr,#(_main_a_1_1 + 0x006c)
   05EE 74 66              1092 	mov	a,#0x66
   05F0 F0                 1093 	movx	@dptr,a
   05F1 90 00 ED           1094 	mov	dptr,#(_main_a_1_1 + 0x006d)
   05F4 74 0D              1095 	mov	a,#0x0D
   05F6 F0                 1096 	movx	@dptr,a
   05F7 90 00 EE           1097 	mov	dptr,#(_main_a_1_1 + 0x006e)
   05FA 74 5D              1098 	mov	a,#0x5D
   05FC F0                 1099 	movx	@dptr,a
   05FD 90 00 EF           1100 	mov	dptr,#(_main_a_1_1 + 0x006f)
   0600 74 3B              1101 	mov	a,#0x3B
   0602 F0                 1102 	movx	@dptr,a
   0603 90 00 F0           1103 	mov	dptr,#(_main_a_1_1 + 0x0070)
   0606 74 2F              1104 	mov	a,#0x2F
   0608 F0                 1105 	movx	@dptr,a
   0609 90 00 F1           1106 	mov	dptr,#(_main_a_1_1 + 0x0071)
   060C 74 C4              1107 	mov	a,#0xC4
   060E F0                 1108 	movx	@dptr,a
   060F 90 00 F2           1109 	mov	dptr,#(_main_a_1_1 + 0x0072)
   0612 74 4A              1110 	mov	a,#0x4A
   0614 F0                 1111 	movx	@dptr,a
   0615 90 00 F3           1112 	mov	dptr,#(_main_a_1_1 + 0x0073)
   0618 74 D1              1113 	mov	a,#0xD1
   061A F0                 1114 	movx	@dptr,a
   061B 90 00 F4           1115 	mov	dptr,#(_main_a_1_1 + 0x0074)
   061E 74 0B              1116 	mov	a,#0x0B
   0620 F0                 1117 	movx	@dptr,a
   0621 90 00 F5           1118 	mov	dptr,#(_main_a_1_1 + 0x0075)
   0624 74 36              1119 	mov	a,#0x36
   0626 F0                 1120 	movx	@dptr,a
   0627 90 00 F6           1121 	mov	dptr,#(_main_a_1_1 + 0x0076)
   062A 74 C6              1122 	mov	a,#0xC6
   062C F0                 1123 	movx	@dptr,a
   062D 90 00 F7           1124 	mov	dptr,#(_main_a_1_1 + 0x0077)
   0630 74 10              1125 	mov	a,#0x10
   0632 F0                 1126 	movx	@dptr,a
   0633 90 00 F8           1127 	mov	dptr,#(_main_a_1_1 + 0x0078)
   0636 74 1A              1128 	mov	a,#0x1A
   0638 F0                 1129 	movx	@dptr,a
   0639 90 00 F9           1130 	mov	dptr,#(_main_a_1_1 + 0x0079)
   063C 74 2F              1131 	mov	a,#0x2F
   063E F0                 1132 	movx	@dptr,a
   063F 90 00 FA           1133 	mov	dptr,#(_main_a_1_1 + 0x007a)
   0642 74 72              1134 	mov	a,#0x72
   0644 F0                 1135 	movx	@dptr,a
   0645 90 00 FB           1136 	mov	dptr,#(_main_a_1_1 + 0x007b)
   0648 74 D1              1137 	mov	a,#0xD1
   064A F0                 1138 	movx	@dptr,a
   064B 90 00 FC           1139 	mov	dptr,#(_main_a_1_1 + 0x007c)
   064E 74 BB              1140 	mov	a,#0xBB
   0650 F0                 1141 	movx	@dptr,a
   0651 90 00 FD           1142 	mov	dptr,#(_main_a_1_1 + 0x007d)
   0654 74 15              1143 	mov	a,#0x15
   0656 F0                 1144 	movx	@dptr,a
   0657 90 00 FE           1145 	mov	dptr,#(_main_a_1_1 + 0x007e)
   065A 74 29              1146 	mov	a,#0x29
   065C F0                 1147 	movx	@dptr,a
   065D 90 00 FF           1148 	mov	dptr,#(_main_a_1_1 + 0x007f)
   0660 74 CA              1149 	mov	a,#0xCA
   0662 F0                 1150 	movx	@dptr,a
                           1151 ;	main.c:16: __xdata __at (0x0100) unsigned char b[SIZE] = {0xE1,0x8A,0x03,0xDB,0xE0,0xD9,0xF6,0x55,0xB6,0x27,0x0A,0x28,0xF0,0x5E,0x74,0x7F,0xE6,0x9F,0x4C,0xFB,0x26,0x8C,0x9E,0x87,0x83,0x22,0xF2,0x75,0xD2,0xB3,0x61,0xA2,0x9D,0x50,0x71,0x5E,0xC9,0xDD,0xDD,0x74,0x0A,0x3C,0xC0,0x30,0x3E,0xE5,0x20,0x02,0xB3,0x12,0x4F,0xAB,0x60,0x27,0x07,0x17,0xDD,0x00,0xC2,0xE1,0xBC,0x04,0xAE,0x21,0x38,0xCA,0xAA,0x8F,0x74,0xD5,0x02,0x10,0x15,0x87,0x58,0x08,0xCC,0x9A,0x42,0xBD,0x02,0x97,0xCE,0x2B,0x39,0x38,0x99,0xAC,0x81,0xBB,0xC3,0xFF,0xBC,0xC1,0xB8,0xE1,0x24,0x8D,0xC5,0x20,0x89,0x98,0x0B,0x50,0xB1,0x16,0x9A,0x2D,0x6E,0x5A,0x7B,0x2F,0xD4,0x92,0xA1,0xAA,0xA6,0xE5,0xA6,0xD2,0x0D,0x0B,0xB7,0xB2,0x25,0x23,0x23,0xBE};
   0663 90 01 00           1152 	mov	dptr,#_main_b_1_1
   0666 74 E1              1153 	mov	a,#0xE1
   0668 F0                 1154 	movx	@dptr,a
   0669 90 01 01           1155 	mov	dptr,#(_main_b_1_1 + 0x0001)
   066C 74 8A              1156 	mov	a,#0x8A
   066E F0                 1157 	movx	@dptr,a
   066F 90 01 02           1158 	mov	dptr,#(_main_b_1_1 + 0x0002)
   0672 74 03              1159 	mov	a,#0x03
   0674 F0                 1160 	movx	@dptr,a
   0675 90 01 03           1161 	mov	dptr,#(_main_b_1_1 + 0x0003)
   0678 74 DB              1162 	mov	a,#0xDB
   067A F0                 1163 	movx	@dptr,a
   067B 90 01 04           1164 	mov	dptr,#(_main_b_1_1 + 0x0004)
   067E 74 E0              1165 	mov	a,#0xE0
   0680 F0                 1166 	movx	@dptr,a
   0681 90 01 05           1167 	mov	dptr,#(_main_b_1_1 + 0x0005)
   0684 74 D9              1168 	mov	a,#0xD9
   0686 F0                 1169 	movx	@dptr,a
   0687 90 01 06           1170 	mov	dptr,#(_main_b_1_1 + 0x0006)
   068A 74 F6              1171 	mov	a,#0xF6
   068C F0                 1172 	movx	@dptr,a
   068D 90 01 07           1173 	mov	dptr,#(_main_b_1_1 + 0x0007)
   0690 74 55              1174 	mov	a,#0x55
   0692 F0                 1175 	movx	@dptr,a
   0693 90 01 08           1176 	mov	dptr,#(_main_b_1_1 + 0x0008)
   0696 74 B6              1177 	mov	a,#0xB6
   0698 F0                 1178 	movx	@dptr,a
   0699 90 01 09           1179 	mov	dptr,#(_main_b_1_1 + 0x0009)
   069C 74 27              1180 	mov	a,#0x27
   069E F0                 1181 	movx	@dptr,a
   069F 90 01 0A           1182 	mov	dptr,#(_main_b_1_1 + 0x000a)
   06A2 74 0A              1183 	mov	a,#0x0A
   06A4 F0                 1184 	movx	@dptr,a
   06A5 90 01 0B           1185 	mov	dptr,#(_main_b_1_1 + 0x000b)
   06A8 74 28              1186 	mov	a,#0x28
   06AA F0                 1187 	movx	@dptr,a
   06AB 90 01 0C           1188 	mov	dptr,#(_main_b_1_1 + 0x000c)
   06AE 74 F0              1189 	mov	a,#0xF0
   06B0 F0                 1190 	movx	@dptr,a
   06B1 90 01 0D           1191 	mov	dptr,#(_main_b_1_1 + 0x000d)
   06B4 74 5E              1192 	mov	a,#0x5E
   06B6 F0                 1193 	movx	@dptr,a
   06B7 90 01 0E           1194 	mov	dptr,#(_main_b_1_1 + 0x000e)
   06BA 74 74              1195 	mov	a,#0x74
   06BC F0                 1196 	movx	@dptr,a
   06BD 90 01 0F           1197 	mov	dptr,#(_main_b_1_1 + 0x000f)
   06C0 74 7F              1198 	mov	a,#0x7F
   06C2 F0                 1199 	movx	@dptr,a
   06C3 90 01 10           1200 	mov	dptr,#(_main_b_1_1 + 0x0010)
   06C6 74 E6              1201 	mov	a,#0xE6
   06C8 F0                 1202 	movx	@dptr,a
   06C9 90 01 11           1203 	mov	dptr,#(_main_b_1_1 + 0x0011)
   06CC 74 9F              1204 	mov	a,#0x9F
   06CE F0                 1205 	movx	@dptr,a
   06CF 90 01 12           1206 	mov	dptr,#(_main_b_1_1 + 0x0012)
   06D2 74 4C              1207 	mov	a,#0x4C
   06D4 F0                 1208 	movx	@dptr,a
   06D5 90 01 13           1209 	mov	dptr,#(_main_b_1_1 + 0x0013)
   06D8 74 FB              1210 	mov	a,#0xFB
   06DA F0                 1211 	movx	@dptr,a
   06DB 90 01 14           1212 	mov	dptr,#(_main_b_1_1 + 0x0014)
   06DE 74 26              1213 	mov	a,#0x26
   06E0 F0                 1214 	movx	@dptr,a
   06E1 90 01 15           1215 	mov	dptr,#(_main_b_1_1 + 0x0015)
   06E4 74 8C              1216 	mov	a,#0x8C
   06E6 F0                 1217 	movx	@dptr,a
   06E7 90 01 16           1218 	mov	dptr,#(_main_b_1_1 + 0x0016)
   06EA 74 9E              1219 	mov	a,#0x9E
   06EC F0                 1220 	movx	@dptr,a
   06ED 90 01 17           1221 	mov	dptr,#(_main_b_1_1 + 0x0017)
   06F0 74 87              1222 	mov	a,#0x87
   06F2 F0                 1223 	movx	@dptr,a
   06F3 90 01 18           1224 	mov	dptr,#(_main_b_1_1 + 0x0018)
   06F6 74 83              1225 	mov	a,#0x83
   06F8 F0                 1226 	movx	@dptr,a
   06F9 90 01 19           1227 	mov	dptr,#(_main_b_1_1 + 0x0019)
   06FC 74 22              1228 	mov	a,#0x22
   06FE F0                 1229 	movx	@dptr,a
   06FF 90 01 1A           1230 	mov	dptr,#(_main_b_1_1 + 0x001a)
   0702 74 F2              1231 	mov	a,#0xF2
   0704 F0                 1232 	movx	@dptr,a
   0705 90 01 1B           1233 	mov	dptr,#(_main_b_1_1 + 0x001b)
   0708 74 75              1234 	mov	a,#0x75
   070A F0                 1235 	movx	@dptr,a
   070B 90 01 1C           1236 	mov	dptr,#(_main_b_1_1 + 0x001c)
   070E 74 D2              1237 	mov	a,#0xD2
   0710 F0                 1238 	movx	@dptr,a
   0711 90 01 1D           1239 	mov	dptr,#(_main_b_1_1 + 0x001d)
   0714 74 B3              1240 	mov	a,#0xB3
   0716 F0                 1241 	movx	@dptr,a
   0717 90 01 1E           1242 	mov	dptr,#(_main_b_1_1 + 0x001e)
   071A 74 61              1243 	mov	a,#0x61
   071C F0                 1244 	movx	@dptr,a
   071D 90 01 1F           1245 	mov	dptr,#(_main_b_1_1 + 0x001f)
   0720 74 A2              1246 	mov	a,#0xA2
   0722 F0                 1247 	movx	@dptr,a
   0723 90 01 20           1248 	mov	dptr,#(_main_b_1_1 + 0x0020)
   0726 74 9D              1249 	mov	a,#0x9D
   0728 F0                 1250 	movx	@dptr,a
   0729 90 01 21           1251 	mov	dptr,#(_main_b_1_1 + 0x0021)
   072C 74 50              1252 	mov	a,#0x50
   072E F0                 1253 	movx	@dptr,a
   072F 90 01 22           1254 	mov	dptr,#(_main_b_1_1 + 0x0022)
   0732 74 71              1255 	mov	a,#0x71
   0734 F0                 1256 	movx	@dptr,a
   0735 90 01 23           1257 	mov	dptr,#(_main_b_1_1 + 0x0023)
   0738 74 5E              1258 	mov	a,#0x5E
   073A F0                 1259 	movx	@dptr,a
   073B 90 01 24           1260 	mov	dptr,#(_main_b_1_1 + 0x0024)
   073E 74 C9              1261 	mov	a,#0xC9
   0740 F0                 1262 	movx	@dptr,a
   0741 90 01 25           1263 	mov	dptr,#(_main_b_1_1 + 0x0025)
   0744 74 DD              1264 	mov	a,#0xDD
   0746 F0                 1265 	movx	@dptr,a
   0747 90 01 26           1266 	mov	dptr,#(_main_b_1_1 + 0x0026)
   074A 74 DD              1267 	mov	a,#0xDD
   074C F0                 1268 	movx	@dptr,a
   074D 90 01 27           1269 	mov	dptr,#(_main_b_1_1 + 0x0027)
   0750 74 74              1270 	mov	a,#0x74
   0752 F0                 1271 	movx	@dptr,a
   0753 90 01 28           1272 	mov	dptr,#(_main_b_1_1 + 0x0028)
   0756 74 0A              1273 	mov	a,#0x0A
   0758 F0                 1274 	movx	@dptr,a
   0759 90 01 29           1275 	mov	dptr,#(_main_b_1_1 + 0x0029)
   075C 74 3C              1276 	mov	a,#0x3C
   075E F0                 1277 	movx	@dptr,a
   075F 90 01 2A           1278 	mov	dptr,#(_main_b_1_1 + 0x002a)
   0762 74 C0              1279 	mov	a,#0xC0
   0764 F0                 1280 	movx	@dptr,a
   0765 90 01 2B           1281 	mov	dptr,#(_main_b_1_1 + 0x002b)
   0768 74 30              1282 	mov	a,#0x30
   076A F0                 1283 	movx	@dptr,a
   076B 90 01 2C           1284 	mov	dptr,#(_main_b_1_1 + 0x002c)
   076E 74 3E              1285 	mov	a,#0x3E
   0770 F0                 1286 	movx	@dptr,a
   0771 90 01 2D           1287 	mov	dptr,#(_main_b_1_1 + 0x002d)
   0774 74 E5              1288 	mov	a,#0xE5
   0776 F0                 1289 	movx	@dptr,a
   0777 90 01 2E           1290 	mov	dptr,#(_main_b_1_1 + 0x002e)
   077A 74 20              1291 	mov	a,#0x20
   077C F0                 1292 	movx	@dptr,a
   077D 90 01 2F           1293 	mov	dptr,#(_main_b_1_1 + 0x002f)
   0780 74 02              1294 	mov	a,#0x02
   0782 F0                 1295 	movx	@dptr,a
   0783 90 01 30           1296 	mov	dptr,#(_main_b_1_1 + 0x0030)
   0786 74 B3              1297 	mov	a,#0xB3
   0788 F0                 1298 	movx	@dptr,a
   0789 90 01 31           1299 	mov	dptr,#(_main_b_1_1 + 0x0031)
   078C 74 12              1300 	mov	a,#0x12
   078E F0                 1301 	movx	@dptr,a
   078F 90 01 32           1302 	mov	dptr,#(_main_b_1_1 + 0x0032)
   0792 74 4F              1303 	mov	a,#0x4F
   0794 F0                 1304 	movx	@dptr,a
   0795 90 01 33           1305 	mov	dptr,#(_main_b_1_1 + 0x0033)
   0798 74 AB              1306 	mov	a,#0xAB
   079A F0                 1307 	movx	@dptr,a
   079B 90 01 34           1308 	mov	dptr,#(_main_b_1_1 + 0x0034)
   079E 74 60              1309 	mov	a,#0x60
   07A0 F0                 1310 	movx	@dptr,a
   07A1 90 01 35           1311 	mov	dptr,#(_main_b_1_1 + 0x0035)
   07A4 74 27              1312 	mov	a,#0x27
   07A6 F0                 1313 	movx	@dptr,a
   07A7 90 01 36           1314 	mov	dptr,#(_main_b_1_1 + 0x0036)
   07AA 74 07              1315 	mov	a,#0x07
   07AC F0                 1316 	movx	@dptr,a
   07AD 90 01 37           1317 	mov	dptr,#(_main_b_1_1 + 0x0037)
   07B0 74 17              1318 	mov	a,#0x17
   07B2 F0                 1319 	movx	@dptr,a
   07B3 90 01 38           1320 	mov	dptr,#(_main_b_1_1 + 0x0038)
   07B6 74 DD              1321 	mov	a,#0xDD
   07B8 F0                 1322 	movx	@dptr,a
   07B9 90 01 39           1323 	mov	dptr,#(_main_b_1_1 + 0x0039)
   07BC E4                 1324 	clr	a
   07BD F0                 1325 	movx	@dptr,a
   07BE 90 01 3A           1326 	mov	dptr,#(_main_b_1_1 + 0x003a)
   07C1 74 C2              1327 	mov	a,#0xC2
   07C3 F0                 1328 	movx	@dptr,a
   07C4 90 01 3B           1329 	mov	dptr,#(_main_b_1_1 + 0x003b)
   07C7 74 E1              1330 	mov	a,#0xE1
   07C9 F0                 1331 	movx	@dptr,a
   07CA 90 01 3C           1332 	mov	dptr,#(_main_b_1_1 + 0x003c)
   07CD 74 BC              1333 	mov	a,#0xBC
   07CF F0                 1334 	movx	@dptr,a
   07D0 90 01 3D           1335 	mov	dptr,#(_main_b_1_1 + 0x003d)
   07D3 74 04              1336 	mov	a,#0x04
   07D5 F0                 1337 	movx	@dptr,a
   07D6 90 01 3E           1338 	mov	dptr,#(_main_b_1_1 + 0x003e)
   07D9 74 AE              1339 	mov	a,#0xAE
   07DB F0                 1340 	movx	@dptr,a
   07DC 90 01 3F           1341 	mov	dptr,#(_main_b_1_1 + 0x003f)
   07DF 74 21              1342 	mov	a,#0x21
   07E1 F0                 1343 	movx	@dptr,a
   07E2 90 01 40           1344 	mov	dptr,#(_main_b_1_1 + 0x0040)
   07E5 74 38              1345 	mov	a,#0x38
   07E7 F0                 1346 	movx	@dptr,a
   07E8 90 01 41           1347 	mov	dptr,#(_main_b_1_1 + 0x0041)
   07EB 74 CA              1348 	mov	a,#0xCA
   07ED F0                 1349 	movx	@dptr,a
   07EE 90 01 42           1350 	mov	dptr,#(_main_b_1_1 + 0x0042)
   07F1 74 AA              1351 	mov	a,#0xAA
   07F3 F0                 1352 	movx	@dptr,a
   07F4 90 01 43           1353 	mov	dptr,#(_main_b_1_1 + 0x0043)
   07F7 74 8F              1354 	mov	a,#0x8F
   07F9 F0                 1355 	movx	@dptr,a
   07FA 90 01 44           1356 	mov	dptr,#(_main_b_1_1 + 0x0044)
   07FD 74 74              1357 	mov	a,#0x74
   07FF F0                 1358 	movx	@dptr,a
   0800 90 01 45           1359 	mov	dptr,#(_main_b_1_1 + 0x0045)
   0803 74 D5              1360 	mov	a,#0xD5
   0805 F0                 1361 	movx	@dptr,a
   0806 90 01 46           1362 	mov	dptr,#(_main_b_1_1 + 0x0046)
   0809 74 02              1363 	mov	a,#0x02
   080B F0                 1364 	movx	@dptr,a
   080C 90 01 47           1365 	mov	dptr,#(_main_b_1_1 + 0x0047)
   080F 74 10              1366 	mov	a,#0x10
   0811 F0                 1367 	movx	@dptr,a
   0812 90 01 48           1368 	mov	dptr,#(_main_b_1_1 + 0x0048)
   0815 74 15              1369 	mov	a,#0x15
   0817 F0                 1370 	movx	@dptr,a
   0818 90 01 49           1371 	mov	dptr,#(_main_b_1_1 + 0x0049)
   081B 74 87              1372 	mov	a,#0x87
   081D F0                 1373 	movx	@dptr,a
   081E 90 01 4A           1374 	mov	dptr,#(_main_b_1_1 + 0x004a)
   0821 74 58              1375 	mov	a,#0x58
   0823 F0                 1376 	movx	@dptr,a
   0824 90 01 4B           1377 	mov	dptr,#(_main_b_1_1 + 0x004b)
   0827 74 08              1378 	mov	a,#0x08
   0829 F0                 1379 	movx	@dptr,a
   082A 90 01 4C           1380 	mov	dptr,#(_main_b_1_1 + 0x004c)
   082D 74 CC              1381 	mov	a,#0xCC
   082F F0                 1382 	movx	@dptr,a
   0830 90 01 4D           1383 	mov	dptr,#(_main_b_1_1 + 0x004d)
   0833 74 9A              1384 	mov	a,#0x9A
   0835 F0                 1385 	movx	@dptr,a
   0836 90 01 4E           1386 	mov	dptr,#(_main_b_1_1 + 0x004e)
   0839 74 42              1387 	mov	a,#0x42
   083B F0                 1388 	movx	@dptr,a
   083C 90 01 4F           1389 	mov	dptr,#(_main_b_1_1 + 0x004f)
   083F 74 BD              1390 	mov	a,#0xBD
   0841 F0                 1391 	movx	@dptr,a
   0842 90 01 50           1392 	mov	dptr,#(_main_b_1_1 + 0x0050)
   0845 74 02              1393 	mov	a,#0x02
   0847 F0                 1394 	movx	@dptr,a
   0848 90 01 51           1395 	mov	dptr,#(_main_b_1_1 + 0x0051)
   084B 74 97              1396 	mov	a,#0x97
   084D F0                 1397 	movx	@dptr,a
   084E 90 01 52           1398 	mov	dptr,#(_main_b_1_1 + 0x0052)
   0851 74 CE              1399 	mov	a,#0xCE
   0853 F0                 1400 	movx	@dptr,a
   0854 90 01 53           1401 	mov	dptr,#(_main_b_1_1 + 0x0053)
   0857 74 2B              1402 	mov	a,#0x2B
   0859 F0                 1403 	movx	@dptr,a
   085A 90 01 54           1404 	mov	dptr,#(_main_b_1_1 + 0x0054)
   085D 74 39              1405 	mov	a,#0x39
   085F F0                 1406 	movx	@dptr,a
   0860 90 01 55           1407 	mov	dptr,#(_main_b_1_1 + 0x0055)
   0863 74 38              1408 	mov	a,#0x38
   0865 F0                 1409 	movx	@dptr,a
   0866 90 01 56           1410 	mov	dptr,#(_main_b_1_1 + 0x0056)
   0869 74 99              1411 	mov	a,#0x99
   086B F0                 1412 	movx	@dptr,a
   086C 90 01 57           1413 	mov	dptr,#(_main_b_1_1 + 0x0057)
   086F 74 AC              1414 	mov	a,#0xAC
   0871 F0                 1415 	movx	@dptr,a
   0872 90 01 58           1416 	mov	dptr,#(_main_b_1_1 + 0x0058)
   0875 74 81              1417 	mov	a,#0x81
   0877 F0                 1418 	movx	@dptr,a
   0878 90 01 59           1419 	mov	dptr,#(_main_b_1_1 + 0x0059)
   087B 74 BB              1420 	mov	a,#0xBB
   087D F0                 1421 	movx	@dptr,a
   087E 90 01 5A           1422 	mov	dptr,#(_main_b_1_1 + 0x005a)
   0881 74 C3              1423 	mov	a,#0xC3
   0883 F0                 1424 	movx	@dptr,a
   0884 90 01 5B           1425 	mov	dptr,#(_main_b_1_1 + 0x005b)
   0887 74 FF              1426 	mov	a,#0xFF
   0889 F0                 1427 	movx	@dptr,a
   088A 90 01 5C           1428 	mov	dptr,#(_main_b_1_1 + 0x005c)
   088D 74 BC              1429 	mov	a,#0xBC
   088F F0                 1430 	movx	@dptr,a
   0890 90 01 5D           1431 	mov	dptr,#(_main_b_1_1 + 0x005d)
   0893 74 C1              1432 	mov	a,#0xC1
   0895 F0                 1433 	movx	@dptr,a
   0896 90 01 5E           1434 	mov	dptr,#(_main_b_1_1 + 0x005e)
   0899 74 B8              1435 	mov	a,#0xB8
   089B F0                 1436 	movx	@dptr,a
   089C 90 01 5F           1437 	mov	dptr,#(_main_b_1_1 + 0x005f)
   089F 74 E1              1438 	mov	a,#0xE1
   08A1 F0                 1439 	movx	@dptr,a
   08A2 90 01 60           1440 	mov	dptr,#(_main_b_1_1 + 0x0060)
   08A5 74 24              1441 	mov	a,#0x24
   08A7 F0                 1442 	movx	@dptr,a
   08A8 90 01 61           1443 	mov	dptr,#(_main_b_1_1 + 0x0061)
   08AB 74 8D              1444 	mov	a,#0x8D
   08AD F0                 1445 	movx	@dptr,a
   08AE 90 01 62           1446 	mov	dptr,#(_main_b_1_1 + 0x0062)
   08B1 74 C5              1447 	mov	a,#0xC5
   08B3 F0                 1448 	movx	@dptr,a
   08B4 90 01 63           1449 	mov	dptr,#(_main_b_1_1 + 0x0063)
   08B7 74 20              1450 	mov	a,#0x20
   08B9 F0                 1451 	movx	@dptr,a
   08BA 90 01 64           1452 	mov	dptr,#(_main_b_1_1 + 0x0064)
   08BD 74 89              1453 	mov	a,#0x89
   08BF F0                 1454 	movx	@dptr,a
   08C0 90 01 65           1455 	mov	dptr,#(_main_b_1_1 + 0x0065)
   08C3 74 98              1456 	mov	a,#0x98
   08C5 F0                 1457 	movx	@dptr,a
   08C6 90 01 66           1458 	mov	dptr,#(_main_b_1_1 + 0x0066)
   08C9 74 0B              1459 	mov	a,#0x0B
   08CB F0                 1460 	movx	@dptr,a
   08CC 90 01 67           1461 	mov	dptr,#(_main_b_1_1 + 0x0067)
   08CF 74 50              1462 	mov	a,#0x50
   08D1 F0                 1463 	movx	@dptr,a
   08D2 90 01 68           1464 	mov	dptr,#(_main_b_1_1 + 0x0068)
   08D5 74 B1              1465 	mov	a,#0xB1
   08D7 F0                 1466 	movx	@dptr,a
   08D8 90 01 69           1467 	mov	dptr,#(_main_b_1_1 + 0x0069)
   08DB 74 16              1468 	mov	a,#0x16
   08DD F0                 1469 	movx	@dptr,a
   08DE 90 01 6A           1470 	mov	dptr,#(_main_b_1_1 + 0x006a)
   08E1 74 9A              1471 	mov	a,#0x9A
   08E3 F0                 1472 	movx	@dptr,a
   08E4 90 01 6B           1473 	mov	dptr,#(_main_b_1_1 + 0x006b)
   08E7 74 2D              1474 	mov	a,#0x2D
   08E9 F0                 1475 	movx	@dptr,a
   08EA 90 01 6C           1476 	mov	dptr,#(_main_b_1_1 + 0x006c)
   08ED 74 6E              1477 	mov	a,#0x6E
   08EF F0                 1478 	movx	@dptr,a
   08F0 90 01 6D           1479 	mov	dptr,#(_main_b_1_1 + 0x006d)
   08F3 74 5A              1480 	mov	a,#0x5A
   08F5 F0                 1481 	movx	@dptr,a
   08F6 90 01 6E           1482 	mov	dptr,#(_main_b_1_1 + 0x006e)
   08F9 74 7B              1483 	mov	a,#0x7B
   08FB F0                 1484 	movx	@dptr,a
   08FC 90 01 6F           1485 	mov	dptr,#(_main_b_1_1 + 0x006f)
   08FF 74 2F              1486 	mov	a,#0x2F
   0901 F0                 1487 	movx	@dptr,a
   0902 90 01 70           1488 	mov	dptr,#(_main_b_1_1 + 0x0070)
   0905 74 D4              1489 	mov	a,#0xD4
   0907 F0                 1490 	movx	@dptr,a
   0908 90 01 71           1491 	mov	dptr,#(_main_b_1_1 + 0x0071)
   090B 74 92              1492 	mov	a,#0x92
   090D F0                 1493 	movx	@dptr,a
   090E 90 01 72           1494 	mov	dptr,#(_main_b_1_1 + 0x0072)
   0911 74 A1              1495 	mov	a,#0xA1
   0913 F0                 1496 	movx	@dptr,a
   0914 90 01 73           1497 	mov	dptr,#(_main_b_1_1 + 0x0073)
   0917 74 AA              1498 	mov	a,#0xAA
   0919 F0                 1499 	movx	@dptr,a
   091A 90 01 74           1500 	mov	dptr,#(_main_b_1_1 + 0x0074)
   091D 74 A6              1501 	mov	a,#0xA6
   091F F0                 1502 	movx	@dptr,a
   0920 90 01 75           1503 	mov	dptr,#(_main_b_1_1 + 0x0075)
   0923 74 E5              1504 	mov	a,#0xE5
   0925 F0                 1505 	movx	@dptr,a
   0926 90 01 76           1506 	mov	dptr,#(_main_b_1_1 + 0x0076)
   0929 74 A6              1507 	mov	a,#0xA6
   092B F0                 1508 	movx	@dptr,a
   092C 90 01 77           1509 	mov	dptr,#(_main_b_1_1 + 0x0077)
   092F 74 D2              1510 	mov	a,#0xD2
   0931 F0                 1511 	movx	@dptr,a
   0932 90 01 78           1512 	mov	dptr,#(_main_b_1_1 + 0x0078)
   0935 74 0D              1513 	mov	a,#0x0D
   0937 F0                 1514 	movx	@dptr,a
   0938 90 01 79           1515 	mov	dptr,#(_main_b_1_1 + 0x0079)
   093B 74 0B              1516 	mov	a,#0x0B
   093D F0                 1517 	movx	@dptr,a
   093E 90 01 7A           1518 	mov	dptr,#(_main_b_1_1 + 0x007a)
   0941 74 B7              1519 	mov	a,#0xB7
   0943 F0                 1520 	movx	@dptr,a
   0944 90 01 7B           1521 	mov	dptr,#(_main_b_1_1 + 0x007b)
   0947 74 B2              1522 	mov	a,#0xB2
   0949 F0                 1523 	movx	@dptr,a
   094A 90 01 7C           1524 	mov	dptr,#(_main_b_1_1 + 0x007c)
   094D 74 25              1525 	mov	a,#0x25
   094F F0                 1526 	movx	@dptr,a
   0950 90 01 7D           1527 	mov	dptr,#(_main_b_1_1 + 0x007d)
   0953 74 23              1528 	mov	a,#0x23
   0955 F0                 1529 	movx	@dptr,a
   0956 90 01 7E           1530 	mov	dptr,#(_main_b_1_1 + 0x007e)
   0959 74 23              1531 	mov	a,#0x23
   095B F0                 1532 	movx	@dptr,a
   095C 90 01 7F           1533 	mov	dptr,#(_main_b_1_1 + 0x007f)
   095F 74 BE              1534 	mov	a,#0xBE
   0961 F0                 1535 	movx	@dptr,a
                           1536 ;	main.c:18: __xdata __at (0x0180) unsigned char n_prime = 0xA5;
   0962 90 01 80           1537 	mov	dptr,#_main_n_prime_1_1
   0965 74 A5              1538 	mov	a,#0xA5
   0967 F0                 1539 	movx	@dptr,a
                           1540 ;	main.c:22: startBrk=1;
   0968 90 FF FE           1541 	mov	dptr,#_startBrk
   096B 74 01              1542 	mov	a,#0x01
   096D F0                 1543 	movx	@dptr,a
                           1544 ;	main.c:24: fips(a, b, n, n_prime, m);
   096E 75 08 00           1545 	mov	_fips_PARM_2,#_main_b_1_1
   0971 75 09 01           1546 	mov	(_fips_PARM_2 + 1),#(_main_b_1_1 >> 8)
   0974 75 0A 00           1547 	mov	(_fips_PARM_2 + 2),#0x00
   0977 75 0B 00           1548 	mov	_fips_PARM_3,#_main_n_1_1
   097A 75 0C 00           1549 	mov	(_fips_PARM_3 + 1),#(_main_n_1_1 >> 8)
   097D 75 0D 00           1550 	mov	(_fips_PARM_3 + 2),#0x00
   0980 90 01 80           1551 	mov	dptr,#_main_n_prime_1_1
   0983 E0                 1552 	movx	a,@dptr
   0984 F5 0E              1553 	mov	_fips_PARM_4,a
   0986 75 0F 00           1554 	mov	_fips_PARM_5,#_main_m_1_1
   0989 75 10 02           1555 	mov	(_fips_PARM_5 + 1),#(_main_m_1_1 >> 8)
   098C 75 11 00           1556 	mov	(_fips_PARM_5 + 2),#0x00
   098F 90 00 80           1557 	mov	dptr,#_main_a_1_1
   0992 75 F0 00           1558 	mov	b,#0x00
   0995 12 09 A2           1559 	lcall	_fips
                           1560 ;	main.c:26: endBrk=1;
   0998 90 FF FF           1561 	mov	dptr,#_endBrk
   099B 74 01              1562 	mov	a,#0x01
   099D F0                 1563 	movx	@dptr,a
                           1564 ;	main.c:27: return 0;
   099E 90 00 00           1565 	mov	dptr,#0x0000
   09A1 22                 1566 	ret
                           1567 ;------------------------------------------------------------
                           1568 ;Allocation info for local variables in function 'fips'
                           1569 ;------------------------------------------------------------
                           1570 ;b                         Allocated with name '_fips_PARM_2'
                           1571 ;n                         Allocated with name '_fips_PARM_3'
                           1572 ;n_prime                   Allocated with name '_fips_PARM_4'
                           1573 ;m                         Allocated with name '_fips_PARM_5'
                           1574 ;a                         Allocated with name '_fips_a_1_1'
                           1575 ;tmp                       Allocated with name '_fips_tmp_1_1'
                           1576 ;i                         Allocated with name '_fips_i_1_1'
                           1577 ;j                         Allocated with name '_fips_j_1_1'
                           1578 ;c                         Allocated with name '_fips_c_1_1'
                           1579 ;s                         Allocated with name '_fips_s_1_1'
                           1580 ;u                         Allocated to registers r5 
                           1581 ;v                         Allocated with name '_fips_v_1_1'
                           1582 ;t                         Allocated with name '_fips_t_1_1'
                           1583 ;sloc0                     Allocated with name '_fips_sloc0_1_0'
                           1584 ;sloc1                     Allocated with name '_fips_sloc1_1_0'
                           1585 ;sloc2                     Allocated with name '_fips_sloc2_1_0'
                           1586 ;sloc3                     Allocated with name '_fips_sloc3_1_0'
                           1587 ;sloc4                     Allocated with name '_fips_sloc4_1_0'
                           1588 ;sloc5                     Allocated with name '_fips_sloc5_1_0'
                           1589 ;result                    Allocated with name '_fips_result_1_1'
                           1590 ;------------------------------------------------------------
                           1591 ;	main.c:30: void fips(unsigned char *a, unsigned char *b, unsigned char *n, unsigned char n_prime, unsigned char *m) {
                           1592 ;	-----------------------------------------
                           1593 ;	 function fips
                           1594 ;	-----------------------------------------
   09A2                    1595 _fips:
   09A2 85 82 12           1596 	mov	_fips_a_1_1,dpl
   09A5 85 83 13           1597 	mov	(_fips_a_1_1 + 1),dph
   09A8 85 F0 14           1598 	mov	(_fips_a_1_1 + 2),b
                           1599 ;	main.c:38: signed   char  u    = 0;
   09AB 7D 00              1600 	mov	r5,#0x00
                           1601 ;	main.c:41: unsigned char  t[3] = {0, 0, 0};
   09AD 75 1E 00           1602 	mov	_fips_t_1_1,#0x00
   09B0 75 1F 00           1603 	mov	(_fips_t_1_1 + 0x0001),#0x00
   09B3 75 20 00           1604 	mov	(_fips_t_1_1 + 0x0002),#0x00
                           1605 ;	main.c:45: for (i = 0; i < SIZE; i++) {
   09B6 85 08 21           1606 	mov	_fips_sloc0_1_0,_fips_PARM_2
   09B9 85 09 22           1607 	mov	(_fips_sloc0_1_0 + 1),(_fips_PARM_2 + 1)
   09BC 85 0A 23           1608 	mov	(_fips_sloc0_1_0 + 2),(_fips_PARM_2 + 2)
   09BF 85 0B 24           1609 	mov	_fips_sloc1_1_0,_fips_PARM_3
   09C2 85 0C 25           1610 	mov	(_fips_sloc1_1_0 + 1),(_fips_PARM_3 + 1)
   09C5 85 0D 26           1611 	mov	(_fips_sloc1_1_0 + 2),(_fips_PARM_3 + 2)
   09C8 E4                 1612 	clr	a
   09C9 F5 17              1613 	mov	_fips_i_1_1,a
   09CB F5 18              1614 	mov	(_fips_i_1_1 + 1),a
   09CD                    1615 00107$:
   09CD C3                 1616 	clr	c
   09CE E5 17              1617 	mov	a,_fips_i_1_1
   09D0 94 80              1618 	subb	a,#0x80
   09D2 E5 18              1619 	mov	a,(_fips_i_1_1 + 1)
   09D4 94 00              1620 	subb	a,#0x00
   09D6 40 03              1621 	jc	00145$
   09D8 02 0B A1           1622 	ljmp	00110$
   09DB                    1623 00145$:
                           1624 ;	main.c:46: for (j = 0; j < i; j++) {
   09DB E4                 1625 	clr	a
   09DC F5 19              1626 	mov	_fips_j_1_1,a
   09DE F5 1A              1627 	mov	(_fips_j_1_1 + 1),a
   09E0                    1628 00103$:
   09E0 C3                 1629 	clr	c
   09E1 E5 19              1630 	mov	a,_fips_j_1_1
   09E3 95 17              1631 	subb	a,_fips_i_1_1
   09E5 E5 1A              1632 	mov	a,(_fips_j_1_1 + 1)
   09E7 95 18              1633 	subb	a,(_fips_i_1_1 + 1)
   09E9 40 03              1634 	jc	00146$
   09EB 02 0A C7           1635 	ljmp	00106$
   09EE                    1636 00146$:
                           1637 ;	main.c:47: tmp = t[0] + a[j]*b[i-j];
   09EE C0 05              1638 	push	ar5
   09F0 85 1E 28           1639 	mov	_fips_sloc3_1_0,_fips_t_1_1
   09F3 75 29 00           1640 	mov	(_fips_sloc3_1_0 + 1),#0x00
   09F6 E5 19              1641 	mov	a,_fips_j_1_1
   09F8 25 12              1642 	add	a,_fips_a_1_1
   09FA FF                 1643 	mov	r7,a
   09FB E5 1A              1644 	mov	a,(_fips_j_1_1 + 1)
   09FD 35 13              1645 	addc	a,(_fips_a_1_1 + 1)
   09FF FA                 1646 	mov	r2,a
   0A00 AB 14              1647 	mov	r3,(_fips_a_1_1 + 2)
   0A02 8F 82              1648 	mov	dpl,r7
   0A04 8A 83              1649 	mov	dph,r2
   0A06 8B F0              1650 	mov	b,r3
   0A08 12 0E 31           1651 	lcall	__gptrget
   0A0B F5 27              1652 	mov	_fips_sloc2_1_0,a
   0A0D E5 17              1653 	mov	a,_fips_i_1_1
   0A0F C3                 1654 	clr	c
   0A10 95 19              1655 	subb	a,_fips_j_1_1
   0A12 FA                 1656 	mov	r2,a
   0A13 E5 18              1657 	mov	a,(_fips_i_1_1 + 1)
   0A15 95 1A              1658 	subb	a,(_fips_j_1_1 + 1)
   0A17 FB                 1659 	mov	r3,a
   0A18 EA                 1660 	mov	a,r2
   0A19 25 21              1661 	add	a,_fips_sloc0_1_0
   0A1B FD                 1662 	mov	r5,a
   0A1C EB                 1663 	mov	a,r3
   0A1D 35 22              1664 	addc	a,(_fips_sloc0_1_0 + 1)
   0A1F FF                 1665 	mov	r7,a
   0A20 AC 23              1666 	mov	r4,(_fips_sloc0_1_0 + 2)
   0A22 8D 82              1667 	mov	dpl,r5
   0A24 8F 83              1668 	mov	dph,r7
   0A26 8C F0              1669 	mov	b,r4
   0A28 12 0E 31           1670 	lcall	__gptrget
   0A2B 85 27 F0           1671 	mov	b,_fips_sloc2_1_0
   0A2E A4                 1672 	mul	ab
   0A2F 25 28              1673 	add	a,_fips_sloc3_1_0
   0A31 F5 15              1674 	mov	_fips_tmp_1_1,a
   0A33 E5 29              1675 	mov	a,(_fips_sloc3_1_0 + 1)
   0A35 35 F0              1676 	addc	a,b
   0A37 F5 16              1677 	mov	(_fips_tmp_1_1 + 1),a
                           1678 ;	main.c:48: s = tmp;
   0A39 85 15 1C           1679 	mov	_fips_s_1_1,_fips_tmp_1_1
                           1680 ;	main.c:49: c = tmp >> 8;
   0A3C 85 16 1B           1681 	mov	_fips_c_1_1,(_fips_tmp_1_1 + 1)
                           1682 ;	main.c:51: tmp = t[1] + c;
   0A3F AC 1F              1683 	mov	r4,(_fips_t_1_1 + 0x0001)
   0A41 7D 00              1684 	mov	r5,#0x00
   0A43 AE 1B              1685 	mov	r6,_fips_c_1_1
   0A45 7F 00              1686 	mov	r7,#0x00
   0A47 EE                 1687 	mov	a,r6
   0A48 2C                 1688 	add	a,r4
   0A49 F5 15              1689 	mov	_fips_tmp_1_1,a
   0A4B EF                 1690 	mov	a,r7
   0A4C 3D                 1691 	addc	a,r5
   0A4D F5 16              1692 	mov	(_fips_tmp_1_1 + 1),a
                           1693 ;	main.c:52: t[1] = tmp;
   0A4F AC 15              1694 	mov	r4,_fips_tmp_1_1
   0A51 8C 1F              1695 	mov	(_fips_t_1_1 + 0x0001),r4
                           1696 ;	main.c:53: t[2] = t[2] + (tmp >> 8);
   0A53 E5 16              1697 	mov	a,(_fips_tmp_1_1 + 1)
   0A55 25 20              1698 	add	a,(_fips_t_1_1 + 0x0002)
   0A57 F5 27              1699 	mov	_fips_sloc2_1_0,a
   0A59 85 27 20           1700 	mov	(_fips_t_1_1 + 0x0002),_fips_sloc2_1_0
                           1701 ;	main.c:55: tmp = s + m[j]*n[i-j];
   0A5C 85 1C 28           1702 	mov	_fips_sloc3_1_0,_fips_s_1_1
   0A5F 75 29 00           1703 	mov	(_fips_sloc3_1_0 + 1),#0x00
   0A62 E5 19              1704 	mov	a,_fips_j_1_1
   0A64 25 0F              1705 	add	a,_fips_PARM_5
   0A66 FE                 1706 	mov	r6,a
   0A67 E5 1A              1707 	mov	a,(_fips_j_1_1 + 1)
   0A69 35 10              1708 	addc	a,(_fips_PARM_5 + 1)
   0A6B FF                 1709 	mov	r7,a
   0A6C AD 11              1710 	mov	r5,(_fips_PARM_5 + 2)
   0A6E 8E 82              1711 	mov	dpl,r6
   0A70 8F 83              1712 	mov	dph,r7
   0A72 8D F0              1713 	mov	b,r5
   0A74 12 0E 31           1714 	lcall	__gptrget
   0A77 FE                 1715 	mov	r6,a
   0A78 EA                 1716 	mov	a,r2
   0A79 25 24              1717 	add	a,_fips_sloc1_1_0
   0A7B FA                 1718 	mov	r2,a
   0A7C EB                 1719 	mov	a,r3
   0A7D 35 25              1720 	addc	a,(_fips_sloc1_1_0 + 1)
   0A7F FB                 1721 	mov	r3,a
   0A80 AD 26              1722 	mov	r5,(_fips_sloc1_1_0 + 2)
   0A82 8A 82              1723 	mov	dpl,r2
   0A84 8B 83              1724 	mov	dph,r3
   0A86 8D F0              1725 	mov	b,r5
   0A88 12 0E 31           1726 	lcall	__gptrget
   0A8B 8E F0              1727 	mov	b,r6
   0A8D A4                 1728 	mul	ab
   0A8E 25 28              1729 	add	a,_fips_sloc3_1_0
   0A90 F5 15              1730 	mov	_fips_tmp_1_1,a
   0A92 E5 29              1731 	mov	a,(_fips_sloc3_1_0 + 1)
   0A94 35 F0              1732 	addc	a,b
   0A96 F5 16              1733 	mov	(_fips_tmp_1_1 + 1),a
                           1734 ;	main.c:56: s = tmp;
   0A98 85 15 1C           1735 	mov	_fips_s_1_1,_fips_tmp_1_1
                           1736 ;	main.c:57: c = tmp >> 8;
   0A9B 85 16 1B           1737 	mov	_fips_c_1_1,(_fips_tmp_1_1 + 1)
                           1738 ;	main.c:59: t[0] = s;
   0A9E 85 1C 1E           1739 	mov	_fips_t_1_1,_fips_s_1_1
                           1740 ;	main.c:61: tmp = t[1] + c;
   0AA1 7A 00              1741 	mov	r2,#0x00
   0AA3 AB 1B              1742 	mov	r3,_fips_c_1_1
   0AA5 7D 00              1743 	mov	r5,#0x00
   0AA7 EB                 1744 	mov	a,r3
   0AA8 2C                 1745 	add	a,r4
   0AA9 F5 15              1746 	mov	_fips_tmp_1_1,a
   0AAB ED                 1747 	mov	a,r5
   0AAC 3A                 1748 	addc	a,r2
   0AAD F5 16              1749 	mov	(_fips_tmp_1_1 + 1),a
                           1750 ;	main.c:62: t[1] = tmp;
   0AAF AA 15              1751 	mov	r2,_fips_tmp_1_1
   0AB1 8A 1F              1752 	mov	(_fips_t_1_1 + 0x0001),r2
                           1753 ;	main.c:63: t[2] = t[2] + (tmp >> 8);
   0AB3 E5 16              1754 	mov	a,(_fips_tmp_1_1 + 1)
   0AB5 FA                 1755 	mov	r2,a
   0AB6 25 27              1756 	add	a,_fips_sloc2_1_0
   0AB8 F5 20              1757 	mov	(_fips_t_1_1 + 0x0002),a
                           1758 ;	main.c:46: for (j = 0; j < i; j++) {
   0ABA 05 19              1759 	inc	_fips_j_1_1
   0ABC E4                 1760 	clr	a
   0ABD B5 19 02           1761 	cjne	a,_fips_j_1_1,00147$
   0AC0 05 1A              1762 	inc	(_fips_j_1_1 + 1)
   0AC2                    1763 00147$:
   0AC2 D0 05              1764 	pop	ar5
   0AC4 02 09 E0           1765 	ljmp	00103$
   0AC7                    1766 00106$:
                           1767 ;	main.c:66: tmp = t[0] + a[i]*b[0];
   0AC7 C0 05              1768 	push	ar5
   0AC9 AA 1E              1769 	mov	r2,_fips_t_1_1
   0ACB 7B 00              1770 	mov	r3,#0x00
   0ACD E5 17              1771 	mov	a,_fips_i_1_1
   0ACF 25 12              1772 	add	a,_fips_a_1_1
   0AD1 FC                 1773 	mov	r4,a
   0AD2 E5 18              1774 	mov	a,(_fips_i_1_1 + 1)
   0AD4 35 13              1775 	addc	a,(_fips_a_1_1 + 1)
   0AD6 FE                 1776 	mov	r6,a
   0AD7 AF 14              1777 	mov	r7,(_fips_a_1_1 + 2)
   0AD9 8C 82              1778 	mov	dpl,r4
   0ADB 8E 83              1779 	mov	dph,r6
   0ADD 8F F0              1780 	mov	b,r7
   0ADF 12 0E 31           1781 	lcall	__gptrget
   0AE2 FC                 1782 	mov	r4,a
   0AE3 85 21 82           1783 	mov	dpl,_fips_sloc0_1_0
   0AE6 85 22 83           1784 	mov	dph,(_fips_sloc0_1_0 + 1)
   0AE9 85 23 F0           1785 	mov	b,(_fips_sloc0_1_0 + 2)
   0AEC 12 0E 31           1786 	lcall	__gptrget
   0AEF 8C F0              1787 	mov	b,r4
   0AF1 A4                 1788 	mul	ab
   0AF2 2A                 1789 	add	a,r2
   0AF3 F5 15              1790 	mov	_fips_tmp_1_1,a
   0AF5 EB                 1791 	mov	a,r3
   0AF6 35 F0              1792 	addc	a,b
   0AF8 F5 16              1793 	mov	(_fips_tmp_1_1 + 1),a
                           1794 ;	main.c:67: s = tmp;
   0AFA 85 15 1C           1795 	mov	_fips_s_1_1,_fips_tmp_1_1
                           1796 ;	main.c:68: c = tmp >> 8;
   0AFD 85 16 1B           1797 	mov	_fips_c_1_1,(_fips_tmp_1_1 + 1)
                           1798 ;	main.c:70: tmp = t[1] + c;
   0B00 AA 1F              1799 	mov	r2,(_fips_t_1_1 + 0x0001)
   0B02 7B 00              1800 	mov	r3,#0x00
   0B04 AC 1B              1801 	mov	r4,_fips_c_1_1
   0B06 7E 00              1802 	mov	r6,#0x00
   0B08 EC                 1803 	mov	a,r4
   0B09 2A                 1804 	add	a,r2
   0B0A F5 15              1805 	mov	_fips_tmp_1_1,a
   0B0C EE                 1806 	mov	a,r6
   0B0D 3B                 1807 	addc	a,r3
   0B0E F5 16              1808 	mov	(_fips_tmp_1_1 + 1),a
                           1809 ;	main.c:71: t[1] = tmp;
   0B10 AA 15              1810 	mov	r2,_fips_tmp_1_1
   0B12 8A 1F              1811 	mov	(_fips_t_1_1 + 0x0001),r2
                           1812 ;	main.c:72: t[2] = t[2] + (tmp >> 8);
   0B14 E5 16              1813 	mov	a,(_fips_tmp_1_1 + 1)
   0B16 25 20              1814 	add	a,(_fips_t_1_1 + 0x0002)
   0B18 FB                 1815 	mov	r3,a
   0B19 8B 20              1816 	mov	(_fips_t_1_1 + 0x0002),r3
                           1817 ;	main.c:74: m[i] = (s*n_prime)%256;
   0B1B E5 17              1818 	mov	a,_fips_i_1_1
   0B1D 25 0F              1819 	add	a,_fips_PARM_5
   0B1F F5 2A              1820 	mov	_fips_sloc4_1_0,a
   0B21 E5 18              1821 	mov	a,(_fips_i_1_1 + 1)
   0B23 35 10              1822 	addc	a,(_fips_PARM_5 + 1)
   0B25 F5 2B              1823 	mov	(_fips_sloc4_1_0 + 1),a
   0B27 85 11 2C           1824 	mov	(_fips_sloc4_1_0 + 2),(_fips_PARM_5 + 2)
   0B2A 85 1C F0           1825 	mov	b,_fips_s_1_1
   0B2D E5 0E              1826 	mov	a,_fips_PARM_4
   0B2F A4                 1827 	mul	ab
   0B30 F5 82              1828 	mov	dpl,a
   0B32 85 F0 83           1829 	mov	dph,b
   0B35 75 2F 00           1830 	mov	__modsint_PARM_2,#0x00
   0B38 75 30 01           1831 	mov	(__modsint_PARM_2 + 1),#0x01
   0B3B C0 02              1832 	push	ar2
   0B3D C0 03              1833 	push	ar3
   0B3F 12 0E 4D           1834 	lcall	__modsint
   0B42 AD 82              1835 	mov	r5,dpl
   0B44 D0 03              1836 	pop	ar3
   0B46 D0 02              1837 	pop	ar2
   0B48 85 2A 82           1838 	mov	dpl,_fips_sloc4_1_0
   0B4B 85 2B 83           1839 	mov	dph,(_fips_sloc4_1_0 + 1)
   0B4E 85 2C F0           1840 	mov	b,(_fips_sloc4_1_0 + 2)
   0B51 ED                 1841 	mov	a,r5
   0B52 12 0D CB           1842 	lcall	__gptrput
                           1843 ;	main.c:76: tmp = s + m[i]*n[0];
   0B55 AC 1C              1844 	mov	r4,_fips_s_1_1
   0B57 7E 00              1845 	mov	r6,#0x00
   0B59 85 24 82           1846 	mov	dpl,_fips_sloc1_1_0
   0B5C 85 25 83           1847 	mov	dph,(_fips_sloc1_1_0 + 1)
   0B5F 85 26 F0           1848 	mov	b,(_fips_sloc1_1_0 + 2)
   0B62 12 0E 31           1849 	lcall	__gptrget
   0B65 FF                 1850 	mov	r7,a
   0B66 8D F0              1851 	mov	b,r5
   0B68 A4                 1852 	mul	ab
   0B69 2C                 1853 	add	a,r4
   0B6A F5 15              1854 	mov	_fips_tmp_1_1,a
   0B6C EE                 1855 	mov	a,r6
   0B6D 35 F0              1856 	addc	a,b
   0B6F F5 16              1857 	mov	(_fips_tmp_1_1 + 1),a
                           1858 ;	main.c:78: c = tmp >> 8;
   0B71 85 16 1B           1859 	mov	_fips_c_1_1,(_fips_tmp_1_1 + 1)
                           1860 ;	main.c:80: tmp = t[1] + c;
   0B74 7C 00              1861 	mov	r4,#0x00
   0B76 AD 1B              1862 	mov	r5,_fips_c_1_1
   0B78 7E 00              1863 	mov	r6,#0x00
   0B7A ED                 1864 	mov	a,r5
   0B7B 2A                 1865 	add	a,r2
   0B7C F5 15              1866 	mov	_fips_tmp_1_1,a
   0B7E EE                 1867 	mov	a,r6
   0B7F 3C                 1868 	addc	a,r4
   0B80 F5 16              1869 	mov	(_fips_tmp_1_1 + 1),a
                           1870 ;	main.c:81: t[1] = tmp;
   0B82 AA 15              1871 	mov	r2,_fips_tmp_1_1
   0B84 8A 1F              1872 	mov	(_fips_t_1_1 + 0x0001),r2
                           1873 ;	main.c:82: t[2] = t[2] + (tmp >> 8);
   0B86 E5 16              1874 	mov	a,(_fips_tmp_1_1 + 1)
   0B88 FC                 1875 	mov	r4,a
   0B89 2B                 1876 	add	a,r3
   0B8A FB                 1877 	mov	r3,a
   0B8B 8B 20              1878 	mov	(_fips_t_1_1 + 0x0002),r3
                           1879 ;	main.c:84: t[0] = t[1];
   0B8D 8A 1E              1880 	mov	_fips_t_1_1,r2
                           1881 ;	main.c:85: t[1] = t[2];
   0B8F 8B 1F              1882 	mov	(_fips_t_1_1 + 0x0001),r3
                           1883 ;	main.c:86: t[2] = 0;
   0B91 75 20 00           1884 	mov	(_fips_t_1_1 + 0x0002),#0x00
                           1885 ;	main.c:45: for (i = 0; i < SIZE; i++) {
   0B94 05 17              1886 	inc	_fips_i_1_1
   0B96 E4                 1887 	clr	a
   0B97 B5 17 02           1888 	cjne	a,_fips_i_1_1,00148$
   0B9A 05 18              1889 	inc	(_fips_i_1_1 + 1)
   0B9C                    1890 00148$:
   0B9C D0 05              1891 	pop	ar5
   0B9E 02 09 CD           1892 	ljmp	00107$
   0BA1                    1893 00110$:
                           1894 ;	main.c:89: for (i = SIZE; i < 2*SIZE; i++) {
   0BA1 75 17 80           1895 	mov	_fips_i_1_1,#0x80
   0BA4 E4                 1896 	clr	a
   0BA5 F5 18              1897 	mov	(_fips_i_1_1 + 1),a
   0BA7                    1898 00115$:
   0BA7 74 FF              1899 	mov	a,#0x100 - 0x01
   0BA9 25 18              1900 	add	a,(_fips_i_1_1 + 1)
   0BAB 50 03              1901 	jnc	00149$
   0BAD 02 0C D4           1902 	ljmp	00118$
   0BB0                    1903 00149$:
                           1904 ;	main.c:90: for (j = i-SIZE+1; j < SIZE; j++) {
   0BB0 74 81              1905 	mov	a,#0x81
   0BB2 25 17              1906 	add	a,_fips_i_1_1
   0BB4 FC                 1907 	mov	r4,a
   0BB5 74 FF              1908 	mov	a,#0xFF
   0BB7 35 18              1909 	addc	a,(_fips_i_1_1 + 1)
   0BB9 FE                 1910 	mov	r6,a
   0BBA                    1911 00111$:
   0BBA C3                 1912 	clr	c
   0BBB EC                 1913 	mov	a,r4
   0BBC 94 80              1914 	subb	a,#0x80
   0BBE EE                 1915 	mov	a,r6
   0BBF 94 00              1916 	subb	a,#0x00
   0BC1 40 03              1917 	jc	00150$
   0BC3 02 0C 9E           1918 	ljmp	00114$
   0BC6                    1919 00150$:
                           1920 ;	main.c:91: tmp = t[0] + a[j]*b[i-j];
   0BC6 C0 05              1921 	push	ar5
   0BC8 85 1E 2A           1922 	mov	_fips_sloc4_1_0,_fips_t_1_1
   0BCB 75 2B 00           1923 	mov	(_fips_sloc4_1_0 + 1),#0x00
   0BCE EC                 1924 	mov	a,r4
   0BCF 25 12              1925 	add	a,_fips_a_1_1
   0BD1 FB                 1926 	mov	r3,a
   0BD2 EE                 1927 	mov	a,r6
   0BD3 35 13              1928 	addc	a,(_fips_a_1_1 + 1)
   0BD5 FD                 1929 	mov	r5,a
   0BD6 AA 14              1930 	mov	r2,(_fips_a_1_1 + 2)
   0BD8 8B 82              1931 	mov	dpl,r3
   0BDA 8D 83              1932 	mov	dph,r5
   0BDC 8A F0              1933 	mov	b,r2
   0BDE 12 0E 31           1934 	lcall	__gptrget
   0BE1 F5 28              1935 	mov	_fips_sloc3_1_0,a
   0BE3 E5 17              1936 	mov	a,_fips_i_1_1
   0BE5 C3                 1937 	clr	c
   0BE6 9C                 1938 	subb	a,r4
   0BE7 F5 2D              1939 	mov	_fips_sloc5_1_0,a
   0BE9 E5 18              1940 	mov	a,(_fips_i_1_1 + 1)
   0BEB 9E                 1941 	subb	a,r6
   0BEC F5 2E              1942 	mov	(_fips_sloc5_1_0 + 1),a
   0BEE E5 2D              1943 	mov	a,_fips_sloc5_1_0
   0BF0 25 21              1944 	add	a,_fips_sloc0_1_0
   0BF2 FF                 1945 	mov	r7,a
   0BF3 E5 2E              1946 	mov	a,(_fips_sloc5_1_0 + 1)
   0BF5 35 22              1947 	addc	a,(_fips_sloc0_1_0 + 1)
   0BF7 FB                 1948 	mov	r3,a
   0BF8 AA 23              1949 	mov	r2,(_fips_sloc0_1_0 + 2)
   0BFA 8F 82              1950 	mov	dpl,r7
   0BFC 8B 83              1951 	mov	dph,r3
   0BFE 8A F0              1952 	mov	b,r2
   0C00 12 0E 31           1953 	lcall	__gptrget
   0C03 85 28 F0           1954 	mov	b,_fips_sloc3_1_0
   0C06 A4                 1955 	mul	ab
   0C07 25 2A              1956 	add	a,_fips_sloc4_1_0
   0C09 F5 15              1957 	mov	_fips_tmp_1_1,a
   0C0B E5 2B              1958 	mov	a,(_fips_sloc4_1_0 + 1)
   0C0D 35 F0              1959 	addc	a,b
   0C0F F5 16              1960 	mov	(_fips_tmp_1_1 + 1),a
                           1961 ;	main.c:92: s = tmp;
   0C11 85 15 1C           1962 	mov	_fips_s_1_1,_fips_tmp_1_1
                           1963 ;	main.c:93: c = tmp >> 8;
   0C14 85 16 1B           1964 	mov	_fips_c_1_1,(_fips_tmp_1_1 + 1)
                           1965 ;	main.c:95: tmp = t[1] + c;
   0C17 AA 1F              1966 	mov	r2,(_fips_t_1_1 + 0x0001)
   0C19 7B 00              1967 	mov	r3,#0x00
   0C1B AD 1B              1968 	mov	r5,_fips_c_1_1
   0C1D 7F 00              1969 	mov	r7,#0x00
   0C1F ED                 1970 	mov	a,r5
   0C20 2A                 1971 	add	a,r2
   0C21 F5 15              1972 	mov	_fips_tmp_1_1,a
   0C23 EF                 1973 	mov	a,r7
   0C24 3B                 1974 	addc	a,r3
   0C25 F5 16              1975 	mov	(_fips_tmp_1_1 + 1),a
                           1976 ;	main.c:96: t[1] = tmp;
   0C27 AA 15              1977 	mov	r2,_fips_tmp_1_1
   0C29 8A 1F              1978 	mov	(_fips_t_1_1 + 0x0001),r2
                           1979 ;	main.c:97: t[2] = t[2] + (tmp >> 8);
   0C2B E5 16              1980 	mov	a,(_fips_tmp_1_1 + 1)
   0C2D 25 20              1981 	add	a,(_fips_t_1_1 + 0x0002)
   0C2F F5 28              1982 	mov	_fips_sloc3_1_0,a
   0C31 85 28 20           1983 	mov	(_fips_t_1_1 + 0x0002),_fips_sloc3_1_0
                           1984 ;	main.c:99: tmp = s + m[j]*n[i-j];
   0C34 85 1C 2A           1985 	mov	_fips_sloc4_1_0,_fips_s_1_1
   0C37 75 2B 00           1986 	mov	(_fips_sloc4_1_0 + 1),#0x00
   0C3A EC                 1987 	mov	a,r4
   0C3B 25 0F              1988 	add	a,_fips_PARM_5
   0C3D FD                 1989 	mov	r5,a
   0C3E EE                 1990 	mov	a,r6
   0C3F 35 10              1991 	addc	a,(_fips_PARM_5 + 1)
   0C41 FF                 1992 	mov	r7,a
   0C42 AB 11              1993 	mov	r3,(_fips_PARM_5 + 2)
   0C44 8D 82              1994 	mov	dpl,r5
   0C46 8F 83              1995 	mov	dph,r7
   0C48 8B F0              1996 	mov	b,r3
   0C4A 12 0E 31           1997 	lcall	__gptrget
   0C4D F5 27              1998 	mov	_fips_sloc2_1_0,a
   0C4F E5 2D              1999 	mov	a,_fips_sloc5_1_0
   0C51 25 24              2000 	add	a,_fips_sloc1_1_0
   0C53 FB                 2001 	mov	r3,a
   0C54 E5 2E              2002 	mov	a,(_fips_sloc5_1_0 + 1)
   0C56 35 25              2003 	addc	a,(_fips_sloc1_1_0 + 1)
   0C58 FF                 2004 	mov	r7,a
   0C59 AD 26              2005 	mov	r5,(_fips_sloc1_1_0 + 2)
   0C5B 8B 82              2006 	mov	dpl,r3
   0C5D 8F 83              2007 	mov	dph,r7
   0C5F 8D F0              2008 	mov	b,r5
   0C61 12 0E 31           2009 	lcall	__gptrget
   0C64 85 27 F0           2010 	mov	b,_fips_sloc2_1_0
   0C67 A4                 2011 	mul	ab
   0C68 25 2A              2012 	add	a,_fips_sloc4_1_0
   0C6A F5 15              2013 	mov	_fips_tmp_1_1,a
   0C6C E5 2B              2014 	mov	a,(_fips_sloc4_1_0 + 1)
   0C6E 35 F0              2015 	addc	a,b
   0C70 F5 16              2016 	mov	(_fips_tmp_1_1 + 1),a
                           2017 ;	main.c:100: s = tmp;
   0C72 85 15 1C           2018 	mov	_fips_s_1_1,_fips_tmp_1_1
                           2019 ;	main.c:101: c = tmp >> 8;
   0C75 85 16 1B           2020 	mov	_fips_c_1_1,(_fips_tmp_1_1 + 1)
                           2021 ;	main.c:103: t[0] = s;
   0C78 85 1C 1E           2022 	mov	_fips_t_1_1,_fips_s_1_1
                           2023 ;	main.c:105: tmp = t[1] + c;
   0C7B 7B 00              2024 	mov	r3,#0x00
   0C7D AD 1B              2025 	mov	r5,_fips_c_1_1
   0C7F 7F 00              2026 	mov	r7,#0x00
   0C81 ED                 2027 	mov	a,r5
   0C82 2A                 2028 	add	a,r2
   0C83 F5 15              2029 	mov	_fips_tmp_1_1,a
   0C85 EF                 2030 	mov	a,r7
   0C86 3B                 2031 	addc	a,r3
   0C87 F5 16              2032 	mov	(_fips_tmp_1_1 + 1),a
                           2033 ;	main.c:106: t[1] = tmp;
   0C89 AA 15              2034 	mov	r2,_fips_tmp_1_1
   0C8B 8A 1F              2035 	mov	(_fips_t_1_1 + 0x0001),r2
                           2036 ;	main.c:107: t[2] = t[2] + (tmp >> 8);
   0C8D E5 16              2037 	mov	a,(_fips_tmp_1_1 + 1)
   0C8F FA                 2038 	mov	r2,a
   0C90 25 28              2039 	add	a,_fips_sloc3_1_0
   0C92 F5 20              2040 	mov	(_fips_t_1_1 + 0x0002),a
                           2041 ;	main.c:90: for (j = i-SIZE+1; j < SIZE; j++) {
   0C94 0C                 2042 	inc	r4
   0C95 BC 00 01           2043 	cjne	r4,#0x00,00151$
   0C98 0E                 2044 	inc	r6
   0C99                    2045 00151$:
   0C99 D0 05              2046 	pop	ar5
   0C9B 02 0B BA           2047 	ljmp	00111$
   0C9E                    2048 00114$:
                           2049 ;	main.c:110: m[i - SIZE] = t[0];
   0C9E E5 17              2050 	mov	a,_fips_i_1_1
   0CA0 24 80              2051 	add	a,#0x80
   0CA2 FA                 2052 	mov	r2,a
   0CA3 E5 18              2053 	mov	a,(_fips_i_1_1 + 1)
   0CA5 34 FF              2054 	addc	a,#0xff
   0CA7 FB                 2055 	mov	r3,a
   0CA8 EA                 2056 	mov	a,r2
   0CA9 25 0F              2057 	add	a,_fips_PARM_5
   0CAB FA                 2058 	mov	r2,a
   0CAC EB                 2059 	mov	a,r3
   0CAD 35 10              2060 	addc	a,(_fips_PARM_5 + 1)
   0CAF FB                 2061 	mov	r3,a
   0CB0 AC 11              2062 	mov	r4,(_fips_PARM_5 + 2)
   0CB2 AE 1E              2063 	mov	r6,_fips_t_1_1
   0CB4 8A 82              2064 	mov	dpl,r2
   0CB6 8B 83              2065 	mov	dph,r3
   0CB8 8C F0              2066 	mov	b,r4
   0CBA EE                 2067 	mov	a,r6
   0CBB 12 0D CB           2068 	lcall	__gptrput
                           2069 ;	main.c:111: t[0] = t[1];
   0CBE AA 1F              2070 	mov	r2,(_fips_t_1_1 + 0x0001)
   0CC0 8A 1E              2071 	mov	_fips_t_1_1,r2
                           2072 ;	main.c:112: t[1] = t[2];
   0CC2 AA 20              2073 	mov	r2,(_fips_t_1_1 + 0x0002)
   0CC4 8A 1F              2074 	mov	(_fips_t_1_1 + 0x0001),r2
                           2075 ;	main.c:113: t[2] = 0;
   0CC6 75 20 00           2076 	mov	(_fips_t_1_1 + 0x0002),#0x00
                           2077 ;	main.c:89: for (i = SIZE; i < 2*SIZE; i++) {
   0CC9 05 17              2078 	inc	_fips_i_1_1
   0CCB E4                 2079 	clr	a
   0CCC B5 17 02           2080 	cjne	a,_fips_i_1_1,00152$
   0CCF 05 18              2081 	inc	(_fips_i_1_1 + 1)
   0CD1                    2082 00152$:
   0CD1 02 0B A7           2083 	ljmp	00115$
   0CD4                    2084 00118$:
                           2085 ;	main.c:116: v = 0;
                           2086 ;	main.c:117: for (i = 0; i < SIZE; i++) {
   0CD4 E4                 2087 	clr	a
   0CD5 F5 1D              2088 	mov	_fips_v_1_1,a
   0CD7 F5 17              2089 	mov	_fips_i_1_1,a
   0CD9 F5 18              2090 	mov	(_fips_i_1_1 + 1),a
   0CDB                    2091 00119$:
   0CDB C3                 2092 	clr	c
   0CDC E5 17              2093 	mov	a,_fips_i_1_1
   0CDE 94 80              2094 	subb	a,#0x80
   0CE0 E5 18              2095 	mov	a,(_fips_i_1_1 + 1)
   0CE2 94 00              2096 	subb	a,#0x00
   0CE4 50 62              2097 	jnc	00122$
                           2098 ;	main.c:118: tmp = m[i] - n[i] - v;
   0CE6 E5 17              2099 	mov	a,_fips_i_1_1
   0CE8 25 0F              2100 	add	a,_fips_PARM_5
   0CEA FE                 2101 	mov	r6,a
   0CEB E5 18              2102 	mov	a,(_fips_i_1_1 + 1)
   0CED 35 10              2103 	addc	a,(_fips_PARM_5 + 1)
   0CEF FF                 2104 	mov	r7,a
   0CF0 AA 11              2105 	mov	r2,(_fips_PARM_5 + 2)
   0CF2 8E 82              2106 	mov	dpl,r6
   0CF4 8F 83              2107 	mov	dph,r7
   0CF6 8A F0              2108 	mov	b,r2
   0CF8 12 0E 31           2109 	lcall	__gptrget
   0CFB FE                 2110 	mov	r6,a
   0CFC 7A 00              2111 	mov	r2,#0x00
   0CFE E5 17              2112 	mov	a,_fips_i_1_1
   0D00 25 24              2113 	add	a,_fips_sloc1_1_0
   0D02 FF                 2114 	mov	r7,a
   0D03 E5 18              2115 	mov	a,(_fips_i_1_1 + 1)
   0D05 35 25              2116 	addc	a,(_fips_sloc1_1_0 + 1)
   0D07 FB                 2117 	mov	r3,a
   0D08 AC 26              2118 	mov	r4,(_fips_sloc1_1_0 + 2)
   0D0A 8F 82              2119 	mov	dpl,r7
   0D0C 8B 83              2120 	mov	dph,r3
   0D0E 8C F0              2121 	mov	b,r4
   0D10 12 0E 31           2122 	lcall	__gptrget
   0D13 FF                 2123 	mov	r7,a
   0D14 7B 00              2124 	mov	r3,#0x00
   0D16 EE                 2125 	mov	a,r6
   0D17 C3                 2126 	clr	c
   0D18 9F                 2127 	subb	a,r7
   0D19 FE                 2128 	mov	r6,a
   0D1A EA                 2129 	mov	a,r2
   0D1B 9B                 2130 	subb	a,r3
   0D1C FA                 2131 	mov	r2,a
   0D1D E5 1D              2132 	mov	a,_fips_v_1_1
   0D1F FB                 2133 	mov	r3,a
   0D20 33                 2134 	rlc	a
   0D21 95 E0              2135 	subb	a,acc
   0D23 FC                 2136 	mov	r4,a
   0D24 EE                 2137 	mov	a,r6
   0D25 C3                 2138 	clr	c
   0D26 9B                 2139 	subb	a,r3
   0D27 F5 15              2140 	mov	_fips_tmp_1_1,a
   0D29 EA                 2141 	mov	a,r2
   0D2A 9C                 2142 	subb	a,r4
   0D2B F5 16              2143 	mov	(_fips_tmp_1_1 + 1),a
                           2144 ;	main.c:119: v = tmp;
   0D2D 85 15 1D           2145 	mov	_fips_v_1_1,_fips_tmp_1_1
                           2146 ;	main.c:120: u = tmp >> 8;
   0D30 AD 16              2147 	mov	r5,(_fips_tmp_1_1 + 1)
                           2148 ;	main.c:122: result[i] = v;
   0D32 85 17 82           2149 	mov	dpl,_fips_i_1_1
   0D35 74 03              2150 	mov	a,#(_fips_result_1_1 >> 8)
   0D37 25 18              2151 	add	a,(_fips_i_1_1 + 1)
   0D39 F5 83              2152 	mov	dph,a
   0D3B E5 1D              2153 	mov	a,_fips_v_1_1
   0D3D F0                 2154 	movx	@dptr,a
                           2155 ;	main.c:117: for (i = 0; i < SIZE; i++) {
   0D3E 05 17              2156 	inc	_fips_i_1_1
   0D40 E4                 2157 	clr	a
   0D41 B5 17 97           2158 	cjne	a,_fips_i_1_1,00119$
   0D44 05 18              2159 	inc	(_fips_i_1_1 + 1)
   0D46 80 93              2160 	sjmp	00119$
   0D48                    2161 00122$:
                           2162 ;	main.c:125: tmp = m[SIZE] - u;
   0D48 74 80              2163 	mov	a,#0x80
   0D4A 25 0F              2164 	add	a,_fips_PARM_5
   0D4C FA                 2165 	mov	r2,a
   0D4D E4                 2166 	clr	a
   0D4E 35 10              2167 	addc	a,(_fips_PARM_5 + 1)
   0D50 FB                 2168 	mov	r3,a
   0D51 AC 11              2169 	mov	r4,(_fips_PARM_5 + 2)
   0D53 8A 82              2170 	mov	dpl,r2
   0D55 8B 83              2171 	mov	dph,r3
   0D57 8C F0              2172 	mov	b,r4
   0D59 12 0E 31           2173 	lcall	__gptrget
   0D5C FA                 2174 	mov	r2,a
   0D5D 7B 00              2175 	mov	r3,#0x00
   0D5F ED                 2176 	mov	a,r5
   0D60 33                 2177 	rlc	a
   0D61 95 E0              2178 	subb	a,acc
   0D63 FC                 2179 	mov	r4,a
   0D64 EA                 2180 	mov	a,r2
   0D65 C3                 2181 	clr	c
   0D66 9D                 2182 	subb	a,r5
   0D67 F5 15              2183 	mov	_fips_tmp_1_1,a
   0D69 EB                 2184 	mov	a,r3
   0D6A 9C                 2185 	subb	a,r4
   0D6B F5 16              2186 	mov	(_fips_tmp_1_1 + 1),a
                           2187 ;	main.c:127: result[SIZE] = tmp >> 8;
   0D6D AA 16              2188 	mov	r2,(_fips_tmp_1_1 + 1)
   0D6F 90 03 80           2189 	mov	dptr,#(_fips_result_1_1 + 0x0080)
   0D72 EA                 2190 	mov	a,r2
   0D73 F0                 2191 	movx	@dptr,a
                           2192 ;	main.c:135: return;
   0D74 22                 2193 	ret
                           2194 ;------------------------------------------------------------
                           2195 ;Allocation info for local variables in function 'add'
                           2196 ;------------------------------------------------------------
                           2197 ;c                         Allocated with name '_add_PARM_2'
                           2198 ;t                         Allocated with name '_add_t_1_1'
                           2199 ;tmp                       Allocated to registers r0 r1 
                           2200 ;------------------------------------------------------------
                           2201 ;	main.c:138: void add(unsigned char *t, unsigned char c) {
                           2202 ;	-----------------------------------------
                           2203 ;	 function add
                           2204 ;	-----------------------------------------
   0D75                    2205 _add:
   0D75 85 82 30           2206 	mov	_add_t_1_1,dpl
   0D78 85 83 31           2207 	mov	(_add_t_1_1 + 1),dph
   0D7B 85 F0 32           2208 	mov	(_add_t_1_1 + 2),b
                           2209 ;	main.c:139: unsigned short tmp = t[1] + c;
   0D7E 74 01              2210 	mov	a,#0x01
   0D80 25 30              2211 	add	a,_add_t_1_1
   0D82 FD                 2212 	mov	r5,a
   0D83 E4                 2213 	clr	a
   0D84 35 31              2214 	addc	a,(_add_t_1_1 + 1)
   0D86 FE                 2215 	mov	r6,a
   0D87 AF 32              2216 	mov	r7,(_add_t_1_1 + 2)
   0D89 8D 82              2217 	mov	dpl,r5
   0D8B 8E 83              2218 	mov	dph,r6
   0D8D 8F F0              2219 	mov	b,r7
   0D8F 12 0E 31           2220 	lcall	__gptrget
   0D92 F8                 2221 	mov	r0,a
   0D93 79 00              2222 	mov	r1,#0x00
   0D95 AA 2F              2223 	mov	r2,_add_PARM_2
   0D97 7B 00              2224 	mov	r3,#0x00
   0D99 EA                 2225 	mov	a,r2
   0D9A 28                 2226 	add	a,r0
   0D9B F8                 2227 	mov	r0,a
   0D9C EB                 2228 	mov	a,r3
   0D9D 39                 2229 	addc	a,r1
   0D9E F9                 2230 	mov	r1,a
                           2231 ;	main.c:141: t[1] = tmp;
   0D9F 88 02              2232 	mov	ar2,r0
   0DA1 8D 82              2233 	mov	dpl,r5
   0DA3 8E 83              2234 	mov	dph,r6
   0DA5 8F F0              2235 	mov	b,r7
   0DA7 EA                 2236 	mov	a,r2
   0DA8 12 0D CB           2237 	lcall	__gptrput
                           2238 ;	main.c:142: t[2] = t[2] + (tmp >> 8);
   0DAB 74 02              2239 	mov	a,#0x02
   0DAD 25 30              2240 	add	a,_add_t_1_1
   0DAF FA                 2241 	mov	r2,a
   0DB0 E4                 2242 	clr	a
   0DB1 35 31              2243 	addc	a,(_add_t_1_1 + 1)
   0DB3 FB                 2244 	mov	r3,a
   0DB4 AC 32              2245 	mov	r4,(_add_t_1_1 + 2)
   0DB6 8A 82              2246 	mov	dpl,r2
   0DB8 8B 83              2247 	mov	dph,r3
   0DBA 8C F0              2248 	mov	b,r4
   0DBC 12 0E 31           2249 	lcall	__gptrget
   0DBF FD                 2250 	mov	r5,a
   0DC0 E9                 2251 	mov	a,r1
   0DC1 2D                 2252 	add	a,r5
   0DC2 8A 82              2253 	mov	dpl,r2
   0DC4 8B 83              2254 	mov	dph,r3
   0DC6 8C F0              2255 	mov	b,r4
   0DC8 02 0D CB           2256 	ljmp	__gptrput
                           2257 	.area CSEG    (CODE)
                           2258 	.area CONST   (CODE)
                           2259 	.area XINIT   (CODE)
                           2260 	.area CABS    (ABS,CODE)
