                              1 ;--------------------------------------------------------
                              2 ; File Created by SDCC : free open source ANSI-C Compiler
                              3 ; Version 2.9.0 #5416 (Aug  6 2010) (UNIX)
                              4 ; This file was generated Thu Dec 13 10:43:59 2012
                              5 ;--------------------------------------------------------
                              6 	.module decryption
                              7 	.optsdcc -mmcs51 --model-small
                              8 	
                              9 ;--------------------------------------------------------
                             10 ; Public variables in this module
                             11 ;--------------------------------------------------------
                             12 	.globl _main
                             13 	.globl _terminate
                             14 	.globl _montgomery_exp
                             15 	.globl _read_r
                             16 	.globl _write_data
                             17 	.globl _CY
                             18 	.globl _AC
                             19 	.globl _F0
                             20 	.globl _RS1
                             21 	.globl _RS0
                             22 	.globl _OV
                             23 	.globl _F1
                             24 	.globl _P
                             25 	.globl _PS
                             26 	.globl _PT1
                             27 	.globl _PX1
                             28 	.globl _PT0
                             29 	.globl _PX0
                             30 	.globl _RD
                             31 	.globl _WR
                             32 	.globl _T1
                             33 	.globl _T0
                             34 	.globl _INT1
                             35 	.globl _INT0
                             36 	.globl _TXD
                             37 	.globl _RXD
                             38 	.globl _P3_7
                             39 	.globl _P3_6
                             40 	.globl _P3_5
                             41 	.globl _P3_4
                             42 	.globl _P3_3
                             43 	.globl _P3_2
                             44 	.globl _P3_1
                             45 	.globl _P3_0
                             46 	.globl _EA
                             47 	.globl _ES
                             48 	.globl _ET1
                             49 	.globl _EX1
                             50 	.globl _ET0
                             51 	.globl _EX0
                             52 	.globl _P2_7
                             53 	.globl _P2_6
                             54 	.globl _P2_5
                             55 	.globl _P2_4
                             56 	.globl _P2_3
                             57 	.globl _P2_2
                             58 	.globl _P2_1
                             59 	.globl _P2_0
                             60 	.globl _SM0
                             61 	.globl _SM1
                             62 	.globl _SM2
                             63 	.globl _REN
                             64 	.globl _TB8
                             65 	.globl _RB8
                             66 	.globl _TI
                             67 	.globl _RI
                             68 	.globl _P1_7
                             69 	.globl _P1_6
                             70 	.globl _P1_5
                             71 	.globl _P1_4
                             72 	.globl _P1_3
                             73 	.globl _P1_2
                             74 	.globl _P1_1
                             75 	.globl _P1_0
                             76 	.globl _TF1
                             77 	.globl _TR1
                             78 	.globl _TF0
                             79 	.globl _TR0
                             80 	.globl _IE1
                             81 	.globl _IT1
                             82 	.globl _IE0
                             83 	.globl _IT0
                             84 	.globl _P0_7
                             85 	.globl _P0_6
                             86 	.globl _P0_5
                             87 	.globl _P0_4
                             88 	.globl _P0_3
                             89 	.globl _P0_2
                             90 	.globl _P0_1
                             91 	.globl _P0_0
                             92 	.globl _B
                             93 	.globl _ACC
                             94 	.globl _PSW
                             95 	.globl _IP
                             96 	.globl _P3
                             97 	.globl _IE
                             98 	.globl _P2
                             99 	.globl _SBUF
                            100 	.globl _SCON
                            101 	.globl _P1
                            102 	.globl _TH1
                            103 	.globl _TH0
                            104 	.globl _TL1
                            105 	.globl _TL0
                            106 	.globl _TMOD
                            107 	.globl _TCON
                            108 	.globl _PCON
                            109 	.globl _DPH
                            110 	.globl _DPL
                            111 	.globl _SP
                            112 	.globl _P0
                            113 	.globl _dec_exp
                            114 	.globl _message
                            115 	.globl _modulus
                            116 	.globl _r2modm
                            117 	.globl _rmodm
                            118 	.globl _r
                            119 	.globl _i
                            120 ;--------------------------------------------------------
                            121 ; special function registers
                            122 ;--------------------------------------------------------
                            123 	.area RSEG    (DATA)
                    0080    124 _P0	=	0x0080
                    0081    125 _SP	=	0x0081
                    0082    126 _DPL	=	0x0082
                    0083    127 _DPH	=	0x0083
                    0087    128 _PCON	=	0x0087
                    0088    129 _TCON	=	0x0088
                    0089    130 _TMOD	=	0x0089
                    008A    131 _TL0	=	0x008a
                    008B    132 _TL1	=	0x008b
                    008C    133 _TH0	=	0x008c
                    008D    134 _TH1	=	0x008d
                    0090    135 _P1	=	0x0090
                    0098    136 _SCON	=	0x0098
                    0099    137 _SBUF	=	0x0099
                    00A0    138 _P2	=	0x00a0
                    00A8    139 _IE	=	0x00a8
                    00B0    140 _P3	=	0x00b0
                    00B8    141 _IP	=	0x00b8
                    00D0    142 _PSW	=	0x00d0
                    00E0    143 _ACC	=	0x00e0
                    00F0    144 _B	=	0x00f0
                            145 ;--------------------------------------------------------
                            146 ; special function bits
                            147 ;--------------------------------------------------------
                            148 	.area RSEG    (DATA)
                    0080    149 _P0_0	=	0x0080
                    0081    150 _P0_1	=	0x0081
                    0082    151 _P0_2	=	0x0082
                    0083    152 _P0_3	=	0x0083
                    0084    153 _P0_4	=	0x0084
                    0085    154 _P0_5	=	0x0085
                    0086    155 _P0_6	=	0x0086
                    0087    156 _P0_7	=	0x0087
                    0088    157 _IT0	=	0x0088
                    0089    158 _IE0	=	0x0089
                    008A    159 _IT1	=	0x008a
                    008B    160 _IE1	=	0x008b
                    008C    161 _TR0	=	0x008c
                    008D    162 _TF0	=	0x008d
                    008E    163 _TR1	=	0x008e
                    008F    164 _TF1	=	0x008f
                    0090    165 _P1_0	=	0x0090
                    0091    166 _P1_1	=	0x0091
                    0092    167 _P1_2	=	0x0092
                    0093    168 _P1_3	=	0x0093
                    0094    169 _P1_4	=	0x0094
                    0095    170 _P1_5	=	0x0095
                    0096    171 _P1_6	=	0x0096
                    0097    172 _P1_7	=	0x0097
                    0098    173 _RI	=	0x0098
                    0099    174 _TI	=	0x0099
                    009A    175 _RB8	=	0x009a
                    009B    176 _TB8	=	0x009b
                    009C    177 _REN	=	0x009c
                    009D    178 _SM2	=	0x009d
                    009E    179 _SM1	=	0x009e
                    009F    180 _SM0	=	0x009f
                    00A0    181 _P2_0	=	0x00a0
                    00A1    182 _P2_1	=	0x00a1
                    00A2    183 _P2_2	=	0x00a2
                    00A3    184 _P2_3	=	0x00a3
                    00A4    185 _P2_4	=	0x00a4
                    00A5    186 _P2_5	=	0x00a5
                    00A6    187 _P2_6	=	0x00a6
                    00A7    188 _P2_7	=	0x00a7
                    00A8    189 _EX0	=	0x00a8
                    00A9    190 _ET0	=	0x00a9
                    00AA    191 _EX1	=	0x00aa
                    00AB    192 _ET1	=	0x00ab
                    00AC    193 _ES	=	0x00ac
                    00AF    194 _EA	=	0x00af
                    00B0    195 _P3_0	=	0x00b0
                    00B1    196 _P3_1	=	0x00b1
                    00B2    197 _P3_2	=	0x00b2
                    00B3    198 _P3_3	=	0x00b3
                    00B4    199 _P3_4	=	0x00b4
                    00B5    200 _P3_5	=	0x00b5
                    00B6    201 _P3_6	=	0x00b6
                    00B7    202 _P3_7	=	0x00b7
                    00B0    203 _RXD	=	0x00b0
                    00B1    204 _TXD	=	0x00b1
                    00B2    205 _INT0	=	0x00b2
                    00B3    206 _INT1	=	0x00b3
                    00B4    207 _T0	=	0x00b4
                    00B5    208 _T1	=	0x00b5
                    00B6    209 _WR	=	0x00b6
                    00B7    210 _RD	=	0x00b7
                    00B8    211 _PX0	=	0x00b8
                    00B9    212 _PT0	=	0x00b9
                    00BA    213 _PX1	=	0x00ba
                    00BB    214 _PT1	=	0x00bb
                    00BC    215 _PS	=	0x00bc
                    00D0    216 _P	=	0x00d0
                    00D1    217 _F1	=	0x00d1
                    00D2    218 _OV	=	0x00d2
                    00D3    219 _RS0	=	0x00d3
                    00D4    220 _RS1	=	0x00d4
                    00D5    221 _F0	=	0x00d5
                    00D6    222 _AC	=	0x00d6
                    00D7    223 _CY	=	0x00d7
                            224 ;--------------------------------------------------------
                            225 ; overlayable register banks
                            226 ;--------------------------------------------------------
                            227 	.area REG_BANK_0	(REL,OVR,DATA)
   0000                     228 	.ds 8
                            229 ;--------------------------------------------------------
                            230 ; internal ram data
                            231 ;--------------------------------------------------------
                            232 	.area DSEG    (DATA)
   0008                     233 _i::
   0008                     234 	.ds 2
                            235 ;--------------------------------------------------------
                            236 ; overlayable items in internal ram 
                            237 ;--------------------------------------------------------
                            238 	.area OSEG    (OVR,DATA)
                            239 ;--------------------------------------------------------
                            240 ; Stack segment in internal ram 
                            241 ;--------------------------------------------------------
                            242 	.area	SSEG	(DATA)
   000A                     243 __start__stack:
   000A                     244 	.ds	1
                            245 
                            246 ;--------------------------------------------------------
                            247 ; indirectly addressable internal ram data
                            248 ;--------------------------------------------------------
                            249 	.area ISEG    (DATA)
                            250 ;--------------------------------------------------------
                            251 ; absolute internal ram data
                            252 ;--------------------------------------------------------
                            253 	.area IABS    (ABS,DATA)
                            254 	.area IABS    (ABS,DATA)
                            255 ;--------------------------------------------------------
                            256 ; bit data
                            257 ;--------------------------------------------------------
                            258 	.area BSEG    (BIT)
                            259 ;--------------------------------------------------------
                            260 ; paged external ram data
                            261 ;--------------------------------------------------------
                            262 	.area PSEG    (PAG,XDATA)
                            263 ;--------------------------------------------------------
                            264 ; external ram data
                            265 ;--------------------------------------------------------
                            266 	.area XSEG    (XDATA)
                    5000    267 _r	=	0x5000
                            268 ;--------------------------------------------------------
                            269 ; absolute external ram data
                            270 ;--------------------------------------------------------
                            271 	.area XABS    (ABS,XDATA)
   4101                     272 	.org 0x4101
   4101                     273 _rmodm::
   4101                     274 	.ds 128
   4081                     275 	.org 0x4081
   4081                     276 _r2modm::
   4081                     277 	.ds 128
   4201                     278 	.org 0x4201
   4201                     279 _modulus::
   4201                     280 	.ds 128
   4000                     281 	.org 0x4000
   4000                     282 _message::
   4000                     283 	.ds 129
   4181                     284 	.org 0x4181
   4181                     285 _dec_exp::
   4181                     286 	.ds 128
                            287 ;--------------------------------------------------------
                            288 ; external initialized ram data
                            289 ;--------------------------------------------------------
                            290 	.area XISEG   (XDATA)
                            291 	.area HOME    (CODE)
                            292 	.area GSINIT0 (CODE)
                            293 	.area GSINIT1 (CODE)
                            294 	.area GSINIT2 (CODE)
                            295 	.area GSINIT3 (CODE)
                            296 	.area GSINIT4 (CODE)
                            297 	.area GSINIT5 (CODE)
                            298 	.area GSINIT  (CODE)
                            299 	.area GSFINAL (CODE)
                            300 	.area CSEG    (CODE)
                            301 ;--------------------------------------------------------
                            302 ; interrupt vector 
                            303 ;--------------------------------------------------------
                            304 	.area HOME    (CODE)
   0000                     305 __interrupt_vect:
   0000 02 00 08            306 	ljmp	__sdcc_gsinit_startup
                            307 ;--------------------------------------------------------
                            308 ; global & static initialisations
                            309 ;--------------------------------------------------------
                            310 	.area HOME    (CODE)
                            311 	.area GSINIT  (CODE)
                            312 	.area GSFINAL (CODE)
                            313 	.area GSINIT  (CODE)
                            314 	.globl __sdcc_gsinit_startup
                            315 	.globl __sdcc_program_startup
                            316 	.globl __start__stack
                            317 	.globl __mcs51_genXINIT
                            318 	.globl __mcs51_genXRAMCLEAR
                            319 	.globl __mcs51_genRAMCLEAR
                            320 ;	decryption.c:6: volatile __xdata __at (0x4101) unsigned char rmodm[SIZE] = {0xA3,0x10,0x6B,0x83,0x7C,0x40,0xBF,0xB2,0x54,0x28,0x20,0x4D,0xB2,0xD4,0xF8,0xA6,0xE5,0xB7,0x51,0xBA,0xE8,0xD1,0x95,0x9A,0xFE,0xAB,0x0A,0x48,0x23,0xA2,0x70,0xB3,0xCC,0x7B,0x8F,0x44,0xF4,0x5B,0x53,0x78,0x7D,0xE2,0xF2,0xAF,0xD2,0xBA,0x06,0x0F,0xEE,0xA4,0x37,0x06,0xE7,0x04,0x2C,0x90,0x3C,0x8B,0xFD,0x54,0xCD,0xB9,0x94,0xAD,0x64,0x8E,0x26,0xDE,0x8C,0xC5,0x33,0x92,0x24,0xEF,0x76,0x34,0xC4,0xB8,0xEC,0xF1,0x9A,0x79,0x61,0x80,0xC1,0xBC,0x6D,0x03,0x49,0x95,0x94,0xC8,0x6F,0x14,0xB0,0x16,0x14,0x63,0xD0,0x94,0xD9,0x10,0x4B,0x44,0x03,0xC2,0xCC,0x04,0x68,0x98,0x6C,0xD9,0x69,0xC7,0x1A,0x0F,0xC5,0x39,0x5C,0x6A,0x5A,0x67,0x0B,0x47,0xF4,0x77,0x1E,0x2B};
   0061 90 41 01            321 	mov	dptr,#_rmodm
   0064 74 A3               322 	mov	a,#0xA3
   0066 F0                  323 	movx	@dptr,a
   0067 90 41 02            324 	mov	dptr,#(_rmodm + 0x0001)
   006A 74 10               325 	mov	a,#0x10
   006C F0                  326 	movx	@dptr,a
   006D 90 41 03            327 	mov	dptr,#(_rmodm + 0x0002)
   0070 74 6B               328 	mov	a,#0x6B
   0072 F0                  329 	movx	@dptr,a
   0073 90 41 04            330 	mov	dptr,#(_rmodm + 0x0003)
   0076 74 83               331 	mov	a,#0x83
   0078 F0                  332 	movx	@dptr,a
   0079 90 41 05            333 	mov	dptr,#(_rmodm + 0x0004)
   007C 74 7C               334 	mov	a,#0x7C
   007E F0                  335 	movx	@dptr,a
   007F 90 41 06            336 	mov	dptr,#(_rmodm + 0x0005)
   0082 74 40               337 	mov	a,#0x40
   0084 F0                  338 	movx	@dptr,a
   0085 90 41 07            339 	mov	dptr,#(_rmodm + 0x0006)
   0088 74 BF               340 	mov	a,#0xBF
   008A F0                  341 	movx	@dptr,a
   008B 90 41 08            342 	mov	dptr,#(_rmodm + 0x0007)
   008E 74 B2               343 	mov	a,#0xB2
   0090 F0                  344 	movx	@dptr,a
   0091 90 41 09            345 	mov	dptr,#(_rmodm + 0x0008)
   0094 74 54               346 	mov	a,#0x54
   0096 F0                  347 	movx	@dptr,a
   0097 90 41 0A            348 	mov	dptr,#(_rmodm + 0x0009)
   009A 74 28               349 	mov	a,#0x28
   009C F0                  350 	movx	@dptr,a
   009D 90 41 0B            351 	mov	dptr,#(_rmodm + 0x000a)
   00A0 74 20               352 	mov	a,#0x20
   00A2 F0                  353 	movx	@dptr,a
   00A3 90 41 0C            354 	mov	dptr,#(_rmodm + 0x000b)
   00A6 74 4D               355 	mov	a,#0x4D
   00A8 F0                  356 	movx	@dptr,a
   00A9 90 41 0D            357 	mov	dptr,#(_rmodm + 0x000c)
   00AC 74 B2               358 	mov	a,#0xB2
   00AE F0                  359 	movx	@dptr,a
   00AF 90 41 0E            360 	mov	dptr,#(_rmodm + 0x000d)
   00B2 74 D4               361 	mov	a,#0xD4
   00B4 F0                  362 	movx	@dptr,a
   00B5 90 41 0F            363 	mov	dptr,#(_rmodm + 0x000e)
   00B8 74 F8               364 	mov	a,#0xF8
   00BA F0                  365 	movx	@dptr,a
   00BB 90 41 10            366 	mov	dptr,#(_rmodm + 0x000f)
   00BE 74 A6               367 	mov	a,#0xA6
   00C0 F0                  368 	movx	@dptr,a
   00C1 90 41 11            369 	mov	dptr,#(_rmodm + 0x0010)
   00C4 74 E5               370 	mov	a,#0xE5
   00C6 F0                  371 	movx	@dptr,a
   00C7 90 41 12            372 	mov	dptr,#(_rmodm + 0x0011)
   00CA 74 B7               373 	mov	a,#0xB7
   00CC F0                  374 	movx	@dptr,a
   00CD 90 41 13            375 	mov	dptr,#(_rmodm + 0x0012)
   00D0 74 51               376 	mov	a,#0x51
   00D2 F0                  377 	movx	@dptr,a
   00D3 90 41 14            378 	mov	dptr,#(_rmodm + 0x0013)
   00D6 74 BA               379 	mov	a,#0xBA
   00D8 F0                  380 	movx	@dptr,a
   00D9 90 41 15            381 	mov	dptr,#(_rmodm + 0x0014)
   00DC 74 E8               382 	mov	a,#0xE8
   00DE F0                  383 	movx	@dptr,a
   00DF 90 41 16            384 	mov	dptr,#(_rmodm + 0x0015)
   00E2 74 D1               385 	mov	a,#0xD1
   00E4 F0                  386 	movx	@dptr,a
   00E5 90 41 17            387 	mov	dptr,#(_rmodm + 0x0016)
   00E8 74 95               388 	mov	a,#0x95
   00EA F0                  389 	movx	@dptr,a
   00EB 90 41 18            390 	mov	dptr,#(_rmodm + 0x0017)
   00EE 74 9A               391 	mov	a,#0x9A
   00F0 F0                  392 	movx	@dptr,a
   00F1 90 41 19            393 	mov	dptr,#(_rmodm + 0x0018)
   00F4 74 FE               394 	mov	a,#0xFE
   00F6 F0                  395 	movx	@dptr,a
   00F7 90 41 1A            396 	mov	dptr,#(_rmodm + 0x0019)
   00FA 74 AB               397 	mov	a,#0xAB
   00FC F0                  398 	movx	@dptr,a
   00FD 90 41 1B            399 	mov	dptr,#(_rmodm + 0x001a)
   0100 74 0A               400 	mov	a,#0x0A
   0102 F0                  401 	movx	@dptr,a
   0103 90 41 1C            402 	mov	dptr,#(_rmodm + 0x001b)
   0106 74 48               403 	mov	a,#0x48
   0108 F0                  404 	movx	@dptr,a
   0109 90 41 1D            405 	mov	dptr,#(_rmodm + 0x001c)
   010C 74 23               406 	mov	a,#0x23
   010E F0                  407 	movx	@dptr,a
   010F 90 41 1E            408 	mov	dptr,#(_rmodm + 0x001d)
   0112 74 A2               409 	mov	a,#0xA2
   0114 F0                  410 	movx	@dptr,a
   0115 90 41 1F            411 	mov	dptr,#(_rmodm + 0x001e)
   0118 74 70               412 	mov	a,#0x70
   011A F0                  413 	movx	@dptr,a
   011B 90 41 20            414 	mov	dptr,#(_rmodm + 0x001f)
   011E 74 B3               415 	mov	a,#0xB3
   0120 F0                  416 	movx	@dptr,a
   0121 90 41 21            417 	mov	dptr,#(_rmodm + 0x0020)
   0124 74 CC               418 	mov	a,#0xCC
   0126 F0                  419 	movx	@dptr,a
   0127 90 41 22            420 	mov	dptr,#(_rmodm + 0x0021)
   012A 74 7B               421 	mov	a,#0x7B
   012C F0                  422 	movx	@dptr,a
   012D 90 41 23            423 	mov	dptr,#(_rmodm + 0x0022)
   0130 74 8F               424 	mov	a,#0x8F
   0132 F0                  425 	movx	@dptr,a
   0133 90 41 24            426 	mov	dptr,#(_rmodm + 0x0023)
   0136 74 44               427 	mov	a,#0x44
   0138 F0                  428 	movx	@dptr,a
   0139 90 41 25            429 	mov	dptr,#(_rmodm + 0x0024)
   013C 74 F4               430 	mov	a,#0xF4
   013E F0                  431 	movx	@dptr,a
   013F 90 41 26            432 	mov	dptr,#(_rmodm + 0x0025)
   0142 74 5B               433 	mov	a,#0x5B
   0144 F0                  434 	movx	@dptr,a
   0145 90 41 27            435 	mov	dptr,#(_rmodm + 0x0026)
   0148 74 53               436 	mov	a,#0x53
   014A F0                  437 	movx	@dptr,a
   014B 90 41 28            438 	mov	dptr,#(_rmodm + 0x0027)
   014E 74 78               439 	mov	a,#0x78
   0150 F0                  440 	movx	@dptr,a
   0151 90 41 29            441 	mov	dptr,#(_rmodm + 0x0028)
   0154 74 7D               442 	mov	a,#0x7D
   0156 F0                  443 	movx	@dptr,a
   0157 90 41 2A            444 	mov	dptr,#(_rmodm + 0x0029)
   015A 74 E2               445 	mov	a,#0xE2
   015C F0                  446 	movx	@dptr,a
   015D 90 41 2B            447 	mov	dptr,#(_rmodm + 0x002a)
   0160 74 F2               448 	mov	a,#0xF2
   0162 F0                  449 	movx	@dptr,a
   0163 90 41 2C            450 	mov	dptr,#(_rmodm + 0x002b)
   0166 74 AF               451 	mov	a,#0xAF
   0168 F0                  452 	movx	@dptr,a
   0169 90 41 2D            453 	mov	dptr,#(_rmodm + 0x002c)
   016C 74 D2               454 	mov	a,#0xD2
   016E F0                  455 	movx	@dptr,a
   016F 90 41 2E            456 	mov	dptr,#(_rmodm + 0x002d)
   0172 74 BA               457 	mov	a,#0xBA
   0174 F0                  458 	movx	@dptr,a
   0175 90 41 2F            459 	mov	dptr,#(_rmodm + 0x002e)
   0178 74 06               460 	mov	a,#0x06
   017A F0                  461 	movx	@dptr,a
   017B 90 41 30            462 	mov	dptr,#(_rmodm + 0x002f)
   017E 74 0F               463 	mov	a,#0x0F
   0180 F0                  464 	movx	@dptr,a
   0181 90 41 31            465 	mov	dptr,#(_rmodm + 0x0030)
   0184 74 EE               466 	mov	a,#0xEE
   0186 F0                  467 	movx	@dptr,a
   0187 90 41 32            468 	mov	dptr,#(_rmodm + 0x0031)
   018A 74 A4               469 	mov	a,#0xA4
   018C F0                  470 	movx	@dptr,a
   018D 90 41 33            471 	mov	dptr,#(_rmodm + 0x0032)
   0190 74 37               472 	mov	a,#0x37
   0192 F0                  473 	movx	@dptr,a
   0193 90 41 34            474 	mov	dptr,#(_rmodm + 0x0033)
   0196 74 06               475 	mov	a,#0x06
   0198 F0                  476 	movx	@dptr,a
   0199 90 41 35            477 	mov	dptr,#(_rmodm + 0x0034)
   019C 74 E7               478 	mov	a,#0xE7
   019E F0                  479 	movx	@dptr,a
   019F 90 41 36            480 	mov	dptr,#(_rmodm + 0x0035)
   01A2 74 04               481 	mov	a,#0x04
   01A4 F0                  482 	movx	@dptr,a
   01A5 90 41 37            483 	mov	dptr,#(_rmodm + 0x0036)
   01A8 74 2C               484 	mov	a,#0x2C
   01AA F0                  485 	movx	@dptr,a
   01AB 90 41 38            486 	mov	dptr,#(_rmodm + 0x0037)
   01AE 74 90               487 	mov	a,#0x90
   01B0 F0                  488 	movx	@dptr,a
   01B1 90 41 39            489 	mov	dptr,#(_rmodm + 0x0038)
   01B4 74 3C               490 	mov	a,#0x3C
   01B6 F0                  491 	movx	@dptr,a
   01B7 90 41 3A            492 	mov	dptr,#(_rmodm + 0x0039)
   01BA 74 8B               493 	mov	a,#0x8B
   01BC F0                  494 	movx	@dptr,a
   01BD 90 41 3B            495 	mov	dptr,#(_rmodm + 0x003a)
   01C0 74 FD               496 	mov	a,#0xFD
   01C2 F0                  497 	movx	@dptr,a
   01C3 90 41 3C            498 	mov	dptr,#(_rmodm + 0x003b)
   01C6 74 54               499 	mov	a,#0x54
   01C8 F0                  500 	movx	@dptr,a
   01C9 90 41 3D            501 	mov	dptr,#(_rmodm + 0x003c)
   01CC 74 CD               502 	mov	a,#0xCD
   01CE F0                  503 	movx	@dptr,a
   01CF 90 41 3E            504 	mov	dptr,#(_rmodm + 0x003d)
   01D2 74 B9               505 	mov	a,#0xB9
   01D4 F0                  506 	movx	@dptr,a
   01D5 90 41 3F            507 	mov	dptr,#(_rmodm + 0x003e)
   01D8 74 94               508 	mov	a,#0x94
   01DA F0                  509 	movx	@dptr,a
   01DB 90 41 40            510 	mov	dptr,#(_rmodm + 0x003f)
   01DE 74 AD               511 	mov	a,#0xAD
   01E0 F0                  512 	movx	@dptr,a
   01E1 90 41 41            513 	mov	dptr,#(_rmodm + 0x0040)
   01E4 74 64               514 	mov	a,#0x64
   01E6 F0                  515 	movx	@dptr,a
   01E7 90 41 42            516 	mov	dptr,#(_rmodm + 0x0041)
   01EA 74 8E               517 	mov	a,#0x8E
   01EC F0                  518 	movx	@dptr,a
   01ED 90 41 43            519 	mov	dptr,#(_rmodm + 0x0042)
   01F0 74 26               520 	mov	a,#0x26
   01F2 F0                  521 	movx	@dptr,a
   01F3 90 41 44            522 	mov	dptr,#(_rmodm + 0x0043)
   01F6 74 DE               523 	mov	a,#0xDE
   01F8 F0                  524 	movx	@dptr,a
   01F9 90 41 45            525 	mov	dptr,#(_rmodm + 0x0044)
   01FC 74 8C               526 	mov	a,#0x8C
   01FE F0                  527 	movx	@dptr,a
   01FF 90 41 46            528 	mov	dptr,#(_rmodm + 0x0045)
   0202 74 C5               529 	mov	a,#0xC5
   0204 F0                  530 	movx	@dptr,a
   0205 90 41 47            531 	mov	dptr,#(_rmodm + 0x0046)
   0208 74 33               532 	mov	a,#0x33
   020A F0                  533 	movx	@dptr,a
   020B 90 41 48            534 	mov	dptr,#(_rmodm + 0x0047)
   020E 74 92               535 	mov	a,#0x92
   0210 F0                  536 	movx	@dptr,a
   0211 90 41 49            537 	mov	dptr,#(_rmodm + 0x0048)
   0214 74 24               538 	mov	a,#0x24
   0216 F0                  539 	movx	@dptr,a
   0217 90 41 4A            540 	mov	dptr,#(_rmodm + 0x0049)
   021A 74 EF               541 	mov	a,#0xEF
   021C F0                  542 	movx	@dptr,a
   021D 90 41 4B            543 	mov	dptr,#(_rmodm + 0x004a)
   0220 74 76               544 	mov	a,#0x76
   0222 F0                  545 	movx	@dptr,a
   0223 90 41 4C            546 	mov	dptr,#(_rmodm + 0x004b)
   0226 74 34               547 	mov	a,#0x34
   0228 F0                  548 	movx	@dptr,a
   0229 90 41 4D            549 	mov	dptr,#(_rmodm + 0x004c)
   022C 74 C4               550 	mov	a,#0xC4
   022E F0                  551 	movx	@dptr,a
   022F 90 41 4E            552 	mov	dptr,#(_rmodm + 0x004d)
   0232 74 B8               553 	mov	a,#0xB8
   0234 F0                  554 	movx	@dptr,a
   0235 90 41 4F            555 	mov	dptr,#(_rmodm + 0x004e)
   0238 74 EC               556 	mov	a,#0xEC
   023A F0                  557 	movx	@dptr,a
   023B 90 41 50            558 	mov	dptr,#(_rmodm + 0x004f)
   023E 74 F1               559 	mov	a,#0xF1
   0240 F0                  560 	movx	@dptr,a
   0241 90 41 51            561 	mov	dptr,#(_rmodm + 0x0050)
   0244 74 9A               562 	mov	a,#0x9A
   0246 F0                  563 	movx	@dptr,a
   0247 90 41 52            564 	mov	dptr,#(_rmodm + 0x0051)
   024A 74 79               565 	mov	a,#0x79
   024C F0                  566 	movx	@dptr,a
   024D 90 41 53            567 	mov	dptr,#(_rmodm + 0x0052)
   0250 74 61               568 	mov	a,#0x61
   0252 F0                  569 	movx	@dptr,a
   0253 90 41 54            570 	mov	dptr,#(_rmodm + 0x0053)
   0256 74 80               571 	mov	a,#0x80
   0258 F0                  572 	movx	@dptr,a
   0259 90 41 55            573 	mov	dptr,#(_rmodm + 0x0054)
   025C 74 C1               574 	mov	a,#0xC1
   025E F0                  575 	movx	@dptr,a
   025F 90 41 56            576 	mov	dptr,#(_rmodm + 0x0055)
   0262 74 BC               577 	mov	a,#0xBC
   0264 F0                  578 	movx	@dptr,a
   0265 90 41 57            579 	mov	dptr,#(_rmodm + 0x0056)
   0268 74 6D               580 	mov	a,#0x6D
   026A F0                  581 	movx	@dptr,a
   026B 90 41 58            582 	mov	dptr,#(_rmodm + 0x0057)
   026E 74 03               583 	mov	a,#0x03
   0270 F0                  584 	movx	@dptr,a
   0271 90 41 59            585 	mov	dptr,#(_rmodm + 0x0058)
   0274 74 49               586 	mov	a,#0x49
   0276 F0                  587 	movx	@dptr,a
   0277 90 41 5A            588 	mov	dptr,#(_rmodm + 0x0059)
   027A 74 95               589 	mov	a,#0x95
   027C F0                  590 	movx	@dptr,a
   027D 90 41 5B            591 	mov	dptr,#(_rmodm + 0x005a)
   0280 74 94               592 	mov	a,#0x94
   0282 F0                  593 	movx	@dptr,a
   0283 90 41 5C            594 	mov	dptr,#(_rmodm + 0x005b)
   0286 74 C8               595 	mov	a,#0xC8
   0288 F0                  596 	movx	@dptr,a
   0289 90 41 5D            597 	mov	dptr,#(_rmodm + 0x005c)
   028C 74 6F               598 	mov	a,#0x6F
   028E F0                  599 	movx	@dptr,a
   028F 90 41 5E            600 	mov	dptr,#(_rmodm + 0x005d)
   0292 74 14               601 	mov	a,#0x14
   0294 F0                  602 	movx	@dptr,a
   0295 90 41 5F            603 	mov	dptr,#(_rmodm + 0x005e)
   0298 74 B0               604 	mov	a,#0xB0
   029A F0                  605 	movx	@dptr,a
   029B 90 41 60            606 	mov	dptr,#(_rmodm + 0x005f)
   029E 74 16               607 	mov	a,#0x16
   02A0 F0                  608 	movx	@dptr,a
   02A1 90 41 61            609 	mov	dptr,#(_rmodm + 0x0060)
   02A4 74 14               610 	mov	a,#0x14
   02A6 F0                  611 	movx	@dptr,a
   02A7 90 41 62            612 	mov	dptr,#(_rmodm + 0x0061)
   02AA 74 63               613 	mov	a,#0x63
   02AC F0                  614 	movx	@dptr,a
   02AD 90 41 63            615 	mov	dptr,#(_rmodm + 0x0062)
   02B0 74 D0               616 	mov	a,#0xD0
   02B2 F0                  617 	movx	@dptr,a
   02B3 90 41 64            618 	mov	dptr,#(_rmodm + 0x0063)
   02B6 74 94               619 	mov	a,#0x94
   02B8 F0                  620 	movx	@dptr,a
   02B9 90 41 65            621 	mov	dptr,#(_rmodm + 0x0064)
   02BC 74 D9               622 	mov	a,#0xD9
   02BE F0                  623 	movx	@dptr,a
   02BF 90 41 66            624 	mov	dptr,#(_rmodm + 0x0065)
   02C2 74 10               625 	mov	a,#0x10
   02C4 F0                  626 	movx	@dptr,a
   02C5 90 41 67            627 	mov	dptr,#(_rmodm + 0x0066)
   02C8 74 4B               628 	mov	a,#0x4B
   02CA F0                  629 	movx	@dptr,a
   02CB 90 41 68            630 	mov	dptr,#(_rmodm + 0x0067)
   02CE 74 44               631 	mov	a,#0x44
   02D0 F0                  632 	movx	@dptr,a
   02D1 90 41 69            633 	mov	dptr,#(_rmodm + 0x0068)
   02D4 74 03               634 	mov	a,#0x03
   02D6 F0                  635 	movx	@dptr,a
   02D7 90 41 6A            636 	mov	dptr,#(_rmodm + 0x0069)
   02DA 74 C2               637 	mov	a,#0xC2
   02DC F0                  638 	movx	@dptr,a
   02DD 90 41 6B            639 	mov	dptr,#(_rmodm + 0x006a)
   02E0 74 CC               640 	mov	a,#0xCC
   02E2 F0                  641 	movx	@dptr,a
   02E3 90 41 6C            642 	mov	dptr,#(_rmodm + 0x006b)
   02E6 74 04               643 	mov	a,#0x04
   02E8 F0                  644 	movx	@dptr,a
   02E9 90 41 6D            645 	mov	dptr,#(_rmodm + 0x006c)
   02EC 74 68               646 	mov	a,#0x68
   02EE F0                  647 	movx	@dptr,a
   02EF 90 41 6E            648 	mov	dptr,#(_rmodm + 0x006d)
   02F2 74 98               649 	mov	a,#0x98
   02F4 F0                  650 	movx	@dptr,a
   02F5 90 41 6F            651 	mov	dptr,#(_rmodm + 0x006e)
   02F8 74 6C               652 	mov	a,#0x6C
   02FA F0                  653 	movx	@dptr,a
   02FB 90 41 70            654 	mov	dptr,#(_rmodm + 0x006f)
   02FE 74 D9               655 	mov	a,#0xD9
   0300 F0                  656 	movx	@dptr,a
   0301 90 41 71            657 	mov	dptr,#(_rmodm + 0x0070)
   0304 74 69               658 	mov	a,#0x69
   0306 F0                  659 	movx	@dptr,a
   0307 90 41 72            660 	mov	dptr,#(_rmodm + 0x0071)
   030A 74 C7               661 	mov	a,#0xC7
   030C F0                  662 	movx	@dptr,a
   030D 90 41 73            663 	mov	dptr,#(_rmodm + 0x0072)
   0310 74 1A               664 	mov	a,#0x1A
   0312 F0                  665 	movx	@dptr,a
   0313 90 41 74            666 	mov	dptr,#(_rmodm + 0x0073)
   0316 74 0F               667 	mov	a,#0x0F
   0318 F0                  668 	movx	@dptr,a
   0319 90 41 75            669 	mov	dptr,#(_rmodm + 0x0074)
   031C 74 C5               670 	mov	a,#0xC5
   031E F0                  671 	movx	@dptr,a
   031F 90 41 76            672 	mov	dptr,#(_rmodm + 0x0075)
   0322 74 39               673 	mov	a,#0x39
   0324 F0                  674 	movx	@dptr,a
   0325 90 41 77            675 	mov	dptr,#(_rmodm + 0x0076)
   0328 74 5C               676 	mov	a,#0x5C
   032A F0                  677 	movx	@dptr,a
   032B 90 41 78            678 	mov	dptr,#(_rmodm + 0x0077)
   032E 74 6A               679 	mov	a,#0x6A
   0330 F0                  680 	movx	@dptr,a
   0331 90 41 79            681 	mov	dptr,#(_rmodm + 0x0078)
   0334 74 5A               682 	mov	a,#0x5A
   0336 F0                  683 	movx	@dptr,a
   0337 90 41 7A            684 	mov	dptr,#(_rmodm + 0x0079)
   033A 74 67               685 	mov	a,#0x67
   033C F0                  686 	movx	@dptr,a
   033D 90 41 7B            687 	mov	dptr,#(_rmodm + 0x007a)
   0340 74 0B               688 	mov	a,#0x0B
   0342 F0                  689 	movx	@dptr,a
   0343 90 41 7C            690 	mov	dptr,#(_rmodm + 0x007b)
   0346 74 47               691 	mov	a,#0x47
   0348 F0                  692 	movx	@dptr,a
   0349 90 41 7D            693 	mov	dptr,#(_rmodm + 0x007c)
   034C 74 F4               694 	mov	a,#0xF4
   034E F0                  695 	movx	@dptr,a
   034F 90 41 7E            696 	mov	dptr,#(_rmodm + 0x007d)
   0352 74 77               697 	mov	a,#0x77
   0354 F0                  698 	movx	@dptr,a
   0355 90 41 7F            699 	mov	dptr,#(_rmodm + 0x007e)
   0358 74 1E               700 	mov	a,#0x1E
   035A F0                  701 	movx	@dptr,a
   035B 90 41 80            702 	mov	dptr,#(_rmodm + 0x007f)
   035E 74 2B               703 	mov	a,#0x2B
   0360 F0                  704 	movx	@dptr,a
                            705 ;	decryption.c:7: volatile __xdata __at (0x4081) unsigned char r2modm[SIZE] = {0x4B,0x61,0xD1,0xA8,0x05,0x36,0xB5,0xE7,0xC6,0x6A,0x09,0x48,0xE1,0x09,0x9A,0x62,0x6C,0xCC,0xB9,0x82,0x01,0x88,0xED,0x37,0xC7,0xDD,0xEB,0x8C,0xC1,0xF2,0x96,0x83,0x19,0x5E,0xD1,0x3F,0xF6,0x80,0x15,0xBB,0xAC,0x60,0x27,0x80,0x83,0x3C,0x25,0x9B,0xF1,0x89,0xE3,0x78,0x10,0x3D,0x53,0x21,0x16,0x4A,0xA3,0x0C,0xAD,0x64,0xD2,0x50,0xC2,0x10,0x48,0x87,0xDA,0xC2,0xEB,0xF1,0xFC,0x8F,0xFF,0xE5,0xCA,0x4D,0xA9,0x68,0xCD,0x3A,0x7B,0x41,0x83,0x53,0x5E,0xBB,0x44,0x8D,0x9A,0x34,0x86,0xB3,0x62,0x7F,0x9D,0x96,0xB0,0xAC,0xB1,0x30,0xCD,0x25,0x60,0xB0,0x42,0xC3,0xE7,0xB0,0xED,0xDA,0xB9,0x11,0x7D,0x2C,0x27,0xF6,0x8C,0xD8,0xAA,0x3B,0xE7,0x4F,0x86,0x1F,0x96,0x2E};
   0361 90 40 81            706 	mov	dptr,#_r2modm
   0364 74 4B               707 	mov	a,#0x4B
   0366 F0                  708 	movx	@dptr,a
   0367 90 40 82            709 	mov	dptr,#(_r2modm + 0x0001)
   036A 74 61               710 	mov	a,#0x61
   036C F0                  711 	movx	@dptr,a
   036D 90 40 83            712 	mov	dptr,#(_r2modm + 0x0002)
   0370 74 D1               713 	mov	a,#0xD1
   0372 F0                  714 	movx	@dptr,a
   0373 90 40 84            715 	mov	dptr,#(_r2modm + 0x0003)
   0376 74 A8               716 	mov	a,#0xA8
   0378 F0                  717 	movx	@dptr,a
   0379 90 40 85            718 	mov	dptr,#(_r2modm + 0x0004)
   037C 74 05               719 	mov	a,#0x05
   037E F0                  720 	movx	@dptr,a
   037F 90 40 86            721 	mov	dptr,#(_r2modm + 0x0005)
   0382 74 36               722 	mov	a,#0x36
   0384 F0                  723 	movx	@dptr,a
   0385 90 40 87            724 	mov	dptr,#(_r2modm + 0x0006)
   0388 74 B5               725 	mov	a,#0xB5
   038A F0                  726 	movx	@dptr,a
   038B 90 40 88            727 	mov	dptr,#(_r2modm + 0x0007)
   038E 74 E7               728 	mov	a,#0xE7
   0390 F0                  729 	movx	@dptr,a
   0391 90 40 89            730 	mov	dptr,#(_r2modm + 0x0008)
   0394 74 C6               731 	mov	a,#0xC6
   0396 F0                  732 	movx	@dptr,a
   0397 90 40 8A            733 	mov	dptr,#(_r2modm + 0x0009)
   039A 74 6A               734 	mov	a,#0x6A
   039C F0                  735 	movx	@dptr,a
   039D 90 40 8B            736 	mov	dptr,#(_r2modm + 0x000a)
   03A0 74 09               737 	mov	a,#0x09
   03A2 F0                  738 	movx	@dptr,a
   03A3 90 40 8C            739 	mov	dptr,#(_r2modm + 0x000b)
   03A6 74 48               740 	mov	a,#0x48
   03A8 F0                  741 	movx	@dptr,a
   03A9 90 40 8D            742 	mov	dptr,#(_r2modm + 0x000c)
   03AC 74 E1               743 	mov	a,#0xE1
   03AE F0                  744 	movx	@dptr,a
   03AF 90 40 8E            745 	mov	dptr,#(_r2modm + 0x000d)
   03B2 74 09               746 	mov	a,#0x09
   03B4 F0                  747 	movx	@dptr,a
   03B5 90 40 8F            748 	mov	dptr,#(_r2modm + 0x000e)
   03B8 74 9A               749 	mov	a,#0x9A
   03BA F0                  750 	movx	@dptr,a
   03BB 90 40 90            751 	mov	dptr,#(_r2modm + 0x000f)
   03BE 74 62               752 	mov	a,#0x62
   03C0 F0                  753 	movx	@dptr,a
   03C1 90 40 91            754 	mov	dptr,#(_r2modm + 0x0010)
   03C4 74 6C               755 	mov	a,#0x6C
   03C6 F0                  756 	movx	@dptr,a
   03C7 90 40 92            757 	mov	dptr,#(_r2modm + 0x0011)
   03CA 74 CC               758 	mov	a,#0xCC
   03CC F0                  759 	movx	@dptr,a
   03CD 90 40 93            760 	mov	dptr,#(_r2modm + 0x0012)
   03D0 74 B9               761 	mov	a,#0xB9
   03D2 F0                  762 	movx	@dptr,a
   03D3 90 40 94            763 	mov	dptr,#(_r2modm + 0x0013)
   03D6 74 82               764 	mov	a,#0x82
   03D8 F0                  765 	movx	@dptr,a
   03D9 90 40 95            766 	mov	dptr,#(_r2modm + 0x0014)
   03DC 74 01               767 	mov	a,#0x01
   03DE F0                  768 	movx	@dptr,a
   03DF 90 40 96            769 	mov	dptr,#(_r2modm + 0x0015)
   03E2 74 88               770 	mov	a,#0x88
   03E4 F0                  771 	movx	@dptr,a
   03E5 90 40 97            772 	mov	dptr,#(_r2modm + 0x0016)
   03E8 74 ED               773 	mov	a,#0xED
   03EA F0                  774 	movx	@dptr,a
   03EB 90 40 98            775 	mov	dptr,#(_r2modm + 0x0017)
   03EE 74 37               776 	mov	a,#0x37
   03F0 F0                  777 	movx	@dptr,a
   03F1 90 40 99            778 	mov	dptr,#(_r2modm + 0x0018)
   03F4 74 C7               779 	mov	a,#0xC7
   03F6 F0                  780 	movx	@dptr,a
   03F7 90 40 9A            781 	mov	dptr,#(_r2modm + 0x0019)
   03FA 74 DD               782 	mov	a,#0xDD
   03FC F0                  783 	movx	@dptr,a
   03FD 90 40 9B            784 	mov	dptr,#(_r2modm + 0x001a)
   0400 74 EB               785 	mov	a,#0xEB
   0402 F0                  786 	movx	@dptr,a
   0403 90 40 9C            787 	mov	dptr,#(_r2modm + 0x001b)
   0406 74 8C               788 	mov	a,#0x8C
   0408 F0                  789 	movx	@dptr,a
   0409 90 40 9D            790 	mov	dptr,#(_r2modm + 0x001c)
   040C 74 C1               791 	mov	a,#0xC1
   040E F0                  792 	movx	@dptr,a
   040F 90 40 9E            793 	mov	dptr,#(_r2modm + 0x001d)
   0412 74 F2               794 	mov	a,#0xF2
   0414 F0                  795 	movx	@dptr,a
   0415 90 40 9F            796 	mov	dptr,#(_r2modm + 0x001e)
   0418 74 96               797 	mov	a,#0x96
   041A F0                  798 	movx	@dptr,a
   041B 90 40 A0            799 	mov	dptr,#(_r2modm + 0x001f)
   041E 74 83               800 	mov	a,#0x83
   0420 F0                  801 	movx	@dptr,a
   0421 90 40 A1            802 	mov	dptr,#(_r2modm + 0x0020)
   0424 74 19               803 	mov	a,#0x19
   0426 F0                  804 	movx	@dptr,a
   0427 90 40 A2            805 	mov	dptr,#(_r2modm + 0x0021)
   042A 74 5E               806 	mov	a,#0x5E
   042C F0                  807 	movx	@dptr,a
   042D 90 40 A3            808 	mov	dptr,#(_r2modm + 0x0022)
   0430 74 D1               809 	mov	a,#0xD1
   0432 F0                  810 	movx	@dptr,a
   0433 90 40 A4            811 	mov	dptr,#(_r2modm + 0x0023)
   0436 74 3F               812 	mov	a,#0x3F
   0438 F0                  813 	movx	@dptr,a
   0439 90 40 A5            814 	mov	dptr,#(_r2modm + 0x0024)
   043C 74 F6               815 	mov	a,#0xF6
   043E F0                  816 	movx	@dptr,a
   043F 90 40 A6            817 	mov	dptr,#(_r2modm + 0x0025)
   0442 74 80               818 	mov	a,#0x80
   0444 F0                  819 	movx	@dptr,a
   0445 90 40 A7            820 	mov	dptr,#(_r2modm + 0x0026)
   0448 74 15               821 	mov	a,#0x15
   044A F0                  822 	movx	@dptr,a
   044B 90 40 A8            823 	mov	dptr,#(_r2modm + 0x0027)
   044E 74 BB               824 	mov	a,#0xBB
   0450 F0                  825 	movx	@dptr,a
   0451 90 40 A9            826 	mov	dptr,#(_r2modm + 0x0028)
   0454 74 AC               827 	mov	a,#0xAC
   0456 F0                  828 	movx	@dptr,a
   0457 90 40 AA            829 	mov	dptr,#(_r2modm + 0x0029)
   045A 74 60               830 	mov	a,#0x60
   045C F0                  831 	movx	@dptr,a
   045D 90 40 AB            832 	mov	dptr,#(_r2modm + 0x002a)
   0460 74 27               833 	mov	a,#0x27
   0462 F0                  834 	movx	@dptr,a
   0463 90 40 AC            835 	mov	dptr,#(_r2modm + 0x002b)
   0466 74 80               836 	mov	a,#0x80
   0468 F0                  837 	movx	@dptr,a
   0469 90 40 AD            838 	mov	dptr,#(_r2modm + 0x002c)
   046C 74 83               839 	mov	a,#0x83
   046E F0                  840 	movx	@dptr,a
   046F 90 40 AE            841 	mov	dptr,#(_r2modm + 0x002d)
   0472 74 3C               842 	mov	a,#0x3C
   0474 F0                  843 	movx	@dptr,a
   0475 90 40 AF            844 	mov	dptr,#(_r2modm + 0x002e)
   0478 74 25               845 	mov	a,#0x25
   047A F0                  846 	movx	@dptr,a
   047B 90 40 B0            847 	mov	dptr,#(_r2modm + 0x002f)
   047E 74 9B               848 	mov	a,#0x9B
   0480 F0                  849 	movx	@dptr,a
   0481 90 40 B1            850 	mov	dptr,#(_r2modm + 0x0030)
   0484 74 F1               851 	mov	a,#0xF1
   0486 F0                  852 	movx	@dptr,a
   0487 90 40 B2            853 	mov	dptr,#(_r2modm + 0x0031)
   048A 74 89               854 	mov	a,#0x89
   048C F0                  855 	movx	@dptr,a
   048D 90 40 B3            856 	mov	dptr,#(_r2modm + 0x0032)
   0490 74 E3               857 	mov	a,#0xE3
   0492 F0                  858 	movx	@dptr,a
   0493 90 40 B4            859 	mov	dptr,#(_r2modm + 0x0033)
   0496 74 78               860 	mov	a,#0x78
   0498 F0                  861 	movx	@dptr,a
   0499 90 40 B5            862 	mov	dptr,#(_r2modm + 0x0034)
   049C 74 10               863 	mov	a,#0x10
   049E F0                  864 	movx	@dptr,a
   049F 90 40 B6            865 	mov	dptr,#(_r2modm + 0x0035)
   04A2 74 3D               866 	mov	a,#0x3D
   04A4 F0                  867 	movx	@dptr,a
   04A5 90 40 B7            868 	mov	dptr,#(_r2modm + 0x0036)
   04A8 74 53               869 	mov	a,#0x53
   04AA F0                  870 	movx	@dptr,a
   04AB 90 40 B8            871 	mov	dptr,#(_r2modm + 0x0037)
   04AE 74 21               872 	mov	a,#0x21
   04B0 F0                  873 	movx	@dptr,a
   04B1 90 40 B9            874 	mov	dptr,#(_r2modm + 0x0038)
   04B4 74 16               875 	mov	a,#0x16
   04B6 F0                  876 	movx	@dptr,a
   04B7 90 40 BA            877 	mov	dptr,#(_r2modm + 0x0039)
   04BA 74 4A               878 	mov	a,#0x4A
   04BC F0                  879 	movx	@dptr,a
   04BD 90 40 BB            880 	mov	dptr,#(_r2modm + 0x003a)
   04C0 74 A3               881 	mov	a,#0xA3
   04C2 F0                  882 	movx	@dptr,a
   04C3 90 40 BC            883 	mov	dptr,#(_r2modm + 0x003b)
   04C6 74 0C               884 	mov	a,#0x0C
   04C8 F0                  885 	movx	@dptr,a
   04C9 90 40 BD            886 	mov	dptr,#(_r2modm + 0x003c)
   04CC 74 AD               887 	mov	a,#0xAD
   04CE F0                  888 	movx	@dptr,a
   04CF 90 40 BE            889 	mov	dptr,#(_r2modm + 0x003d)
   04D2 74 64               890 	mov	a,#0x64
   04D4 F0                  891 	movx	@dptr,a
   04D5 90 40 BF            892 	mov	dptr,#(_r2modm + 0x003e)
   04D8 74 D2               893 	mov	a,#0xD2
   04DA F0                  894 	movx	@dptr,a
   04DB 90 40 C0            895 	mov	dptr,#(_r2modm + 0x003f)
   04DE 74 50               896 	mov	a,#0x50
   04E0 F0                  897 	movx	@dptr,a
   04E1 90 40 C1            898 	mov	dptr,#(_r2modm + 0x0040)
   04E4 74 C2               899 	mov	a,#0xC2
   04E6 F0                  900 	movx	@dptr,a
   04E7 90 40 C2            901 	mov	dptr,#(_r2modm + 0x0041)
   04EA 74 10               902 	mov	a,#0x10
   04EC F0                  903 	movx	@dptr,a
   04ED 90 40 C3            904 	mov	dptr,#(_r2modm + 0x0042)
   04F0 74 48               905 	mov	a,#0x48
   04F2 F0                  906 	movx	@dptr,a
   04F3 90 40 C4            907 	mov	dptr,#(_r2modm + 0x0043)
   04F6 74 87               908 	mov	a,#0x87
   04F8 F0                  909 	movx	@dptr,a
   04F9 90 40 C5            910 	mov	dptr,#(_r2modm + 0x0044)
   04FC 74 DA               911 	mov	a,#0xDA
   04FE F0                  912 	movx	@dptr,a
   04FF 90 40 C6            913 	mov	dptr,#(_r2modm + 0x0045)
   0502 74 C2               914 	mov	a,#0xC2
   0504 F0                  915 	movx	@dptr,a
   0505 90 40 C7            916 	mov	dptr,#(_r2modm + 0x0046)
   0508 74 EB               917 	mov	a,#0xEB
   050A F0                  918 	movx	@dptr,a
   050B 90 40 C8            919 	mov	dptr,#(_r2modm + 0x0047)
   050E 74 F1               920 	mov	a,#0xF1
   0510 F0                  921 	movx	@dptr,a
   0511 90 40 C9            922 	mov	dptr,#(_r2modm + 0x0048)
   0514 74 FC               923 	mov	a,#0xFC
   0516 F0                  924 	movx	@dptr,a
   0517 90 40 CA            925 	mov	dptr,#(_r2modm + 0x0049)
   051A 74 8F               926 	mov	a,#0x8F
   051C F0                  927 	movx	@dptr,a
   051D 90 40 CB            928 	mov	dptr,#(_r2modm + 0x004a)
   0520 74 FF               929 	mov	a,#0xFF
   0522 F0                  930 	movx	@dptr,a
   0523 90 40 CC            931 	mov	dptr,#(_r2modm + 0x004b)
   0526 74 E5               932 	mov	a,#0xE5
   0528 F0                  933 	movx	@dptr,a
   0529 90 40 CD            934 	mov	dptr,#(_r2modm + 0x004c)
   052C 74 CA               935 	mov	a,#0xCA
   052E F0                  936 	movx	@dptr,a
   052F 90 40 CE            937 	mov	dptr,#(_r2modm + 0x004d)
   0532 74 4D               938 	mov	a,#0x4D
   0534 F0                  939 	movx	@dptr,a
   0535 90 40 CF            940 	mov	dptr,#(_r2modm + 0x004e)
   0538 74 A9               941 	mov	a,#0xA9
   053A F0                  942 	movx	@dptr,a
   053B 90 40 D0            943 	mov	dptr,#(_r2modm + 0x004f)
   053E 74 68               944 	mov	a,#0x68
   0540 F0                  945 	movx	@dptr,a
   0541 90 40 D1            946 	mov	dptr,#(_r2modm + 0x0050)
   0544 74 CD               947 	mov	a,#0xCD
   0546 F0                  948 	movx	@dptr,a
   0547 90 40 D2            949 	mov	dptr,#(_r2modm + 0x0051)
   054A 74 3A               950 	mov	a,#0x3A
   054C F0                  951 	movx	@dptr,a
   054D 90 40 D3            952 	mov	dptr,#(_r2modm + 0x0052)
   0550 74 7B               953 	mov	a,#0x7B
   0552 F0                  954 	movx	@dptr,a
   0553 90 40 D4            955 	mov	dptr,#(_r2modm + 0x0053)
   0556 74 41               956 	mov	a,#0x41
   0558 F0                  957 	movx	@dptr,a
   0559 90 40 D5            958 	mov	dptr,#(_r2modm + 0x0054)
   055C 74 83               959 	mov	a,#0x83
   055E F0                  960 	movx	@dptr,a
   055F 90 40 D6            961 	mov	dptr,#(_r2modm + 0x0055)
   0562 74 53               962 	mov	a,#0x53
   0564 F0                  963 	movx	@dptr,a
   0565 90 40 D7            964 	mov	dptr,#(_r2modm + 0x0056)
   0568 74 5E               965 	mov	a,#0x5E
   056A F0                  966 	movx	@dptr,a
   056B 90 40 D8            967 	mov	dptr,#(_r2modm + 0x0057)
   056E 74 BB               968 	mov	a,#0xBB
   0570 F0                  969 	movx	@dptr,a
   0571 90 40 D9            970 	mov	dptr,#(_r2modm + 0x0058)
   0574 74 44               971 	mov	a,#0x44
   0576 F0                  972 	movx	@dptr,a
   0577 90 40 DA            973 	mov	dptr,#(_r2modm + 0x0059)
   057A 74 8D               974 	mov	a,#0x8D
   057C F0                  975 	movx	@dptr,a
   057D 90 40 DB            976 	mov	dptr,#(_r2modm + 0x005a)
   0580 74 9A               977 	mov	a,#0x9A
   0582 F0                  978 	movx	@dptr,a
   0583 90 40 DC            979 	mov	dptr,#(_r2modm + 0x005b)
   0586 74 34               980 	mov	a,#0x34
   0588 F0                  981 	movx	@dptr,a
   0589 90 40 DD            982 	mov	dptr,#(_r2modm + 0x005c)
   058C 74 86               983 	mov	a,#0x86
   058E F0                  984 	movx	@dptr,a
   058F 90 40 DE            985 	mov	dptr,#(_r2modm + 0x005d)
   0592 74 B3               986 	mov	a,#0xB3
   0594 F0                  987 	movx	@dptr,a
   0595 90 40 DF            988 	mov	dptr,#(_r2modm + 0x005e)
   0598 74 62               989 	mov	a,#0x62
   059A F0                  990 	movx	@dptr,a
   059B 90 40 E0            991 	mov	dptr,#(_r2modm + 0x005f)
   059E 74 7F               992 	mov	a,#0x7F
   05A0 F0                  993 	movx	@dptr,a
   05A1 90 40 E1            994 	mov	dptr,#(_r2modm + 0x0060)
   05A4 74 9D               995 	mov	a,#0x9D
   05A6 F0                  996 	movx	@dptr,a
   05A7 90 40 E2            997 	mov	dptr,#(_r2modm + 0x0061)
   05AA 74 96               998 	mov	a,#0x96
   05AC F0                  999 	movx	@dptr,a
   05AD 90 40 E3           1000 	mov	dptr,#(_r2modm + 0x0062)
   05B0 74 B0              1001 	mov	a,#0xB0
   05B2 F0                 1002 	movx	@dptr,a
   05B3 90 40 E4           1003 	mov	dptr,#(_r2modm + 0x0063)
   05B6 74 AC              1004 	mov	a,#0xAC
   05B8 F0                 1005 	movx	@dptr,a
   05B9 90 40 E5           1006 	mov	dptr,#(_r2modm + 0x0064)
   05BC 74 B1              1007 	mov	a,#0xB1
   05BE F0                 1008 	movx	@dptr,a
   05BF 90 40 E6           1009 	mov	dptr,#(_r2modm + 0x0065)
   05C2 74 30              1010 	mov	a,#0x30
   05C4 F0                 1011 	movx	@dptr,a
   05C5 90 40 E7           1012 	mov	dptr,#(_r2modm + 0x0066)
   05C8 74 CD              1013 	mov	a,#0xCD
   05CA F0                 1014 	movx	@dptr,a
   05CB 90 40 E8           1015 	mov	dptr,#(_r2modm + 0x0067)
   05CE 74 25              1016 	mov	a,#0x25
   05D0 F0                 1017 	movx	@dptr,a
   05D1 90 40 E9           1018 	mov	dptr,#(_r2modm + 0x0068)
   05D4 74 60              1019 	mov	a,#0x60
   05D6 F0                 1020 	movx	@dptr,a
   05D7 90 40 EA           1021 	mov	dptr,#(_r2modm + 0x0069)
   05DA 74 B0              1022 	mov	a,#0xB0
   05DC F0                 1023 	movx	@dptr,a
   05DD 90 40 EB           1024 	mov	dptr,#(_r2modm + 0x006a)
   05E0 74 42              1025 	mov	a,#0x42
   05E2 F0                 1026 	movx	@dptr,a
   05E3 90 40 EC           1027 	mov	dptr,#(_r2modm + 0x006b)
   05E6 74 C3              1028 	mov	a,#0xC3
   05E8 F0                 1029 	movx	@dptr,a
   05E9 90 40 ED           1030 	mov	dptr,#(_r2modm + 0x006c)
   05EC 74 E7              1031 	mov	a,#0xE7
   05EE F0                 1032 	movx	@dptr,a
   05EF 90 40 EE           1033 	mov	dptr,#(_r2modm + 0x006d)
   05F2 74 B0              1034 	mov	a,#0xB0
   05F4 F0                 1035 	movx	@dptr,a
   05F5 90 40 EF           1036 	mov	dptr,#(_r2modm + 0x006e)
   05F8 74 ED              1037 	mov	a,#0xED
   05FA F0                 1038 	movx	@dptr,a
   05FB 90 40 F0           1039 	mov	dptr,#(_r2modm + 0x006f)
   05FE 74 DA              1040 	mov	a,#0xDA
   0600 F0                 1041 	movx	@dptr,a
   0601 90 40 F1           1042 	mov	dptr,#(_r2modm + 0x0070)
   0604 74 B9              1043 	mov	a,#0xB9
   0606 F0                 1044 	movx	@dptr,a
   0607 90 40 F2           1045 	mov	dptr,#(_r2modm + 0x0071)
   060A 74 11              1046 	mov	a,#0x11
   060C F0                 1047 	movx	@dptr,a
   060D 90 40 F3           1048 	mov	dptr,#(_r2modm + 0x0072)
   0610 74 7D              1049 	mov	a,#0x7D
   0612 F0                 1050 	movx	@dptr,a
   0613 90 40 F4           1051 	mov	dptr,#(_r2modm + 0x0073)
   0616 74 2C              1052 	mov	a,#0x2C
   0618 F0                 1053 	movx	@dptr,a
   0619 90 40 F5           1054 	mov	dptr,#(_r2modm + 0x0074)
   061C 74 27              1055 	mov	a,#0x27
   061E F0                 1056 	movx	@dptr,a
   061F 90 40 F6           1057 	mov	dptr,#(_r2modm + 0x0075)
   0622 74 F6              1058 	mov	a,#0xF6
   0624 F0                 1059 	movx	@dptr,a
   0625 90 40 F7           1060 	mov	dptr,#(_r2modm + 0x0076)
   0628 74 8C              1061 	mov	a,#0x8C
   062A F0                 1062 	movx	@dptr,a
   062B 90 40 F8           1063 	mov	dptr,#(_r2modm + 0x0077)
   062E 74 D8              1064 	mov	a,#0xD8
   0630 F0                 1065 	movx	@dptr,a
   0631 90 40 F9           1066 	mov	dptr,#(_r2modm + 0x0078)
   0634 74 AA              1067 	mov	a,#0xAA
   0636 F0                 1068 	movx	@dptr,a
   0637 90 40 FA           1069 	mov	dptr,#(_r2modm + 0x0079)
   063A 74 3B              1070 	mov	a,#0x3B
   063C F0                 1071 	movx	@dptr,a
   063D 90 40 FB           1072 	mov	dptr,#(_r2modm + 0x007a)
   0640 74 E7              1073 	mov	a,#0xE7
   0642 F0                 1074 	movx	@dptr,a
   0643 90 40 FC           1075 	mov	dptr,#(_r2modm + 0x007b)
   0646 74 4F              1076 	mov	a,#0x4F
   0648 F0                 1077 	movx	@dptr,a
   0649 90 40 FD           1078 	mov	dptr,#(_r2modm + 0x007c)
   064C 74 86              1079 	mov	a,#0x86
   064E F0                 1080 	movx	@dptr,a
   064F 90 40 FE           1081 	mov	dptr,#(_r2modm + 0x007d)
   0652 74 1F              1082 	mov	a,#0x1F
   0654 F0                 1083 	movx	@dptr,a
   0655 90 40 FF           1084 	mov	dptr,#(_r2modm + 0x007e)
   0658 74 96              1085 	mov	a,#0x96
   065A F0                 1086 	movx	@dptr,a
   065B 90 41 00           1087 	mov	dptr,#(_r2modm + 0x007f)
   065E 74 2E              1088 	mov	a,#0x2E
   0660 F0                 1089 	movx	@dptr,a
                           1090 ;	decryption.c:8: volatile __xdata __at (0x4201) unsigned char modulus[SIZE] = {0x5D,0xEF,0x94,0x7C,0x83,0xBF,0x40,0x4D,0xAB,0xD7,0xDF,0xB2,0x4D,0x2B,0x07,0x59,0x1A,0x48,0xAE,0x45,0x17,0x2E,0x6A,0x65,0x01,0x54,0xF5,0xB7,0xDC,0x5D,0x8F,0x4C,0x33,0x84,0x70,0xBB,0x0B,0xA4,0xAC,0x87,0x82,0x1D,0x0D,0x50,0x2D,0x45,0xF9,0xF0,0x11,0x5B,0xC8,0xF9,0x18,0xFB,0xD3,0x6F,0xC3,0x74,0x02,0xAB,0x32,0x46,0x6B,0x52,0x9B,0x71,0xD9,0x21,0x73,0x3A,0xCC,0x6D,0xDB,0x10,0x89,0xCB,0x3B,0x47,0x13,0x0E,0x65,0x86,0x9E,0x7F,0x3E,0x43,0x92,0xFC,0xB6,0x6A,0x6B,0x37,0x90,0xEB,0x4F,0xE9,0xEB,0x9C,0x2F,0x6B,0x26,0xEF,0xB4,0xBB,0xFC,0x3D,0x33,0xFB,0x97,0x67,0x93,0x26,0x96,0x38,0xE5,0xF0,0x3A,0xC6,0xA3,0x95,0xA5,0x98,0xF4,0xB8,0x0B,0x88,0xE1,0xD4};
   0661 90 42 01           1091 	mov	dptr,#_modulus
   0664 74 5D              1092 	mov	a,#0x5D
   0666 F0                 1093 	movx	@dptr,a
   0667 90 42 02           1094 	mov	dptr,#(_modulus + 0x0001)
   066A 74 EF              1095 	mov	a,#0xEF
   066C F0                 1096 	movx	@dptr,a
   066D 90 42 03           1097 	mov	dptr,#(_modulus + 0x0002)
   0670 74 94              1098 	mov	a,#0x94
   0672 F0                 1099 	movx	@dptr,a
   0673 90 42 04           1100 	mov	dptr,#(_modulus + 0x0003)
   0676 74 7C              1101 	mov	a,#0x7C
   0678 F0                 1102 	movx	@dptr,a
   0679 90 42 05           1103 	mov	dptr,#(_modulus + 0x0004)
   067C 74 83              1104 	mov	a,#0x83
   067E F0                 1105 	movx	@dptr,a
   067F 90 42 06           1106 	mov	dptr,#(_modulus + 0x0005)
   0682 74 BF              1107 	mov	a,#0xBF
   0684 F0                 1108 	movx	@dptr,a
   0685 90 42 07           1109 	mov	dptr,#(_modulus + 0x0006)
   0688 74 40              1110 	mov	a,#0x40
   068A F0                 1111 	movx	@dptr,a
   068B 90 42 08           1112 	mov	dptr,#(_modulus + 0x0007)
   068E 74 4D              1113 	mov	a,#0x4D
   0690 F0                 1114 	movx	@dptr,a
   0691 90 42 09           1115 	mov	dptr,#(_modulus + 0x0008)
   0694 74 AB              1116 	mov	a,#0xAB
   0696 F0                 1117 	movx	@dptr,a
   0697 90 42 0A           1118 	mov	dptr,#(_modulus + 0x0009)
   069A 74 D7              1119 	mov	a,#0xD7
   069C F0                 1120 	movx	@dptr,a
   069D 90 42 0B           1121 	mov	dptr,#(_modulus + 0x000a)
   06A0 74 DF              1122 	mov	a,#0xDF
   06A2 F0                 1123 	movx	@dptr,a
   06A3 90 42 0C           1124 	mov	dptr,#(_modulus + 0x000b)
   06A6 74 B2              1125 	mov	a,#0xB2
   06A8 F0                 1126 	movx	@dptr,a
   06A9 90 42 0D           1127 	mov	dptr,#(_modulus + 0x000c)
   06AC 74 4D              1128 	mov	a,#0x4D
   06AE F0                 1129 	movx	@dptr,a
   06AF 90 42 0E           1130 	mov	dptr,#(_modulus + 0x000d)
   06B2 74 2B              1131 	mov	a,#0x2B
   06B4 F0                 1132 	movx	@dptr,a
   06B5 90 42 0F           1133 	mov	dptr,#(_modulus + 0x000e)
   06B8 74 07              1134 	mov	a,#0x07
   06BA F0                 1135 	movx	@dptr,a
   06BB 90 42 10           1136 	mov	dptr,#(_modulus + 0x000f)
   06BE 74 59              1137 	mov	a,#0x59
   06C0 F0                 1138 	movx	@dptr,a
   06C1 90 42 11           1139 	mov	dptr,#(_modulus + 0x0010)
   06C4 74 1A              1140 	mov	a,#0x1A
   06C6 F0                 1141 	movx	@dptr,a
   06C7 90 42 12           1142 	mov	dptr,#(_modulus + 0x0011)
   06CA 74 48              1143 	mov	a,#0x48
   06CC F0                 1144 	movx	@dptr,a
   06CD 90 42 13           1145 	mov	dptr,#(_modulus + 0x0012)
   06D0 74 AE              1146 	mov	a,#0xAE
   06D2 F0                 1147 	movx	@dptr,a
   06D3 90 42 14           1148 	mov	dptr,#(_modulus + 0x0013)
   06D6 74 45              1149 	mov	a,#0x45
   06D8 F0                 1150 	movx	@dptr,a
   06D9 90 42 15           1151 	mov	dptr,#(_modulus + 0x0014)
   06DC 74 17              1152 	mov	a,#0x17
   06DE F0                 1153 	movx	@dptr,a
   06DF 90 42 16           1154 	mov	dptr,#(_modulus + 0x0015)
   06E2 74 2E              1155 	mov	a,#0x2E
   06E4 F0                 1156 	movx	@dptr,a
   06E5 90 42 17           1157 	mov	dptr,#(_modulus + 0x0016)
   06E8 74 6A              1158 	mov	a,#0x6A
   06EA F0                 1159 	movx	@dptr,a
   06EB 90 42 18           1160 	mov	dptr,#(_modulus + 0x0017)
   06EE 74 65              1161 	mov	a,#0x65
   06F0 F0                 1162 	movx	@dptr,a
   06F1 90 42 19           1163 	mov	dptr,#(_modulus + 0x0018)
   06F4 74 01              1164 	mov	a,#0x01
   06F6 F0                 1165 	movx	@dptr,a
   06F7 90 42 1A           1166 	mov	dptr,#(_modulus + 0x0019)
   06FA 74 54              1167 	mov	a,#0x54
   06FC F0                 1168 	movx	@dptr,a
   06FD 90 42 1B           1169 	mov	dptr,#(_modulus + 0x001a)
   0700 74 F5              1170 	mov	a,#0xF5
   0702 F0                 1171 	movx	@dptr,a
   0703 90 42 1C           1172 	mov	dptr,#(_modulus + 0x001b)
   0706 74 B7              1173 	mov	a,#0xB7
   0708 F0                 1174 	movx	@dptr,a
   0709 90 42 1D           1175 	mov	dptr,#(_modulus + 0x001c)
   070C 74 DC              1176 	mov	a,#0xDC
   070E F0                 1177 	movx	@dptr,a
   070F 90 42 1E           1178 	mov	dptr,#(_modulus + 0x001d)
   0712 74 5D              1179 	mov	a,#0x5D
   0714 F0                 1180 	movx	@dptr,a
   0715 90 42 1F           1181 	mov	dptr,#(_modulus + 0x001e)
   0718 74 8F              1182 	mov	a,#0x8F
   071A F0                 1183 	movx	@dptr,a
   071B 90 42 20           1184 	mov	dptr,#(_modulus + 0x001f)
   071E 74 4C              1185 	mov	a,#0x4C
   0720 F0                 1186 	movx	@dptr,a
   0721 90 42 21           1187 	mov	dptr,#(_modulus + 0x0020)
   0724 74 33              1188 	mov	a,#0x33
   0726 F0                 1189 	movx	@dptr,a
   0727 90 42 22           1190 	mov	dptr,#(_modulus + 0x0021)
   072A 74 84              1191 	mov	a,#0x84
   072C F0                 1192 	movx	@dptr,a
   072D 90 42 23           1193 	mov	dptr,#(_modulus + 0x0022)
   0730 74 70              1194 	mov	a,#0x70
   0732 F0                 1195 	movx	@dptr,a
   0733 90 42 24           1196 	mov	dptr,#(_modulus + 0x0023)
   0736 74 BB              1197 	mov	a,#0xBB
   0738 F0                 1198 	movx	@dptr,a
   0739 90 42 25           1199 	mov	dptr,#(_modulus + 0x0024)
   073C 74 0B              1200 	mov	a,#0x0B
   073E F0                 1201 	movx	@dptr,a
   073F 90 42 26           1202 	mov	dptr,#(_modulus + 0x0025)
   0742 74 A4              1203 	mov	a,#0xA4
   0744 F0                 1204 	movx	@dptr,a
   0745 90 42 27           1205 	mov	dptr,#(_modulus + 0x0026)
   0748 74 AC              1206 	mov	a,#0xAC
   074A F0                 1207 	movx	@dptr,a
   074B 90 42 28           1208 	mov	dptr,#(_modulus + 0x0027)
   074E 74 87              1209 	mov	a,#0x87
   0750 F0                 1210 	movx	@dptr,a
   0751 90 42 29           1211 	mov	dptr,#(_modulus + 0x0028)
   0754 74 82              1212 	mov	a,#0x82
   0756 F0                 1213 	movx	@dptr,a
   0757 90 42 2A           1214 	mov	dptr,#(_modulus + 0x0029)
   075A 74 1D              1215 	mov	a,#0x1D
   075C F0                 1216 	movx	@dptr,a
   075D 90 42 2B           1217 	mov	dptr,#(_modulus + 0x002a)
   0760 74 0D              1218 	mov	a,#0x0D
   0762 F0                 1219 	movx	@dptr,a
   0763 90 42 2C           1220 	mov	dptr,#(_modulus + 0x002b)
   0766 74 50              1221 	mov	a,#0x50
   0768 F0                 1222 	movx	@dptr,a
   0769 90 42 2D           1223 	mov	dptr,#(_modulus + 0x002c)
   076C 74 2D              1224 	mov	a,#0x2D
   076E F0                 1225 	movx	@dptr,a
   076F 90 42 2E           1226 	mov	dptr,#(_modulus + 0x002d)
   0772 74 45              1227 	mov	a,#0x45
   0774 F0                 1228 	movx	@dptr,a
   0775 90 42 2F           1229 	mov	dptr,#(_modulus + 0x002e)
   0778 74 F9              1230 	mov	a,#0xF9
   077A F0                 1231 	movx	@dptr,a
   077B 90 42 30           1232 	mov	dptr,#(_modulus + 0x002f)
   077E 74 F0              1233 	mov	a,#0xF0
   0780 F0                 1234 	movx	@dptr,a
   0781 90 42 31           1235 	mov	dptr,#(_modulus + 0x0030)
   0784 74 11              1236 	mov	a,#0x11
   0786 F0                 1237 	movx	@dptr,a
   0787 90 42 32           1238 	mov	dptr,#(_modulus + 0x0031)
   078A 74 5B              1239 	mov	a,#0x5B
   078C F0                 1240 	movx	@dptr,a
   078D 90 42 33           1241 	mov	dptr,#(_modulus + 0x0032)
   0790 74 C8              1242 	mov	a,#0xC8
   0792 F0                 1243 	movx	@dptr,a
   0793 90 42 34           1244 	mov	dptr,#(_modulus + 0x0033)
   0796 74 F9              1245 	mov	a,#0xF9
   0798 F0                 1246 	movx	@dptr,a
   0799 90 42 35           1247 	mov	dptr,#(_modulus + 0x0034)
   079C 74 18              1248 	mov	a,#0x18
   079E F0                 1249 	movx	@dptr,a
   079F 90 42 36           1250 	mov	dptr,#(_modulus + 0x0035)
   07A2 74 FB              1251 	mov	a,#0xFB
   07A4 F0                 1252 	movx	@dptr,a
   07A5 90 42 37           1253 	mov	dptr,#(_modulus + 0x0036)
   07A8 74 D3              1254 	mov	a,#0xD3
   07AA F0                 1255 	movx	@dptr,a
   07AB 90 42 38           1256 	mov	dptr,#(_modulus + 0x0037)
   07AE 74 6F              1257 	mov	a,#0x6F
   07B0 F0                 1258 	movx	@dptr,a
   07B1 90 42 39           1259 	mov	dptr,#(_modulus + 0x0038)
   07B4 74 C3              1260 	mov	a,#0xC3
   07B6 F0                 1261 	movx	@dptr,a
   07B7 90 42 3A           1262 	mov	dptr,#(_modulus + 0x0039)
   07BA 74 74              1263 	mov	a,#0x74
   07BC F0                 1264 	movx	@dptr,a
   07BD 90 42 3B           1265 	mov	dptr,#(_modulus + 0x003a)
   07C0 74 02              1266 	mov	a,#0x02
   07C2 F0                 1267 	movx	@dptr,a
   07C3 90 42 3C           1268 	mov	dptr,#(_modulus + 0x003b)
   07C6 74 AB              1269 	mov	a,#0xAB
   07C8 F0                 1270 	movx	@dptr,a
   07C9 90 42 3D           1271 	mov	dptr,#(_modulus + 0x003c)
   07CC 74 32              1272 	mov	a,#0x32
   07CE F0                 1273 	movx	@dptr,a
   07CF 90 42 3E           1274 	mov	dptr,#(_modulus + 0x003d)
   07D2 74 46              1275 	mov	a,#0x46
   07D4 F0                 1276 	movx	@dptr,a
   07D5 90 42 3F           1277 	mov	dptr,#(_modulus + 0x003e)
   07D8 74 6B              1278 	mov	a,#0x6B
   07DA F0                 1279 	movx	@dptr,a
   07DB 90 42 40           1280 	mov	dptr,#(_modulus + 0x003f)
   07DE 74 52              1281 	mov	a,#0x52
   07E0 F0                 1282 	movx	@dptr,a
   07E1 90 42 41           1283 	mov	dptr,#(_modulus + 0x0040)
   07E4 74 9B              1284 	mov	a,#0x9B
   07E6 F0                 1285 	movx	@dptr,a
   07E7 90 42 42           1286 	mov	dptr,#(_modulus + 0x0041)
   07EA 74 71              1287 	mov	a,#0x71
   07EC F0                 1288 	movx	@dptr,a
   07ED 90 42 43           1289 	mov	dptr,#(_modulus + 0x0042)
   07F0 74 D9              1290 	mov	a,#0xD9
   07F2 F0                 1291 	movx	@dptr,a
   07F3 90 42 44           1292 	mov	dptr,#(_modulus + 0x0043)
   07F6 74 21              1293 	mov	a,#0x21
   07F8 F0                 1294 	movx	@dptr,a
   07F9 90 42 45           1295 	mov	dptr,#(_modulus + 0x0044)
   07FC 74 73              1296 	mov	a,#0x73
   07FE F0                 1297 	movx	@dptr,a
   07FF 90 42 46           1298 	mov	dptr,#(_modulus + 0x0045)
   0802 74 3A              1299 	mov	a,#0x3A
   0804 F0                 1300 	movx	@dptr,a
   0805 90 42 47           1301 	mov	dptr,#(_modulus + 0x0046)
   0808 74 CC              1302 	mov	a,#0xCC
   080A F0                 1303 	movx	@dptr,a
   080B 90 42 48           1304 	mov	dptr,#(_modulus + 0x0047)
   080E 74 6D              1305 	mov	a,#0x6D
   0810 F0                 1306 	movx	@dptr,a
   0811 90 42 49           1307 	mov	dptr,#(_modulus + 0x0048)
   0814 74 DB              1308 	mov	a,#0xDB
   0816 F0                 1309 	movx	@dptr,a
   0817 90 42 4A           1310 	mov	dptr,#(_modulus + 0x0049)
   081A 74 10              1311 	mov	a,#0x10
   081C F0                 1312 	movx	@dptr,a
   081D 90 42 4B           1313 	mov	dptr,#(_modulus + 0x004a)
   0820 74 89              1314 	mov	a,#0x89
   0822 F0                 1315 	movx	@dptr,a
   0823 90 42 4C           1316 	mov	dptr,#(_modulus + 0x004b)
   0826 74 CB              1317 	mov	a,#0xCB
   0828 F0                 1318 	movx	@dptr,a
   0829 90 42 4D           1319 	mov	dptr,#(_modulus + 0x004c)
   082C 74 3B              1320 	mov	a,#0x3B
   082E F0                 1321 	movx	@dptr,a
   082F 90 42 4E           1322 	mov	dptr,#(_modulus + 0x004d)
   0832 74 47              1323 	mov	a,#0x47
   0834 F0                 1324 	movx	@dptr,a
   0835 90 42 4F           1325 	mov	dptr,#(_modulus + 0x004e)
   0838 74 13              1326 	mov	a,#0x13
   083A F0                 1327 	movx	@dptr,a
   083B 90 42 50           1328 	mov	dptr,#(_modulus + 0x004f)
   083E 74 0E              1329 	mov	a,#0x0E
   0840 F0                 1330 	movx	@dptr,a
   0841 90 42 51           1331 	mov	dptr,#(_modulus + 0x0050)
   0844 74 65              1332 	mov	a,#0x65
   0846 F0                 1333 	movx	@dptr,a
   0847 90 42 52           1334 	mov	dptr,#(_modulus + 0x0051)
   084A 74 86              1335 	mov	a,#0x86
   084C F0                 1336 	movx	@dptr,a
   084D 90 42 53           1337 	mov	dptr,#(_modulus + 0x0052)
   0850 74 9E              1338 	mov	a,#0x9E
   0852 F0                 1339 	movx	@dptr,a
   0853 90 42 54           1340 	mov	dptr,#(_modulus + 0x0053)
   0856 74 7F              1341 	mov	a,#0x7F
   0858 F0                 1342 	movx	@dptr,a
   0859 90 42 55           1343 	mov	dptr,#(_modulus + 0x0054)
   085C 74 3E              1344 	mov	a,#0x3E
   085E F0                 1345 	movx	@dptr,a
   085F 90 42 56           1346 	mov	dptr,#(_modulus + 0x0055)
   0862 74 43              1347 	mov	a,#0x43
   0864 F0                 1348 	movx	@dptr,a
   0865 90 42 57           1349 	mov	dptr,#(_modulus + 0x0056)
   0868 74 92              1350 	mov	a,#0x92
   086A F0                 1351 	movx	@dptr,a
   086B 90 42 58           1352 	mov	dptr,#(_modulus + 0x0057)
   086E 74 FC              1353 	mov	a,#0xFC
   0870 F0                 1354 	movx	@dptr,a
   0871 90 42 59           1355 	mov	dptr,#(_modulus + 0x0058)
   0874 74 B6              1356 	mov	a,#0xB6
   0876 F0                 1357 	movx	@dptr,a
   0877 90 42 5A           1358 	mov	dptr,#(_modulus + 0x0059)
   087A 74 6A              1359 	mov	a,#0x6A
   087C F0                 1360 	movx	@dptr,a
   087D 90 42 5B           1361 	mov	dptr,#(_modulus + 0x005a)
   0880 74 6B              1362 	mov	a,#0x6B
   0882 F0                 1363 	movx	@dptr,a
   0883 90 42 5C           1364 	mov	dptr,#(_modulus + 0x005b)
   0886 74 37              1365 	mov	a,#0x37
   0888 F0                 1366 	movx	@dptr,a
   0889 90 42 5D           1367 	mov	dptr,#(_modulus + 0x005c)
   088C 74 90              1368 	mov	a,#0x90
   088E F0                 1369 	movx	@dptr,a
   088F 90 42 5E           1370 	mov	dptr,#(_modulus + 0x005d)
   0892 74 EB              1371 	mov	a,#0xEB
   0894 F0                 1372 	movx	@dptr,a
   0895 90 42 5F           1373 	mov	dptr,#(_modulus + 0x005e)
   0898 74 4F              1374 	mov	a,#0x4F
   089A F0                 1375 	movx	@dptr,a
   089B 90 42 60           1376 	mov	dptr,#(_modulus + 0x005f)
   089E 74 E9              1377 	mov	a,#0xE9
   08A0 F0                 1378 	movx	@dptr,a
   08A1 90 42 61           1379 	mov	dptr,#(_modulus + 0x0060)
   08A4 74 EB              1380 	mov	a,#0xEB
   08A6 F0                 1381 	movx	@dptr,a
   08A7 90 42 62           1382 	mov	dptr,#(_modulus + 0x0061)
   08AA 74 9C              1383 	mov	a,#0x9C
   08AC F0                 1384 	movx	@dptr,a
   08AD 90 42 63           1385 	mov	dptr,#(_modulus + 0x0062)
   08B0 74 2F              1386 	mov	a,#0x2F
   08B2 F0                 1387 	movx	@dptr,a
   08B3 90 42 64           1388 	mov	dptr,#(_modulus + 0x0063)
   08B6 74 6B              1389 	mov	a,#0x6B
   08B8 F0                 1390 	movx	@dptr,a
   08B9 90 42 65           1391 	mov	dptr,#(_modulus + 0x0064)
   08BC 74 26              1392 	mov	a,#0x26
   08BE F0                 1393 	movx	@dptr,a
   08BF 90 42 66           1394 	mov	dptr,#(_modulus + 0x0065)
   08C2 74 EF              1395 	mov	a,#0xEF
   08C4 F0                 1396 	movx	@dptr,a
   08C5 90 42 67           1397 	mov	dptr,#(_modulus + 0x0066)
   08C8 74 B4              1398 	mov	a,#0xB4
   08CA F0                 1399 	movx	@dptr,a
   08CB 90 42 68           1400 	mov	dptr,#(_modulus + 0x0067)
   08CE 74 BB              1401 	mov	a,#0xBB
   08D0 F0                 1402 	movx	@dptr,a
   08D1 90 42 69           1403 	mov	dptr,#(_modulus + 0x0068)
   08D4 74 FC              1404 	mov	a,#0xFC
   08D6 F0                 1405 	movx	@dptr,a
   08D7 90 42 6A           1406 	mov	dptr,#(_modulus + 0x0069)
   08DA 74 3D              1407 	mov	a,#0x3D
   08DC F0                 1408 	movx	@dptr,a
   08DD 90 42 6B           1409 	mov	dptr,#(_modulus + 0x006a)
   08E0 74 33              1410 	mov	a,#0x33
   08E2 F0                 1411 	movx	@dptr,a
   08E3 90 42 6C           1412 	mov	dptr,#(_modulus + 0x006b)
   08E6 74 FB              1413 	mov	a,#0xFB
   08E8 F0                 1414 	movx	@dptr,a
   08E9 90 42 6D           1415 	mov	dptr,#(_modulus + 0x006c)
   08EC 74 97              1416 	mov	a,#0x97
   08EE F0                 1417 	movx	@dptr,a
   08EF 90 42 6E           1418 	mov	dptr,#(_modulus + 0x006d)
   08F2 74 67              1419 	mov	a,#0x67
   08F4 F0                 1420 	movx	@dptr,a
   08F5 90 42 6F           1421 	mov	dptr,#(_modulus + 0x006e)
   08F8 74 93              1422 	mov	a,#0x93
   08FA F0                 1423 	movx	@dptr,a
   08FB 90 42 70           1424 	mov	dptr,#(_modulus + 0x006f)
   08FE 74 26              1425 	mov	a,#0x26
   0900 F0                 1426 	movx	@dptr,a
   0901 90 42 71           1427 	mov	dptr,#(_modulus + 0x0070)
   0904 74 96              1428 	mov	a,#0x96
   0906 F0                 1429 	movx	@dptr,a
   0907 90 42 72           1430 	mov	dptr,#(_modulus + 0x0071)
   090A 74 38              1431 	mov	a,#0x38
   090C F0                 1432 	movx	@dptr,a
   090D 90 42 73           1433 	mov	dptr,#(_modulus + 0x0072)
   0910 74 E5              1434 	mov	a,#0xE5
   0912 F0                 1435 	movx	@dptr,a
   0913 90 42 74           1436 	mov	dptr,#(_modulus + 0x0073)
   0916 74 F0              1437 	mov	a,#0xF0
   0918 F0                 1438 	movx	@dptr,a
   0919 90 42 75           1439 	mov	dptr,#(_modulus + 0x0074)
   091C 74 3A              1440 	mov	a,#0x3A
   091E F0                 1441 	movx	@dptr,a
   091F 90 42 76           1442 	mov	dptr,#(_modulus + 0x0075)
   0922 74 C6              1443 	mov	a,#0xC6
   0924 F0                 1444 	movx	@dptr,a
   0925 90 42 77           1445 	mov	dptr,#(_modulus + 0x0076)
   0928 74 A3              1446 	mov	a,#0xA3
   092A F0                 1447 	movx	@dptr,a
   092B 90 42 78           1448 	mov	dptr,#(_modulus + 0x0077)
   092E 74 95              1449 	mov	a,#0x95
   0930 F0                 1450 	movx	@dptr,a
   0931 90 42 79           1451 	mov	dptr,#(_modulus + 0x0078)
   0934 74 A5              1452 	mov	a,#0xA5
   0936 F0                 1453 	movx	@dptr,a
   0937 90 42 7A           1454 	mov	dptr,#(_modulus + 0x0079)
   093A 74 98              1455 	mov	a,#0x98
   093C F0                 1456 	movx	@dptr,a
   093D 90 42 7B           1457 	mov	dptr,#(_modulus + 0x007a)
   0940 74 F4              1458 	mov	a,#0xF4
   0942 F0                 1459 	movx	@dptr,a
   0943 90 42 7C           1460 	mov	dptr,#(_modulus + 0x007b)
   0946 74 B8              1461 	mov	a,#0xB8
   0948 F0                 1462 	movx	@dptr,a
   0949 90 42 7D           1463 	mov	dptr,#(_modulus + 0x007c)
   094C 74 0B              1464 	mov	a,#0x0B
   094E F0                 1465 	movx	@dptr,a
   094F 90 42 7E           1466 	mov	dptr,#(_modulus + 0x007d)
   0952 74 88              1467 	mov	a,#0x88
   0954 F0                 1468 	movx	@dptr,a
   0955 90 42 7F           1469 	mov	dptr,#(_modulus + 0x007e)
   0958 74 E1              1470 	mov	a,#0xE1
   095A F0                 1471 	movx	@dptr,a
   095B 90 42 80           1472 	mov	dptr,#(_modulus + 0x007f)
   095E 74 D4              1473 	mov	a,#0xD4
   0960 F0                 1474 	movx	@dptr,a
                           1475 ;	decryption.c:9: volatile __xdata __at (0x4000) unsigned char message[SIZE+1] = {0xcb,0xd0,0x7a,0xfc,0x21,0x61,0x42,0x14,0x1f,0xf0,0x50,0x6b,0x46,0x15,0x8d,0x8f,0xb2,0x3b,0xeb,0xdd,0xa7,0xdc,0x0c,0x2c,0x6d,0x31,0x99,0xf9,0xc1,0xc6,0x7e,0xec,0xfe,0x13,0xae,0x24,0x61,0x91,0xb0,0xf6,0x69,0xed,0x03,0x06,0x8b,0xd1,0x7c,0x29,0x5b,0x5d,0x5c,0xad,0xb9,0xa4,0x24,0x6e,0x3a,0x34,0xf9,0xb8,0xe7,0x10,0x97,0x82,0x96,0xa5,0xce,0x2b,0x80,0x83,0x3e,0x75,0x56,0xa4,0x3e,0x3e,0xdb,0xdd,0xb0,0xdb,0xef,0x10,0x35,0x6c,0xb8,0xab,0xa4,0xe9,0x1c,0xb0,0xf5,0xb9,0xf1,0x3e,0x2b,0x0a,0xf3,0xdf,0x02,0x87,0xaf,0xa8,0xb3,0x37,0x03,0x7c,0xc1,0xc5,0x71,0x76,0x72,0x1d,0x82,0x98,0xa9,0x3e,0xc3,0xe2,0xad,0x1a,0x4e,0x43,0x79,0x7a,0xc3,0xbe,0x8a,0x6e};
   0961 90 40 00           1476 	mov	dptr,#_message
   0964 74 CB              1477 	mov	a,#0xCB
   0966 F0                 1478 	movx	@dptr,a
   0967 90 40 01           1479 	mov	dptr,#(_message + 0x0001)
   096A 74 D0              1480 	mov	a,#0xD0
   096C F0                 1481 	movx	@dptr,a
   096D 90 40 02           1482 	mov	dptr,#(_message + 0x0002)
   0970 74 7A              1483 	mov	a,#0x7A
   0972 F0                 1484 	movx	@dptr,a
   0973 90 40 03           1485 	mov	dptr,#(_message + 0x0003)
   0976 74 FC              1486 	mov	a,#0xFC
   0978 F0                 1487 	movx	@dptr,a
   0979 90 40 04           1488 	mov	dptr,#(_message + 0x0004)
   097C 74 21              1489 	mov	a,#0x21
   097E F0                 1490 	movx	@dptr,a
   097F 90 40 05           1491 	mov	dptr,#(_message + 0x0005)
   0982 74 61              1492 	mov	a,#0x61
   0984 F0                 1493 	movx	@dptr,a
   0985 90 40 06           1494 	mov	dptr,#(_message + 0x0006)
   0988 74 42              1495 	mov	a,#0x42
   098A F0                 1496 	movx	@dptr,a
   098B 90 40 07           1497 	mov	dptr,#(_message + 0x0007)
   098E 74 14              1498 	mov	a,#0x14
   0990 F0                 1499 	movx	@dptr,a
   0991 90 40 08           1500 	mov	dptr,#(_message + 0x0008)
   0994 74 1F              1501 	mov	a,#0x1F
   0996 F0                 1502 	movx	@dptr,a
   0997 90 40 09           1503 	mov	dptr,#(_message + 0x0009)
   099A 74 F0              1504 	mov	a,#0xF0
   099C F0                 1505 	movx	@dptr,a
   099D 90 40 0A           1506 	mov	dptr,#(_message + 0x000a)
   09A0 74 50              1507 	mov	a,#0x50
   09A2 F0                 1508 	movx	@dptr,a
   09A3 90 40 0B           1509 	mov	dptr,#(_message + 0x000b)
   09A6 74 6B              1510 	mov	a,#0x6B
   09A8 F0                 1511 	movx	@dptr,a
   09A9 90 40 0C           1512 	mov	dptr,#(_message + 0x000c)
   09AC 74 46              1513 	mov	a,#0x46
   09AE F0                 1514 	movx	@dptr,a
   09AF 90 40 0D           1515 	mov	dptr,#(_message + 0x000d)
   09B2 74 15              1516 	mov	a,#0x15
   09B4 F0                 1517 	movx	@dptr,a
   09B5 90 40 0E           1518 	mov	dptr,#(_message + 0x000e)
   09B8 74 8D              1519 	mov	a,#0x8D
   09BA F0                 1520 	movx	@dptr,a
   09BB 90 40 0F           1521 	mov	dptr,#(_message + 0x000f)
   09BE 74 8F              1522 	mov	a,#0x8F
   09C0 F0                 1523 	movx	@dptr,a
   09C1 90 40 10           1524 	mov	dptr,#(_message + 0x0010)
   09C4 74 B2              1525 	mov	a,#0xB2
   09C6 F0                 1526 	movx	@dptr,a
   09C7 90 40 11           1527 	mov	dptr,#(_message + 0x0011)
   09CA 74 3B              1528 	mov	a,#0x3B
   09CC F0                 1529 	movx	@dptr,a
   09CD 90 40 12           1530 	mov	dptr,#(_message + 0x0012)
   09D0 74 EB              1531 	mov	a,#0xEB
   09D2 F0                 1532 	movx	@dptr,a
   09D3 90 40 13           1533 	mov	dptr,#(_message + 0x0013)
   09D6 74 DD              1534 	mov	a,#0xDD
   09D8 F0                 1535 	movx	@dptr,a
   09D9 90 40 14           1536 	mov	dptr,#(_message + 0x0014)
   09DC 74 A7              1537 	mov	a,#0xA7
   09DE F0                 1538 	movx	@dptr,a
   09DF 90 40 15           1539 	mov	dptr,#(_message + 0x0015)
   09E2 74 DC              1540 	mov	a,#0xDC
   09E4 F0                 1541 	movx	@dptr,a
   09E5 90 40 16           1542 	mov	dptr,#(_message + 0x0016)
   09E8 74 0C              1543 	mov	a,#0x0C
   09EA F0                 1544 	movx	@dptr,a
   09EB 90 40 17           1545 	mov	dptr,#(_message + 0x0017)
   09EE 74 2C              1546 	mov	a,#0x2C
   09F0 F0                 1547 	movx	@dptr,a
   09F1 90 40 18           1548 	mov	dptr,#(_message + 0x0018)
   09F4 74 6D              1549 	mov	a,#0x6D
   09F6 F0                 1550 	movx	@dptr,a
   09F7 90 40 19           1551 	mov	dptr,#(_message + 0x0019)
   09FA 74 31              1552 	mov	a,#0x31
   09FC F0                 1553 	movx	@dptr,a
   09FD 90 40 1A           1554 	mov	dptr,#(_message + 0x001a)
   0A00 74 99              1555 	mov	a,#0x99
   0A02 F0                 1556 	movx	@dptr,a
   0A03 90 40 1B           1557 	mov	dptr,#(_message + 0x001b)
   0A06 74 F9              1558 	mov	a,#0xF9
   0A08 F0                 1559 	movx	@dptr,a
   0A09 90 40 1C           1560 	mov	dptr,#(_message + 0x001c)
   0A0C 74 C1              1561 	mov	a,#0xC1
   0A0E F0                 1562 	movx	@dptr,a
   0A0F 90 40 1D           1563 	mov	dptr,#(_message + 0x001d)
   0A12 74 C6              1564 	mov	a,#0xC6
   0A14 F0                 1565 	movx	@dptr,a
   0A15 90 40 1E           1566 	mov	dptr,#(_message + 0x001e)
   0A18 74 7E              1567 	mov	a,#0x7E
   0A1A F0                 1568 	movx	@dptr,a
   0A1B 90 40 1F           1569 	mov	dptr,#(_message + 0x001f)
   0A1E 74 EC              1570 	mov	a,#0xEC
   0A20 F0                 1571 	movx	@dptr,a
   0A21 90 40 20           1572 	mov	dptr,#(_message + 0x0020)
   0A24 74 FE              1573 	mov	a,#0xFE
   0A26 F0                 1574 	movx	@dptr,a
   0A27 90 40 21           1575 	mov	dptr,#(_message + 0x0021)
   0A2A 74 13              1576 	mov	a,#0x13
   0A2C F0                 1577 	movx	@dptr,a
   0A2D 90 40 22           1578 	mov	dptr,#(_message + 0x0022)
   0A30 74 AE              1579 	mov	a,#0xAE
   0A32 F0                 1580 	movx	@dptr,a
   0A33 90 40 23           1581 	mov	dptr,#(_message + 0x0023)
   0A36 74 24              1582 	mov	a,#0x24
   0A38 F0                 1583 	movx	@dptr,a
   0A39 90 40 24           1584 	mov	dptr,#(_message + 0x0024)
   0A3C 74 61              1585 	mov	a,#0x61
   0A3E F0                 1586 	movx	@dptr,a
   0A3F 90 40 25           1587 	mov	dptr,#(_message + 0x0025)
   0A42 74 91              1588 	mov	a,#0x91
   0A44 F0                 1589 	movx	@dptr,a
   0A45 90 40 26           1590 	mov	dptr,#(_message + 0x0026)
   0A48 74 B0              1591 	mov	a,#0xB0
   0A4A F0                 1592 	movx	@dptr,a
   0A4B 90 40 27           1593 	mov	dptr,#(_message + 0x0027)
   0A4E 74 F6              1594 	mov	a,#0xF6
   0A50 F0                 1595 	movx	@dptr,a
   0A51 90 40 28           1596 	mov	dptr,#(_message + 0x0028)
   0A54 74 69              1597 	mov	a,#0x69
   0A56 F0                 1598 	movx	@dptr,a
   0A57 90 40 29           1599 	mov	dptr,#(_message + 0x0029)
   0A5A 74 ED              1600 	mov	a,#0xED
   0A5C F0                 1601 	movx	@dptr,a
   0A5D 90 40 2A           1602 	mov	dptr,#(_message + 0x002a)
   0A60 74 03              1603 	mov	a,#0x03
   0A62 F0                 1604 	movx	@dptr,a
   0A63 90 40 2B           1605 	mov	dptr,#(_message + 0x002b)
   0A66 74 06              1606 	mov	a,#0x06
   0A68 F0                 1607 	movx	@dptr,a
   0A69 90 40 2C           1608 	mov	dptr,#(_message + 0x002c)
   0A6C 74 8B              1609 	mov	a,#0x8B
   0A6E F0                 1610 	movx	@dptr,a
   0A6F 90 40 2D           1611 	mov	dptr,#(_message + 0x002d)
   0A72 74 D1              1612 	mov	a,#0xD1
   0A74 F0                 1613 	movx	@dptr,a
   0A75 90 40 2E           1614 	mov	dptr,#(_message + 0x002e)
   0A78 74 7C              1615 	mov	a,#0x7C
   0A7A F0                 1616 	movx	@dptr,a
   0A7B 90 40 2F           1617 	mov	dptr,#(_message + 0x002f)
   0A7E 74 29              1618 	mov	a,#0x29
   0A80 F0                 1619 	movx	@dptr,a
   0A81 90 40 30           1620 	mov	dptr,#(_message + 0x0030)
   0A84 74 5B              1621 	mov	a,#0x5B
   0A86 F0                 1622 	movx	@dptr,a
   0A87 90 40 31           1623 	mov	dptr,#(_message + 0x0031)
   0A8A 74 5D              1624 	mov	a,#0x5D
   0A8C F0                 1625 	movx	@dptr,a
   0A8D 90 40 32           1626 	mov	dptr,#(_message + 0x0032)
   0A90 74 5C              1627 	mov	a,#0x5C
   0A92 F0                 1628 	movx	@dptr,a
   0A93 90 40 33           1629 	mov	dptr,#(_message + 0x0033)
   0A96 74 AD              1630 	mov	a,#0xAD
   0A98 F0                 1631 	movx	@dptr,a
   0A99 90 40 34           1632 	mov	dptr,#(_message + 0x0034)
   0A9C 74 B9              1633 	mov	a,#0xB9
   0A9E F0                 1634 	movx	@dptr,a
   0A9F 90 40 35           1635 	mov	dptr,#(_message + 0x0035)
   0AA2 74 A4              1636 	mov	a,#0xA4
   0AA4 F0                 1637 	movx	@dptr,a
   0AA5 90 40 36           1638 	mov	dptr,#(_message + 0x0036)
   0AA8 74 24              1639 	mov	a,#0x24
   0AAA F0                 1640 	movx	@dptr,a
   0AAB 90 40 37           1641 	mov	dptr,#(_message + 0x0037)
   0AAE 74 6E              1642 	mov	a,#0x6E
   0AB0 F0                 1643 	movx	@dptr,a
   0AB1 90 40 38           1644 	mov	dptr,#(_message + 0x0038)
   0AB4 74 3A              1645 	mov	a,#0x3A
   0AB6 F0                 1646 	movx	@dptr,a
   0AB7 90 40 39           1647 	mov	dptr,#(_message + 0x0039)
   0ABA 74 34              1648 	mov	a,#0x34
   0ABC F0                 1649 	movx	@dptr,a
   0ABD 90 40 3A           1650 	mov	dptr,#(_message + 0x003a)
   0AC0 74 F9              1651 	mov	a,#0xF9
   0AC2 F0                 1652 	movx	@dptr,a
   0AC3 90 40 3B           1653 	mov	dptr,#(_message + 0x003b)
   0AC6 74 B8              1654 	mov	a,#0xB8
   0AC8 F0                 1655 	movx	@dptr,a
   0AC9 90 40 3C           1656 	mov	dptr,#(_message + 0x003c)
   0ACC 74 E7              1657 	mov	a,#0xE7
   0ACE F0                 1658 	movx	@dptr,a
   0ACF 90 40 3D           1659 	mov	dptr,#(_message + 0x003d)
   0AD2 74 10              1660 	mov	a,#0x10
   0AD4 F0                 1661 	movx	@dptr,a
   0AD5 90 40 3E           1662 	mov	dptr,#(_message + 0x003e)
   0AD8 74 97              1663 	mov	a,#0x97
   0ADA F0                 1664 	movx	@dptr,a
   0ADB 90 40 3F           1665 	mov	dptr,#(_message + 0x003f)
   0ADE 74 82              1666 	mov	a,#0x82
   0AE0 F0                 1667 	movx	@dptr,a
   0AE1 90 40 40           1668 	mov	dptr,#(_message + 0x0040)
   0AE4 74 96              1669 	mov	a,#0x96
   0AE6 F0                 1670 	movx	@dptr,a
   0AE7 90 40 41           1671 	mov	dptr,#(_message + 0x0041)
   0AEA 74 A5              1672 	mov	a,#0xA5
   0AEC F0                 1673 	movx	@dptr,a
   0AED 90 40 42           1674 	mov	dptr,#(_message + 0x0042)
   0AF0 74 CE              1675 	mov	a,#0xCE
   0AF2 F0                 1676 	movx	@dptr,a
   0AF3 90 40 43           1677 	mov	dptr,#(_message + 0x0043)
   0AF6 74 2B              1678 	mov	a,#0x2B
   0AF8 F0                 1679 	movx	@dptr,a
   0AF9 90 40 44           1680 	mov	dptr,#(_message + 0x0044)
   0AFC 74 80              1681 	mov	a,#0x80
   0AFE F0                 1682 	movx	@dptr,a
   0AFF 90 40 45           1683 	mov	dptr,#(_message + 0x0045)
   0B02 74 83              1684 	mov	a,#0x83
   0B04 F0                 1685 	movx	@dptr,a
   0B05 90 40 46           1686 	mov	dptr,#(_message + 0x0046)
   0B08 74 3E              1687 	mov	a,#0x3E
   0B0A F0                 1688 	movx	@dptr,a
   0B0B 90 40 47           1689 	mov	dptr,#(_message + 0x0047)
   0B0E 74 75              1690 	mov	a,#0x75
   0B10 F0                 1691 	movx	@dptr,a
   0B11 90 40 48           1692 	mov	dptr,#(_message + 0x0048)
   0B14 74 56              1693 	mov	a,#0x56
   0B16 F0                 1694 	movx	@dptr,a
   0B17 90 40 49           1695 	mov	dptr,#(_message + 0x0049)
   0B1A 74 A4              1696 	mov	a,#0xA4
   0B1C F0                 1697 	movx	@dptr,a
   0B1D 90 40 4A           1698 	mov	dptr,#(_message + 0x004a)
   0B20 74 3E              1699 	mov	a,#0x3E
   0B22 F0                 1700 	movx	@dptr,a
   0B23 90 40 4B           1701 	mov	dptr,#(_message + 0x004b)
   0B26 74 3E              1702 	mov	a,#0x3E
   0B28 F0                 1703 	movx	@dptr,a
   0B29 90 40 4C           1704 	mov	dptr,#(_message + 0x004c)
   0B2C 74 DB              1705 	mov	a,#0xDB
   0B2E F0                 1706 	movx	@dptr,a
   0B2F 90 40 4D           1707 	mov	dptr,#(_message + 0x004d)
   0B32 74 DD              1708 	mov	a,#0xDD
   0B34 F0                 1709 	movx	@dptr,a
   0B35 90 40 4E           1710 	mov	dptr,#(_message + 0x004e)
   0B38 74 B0              1711 	mov	a,#0xB0
   0B3A F0                 1712 	movx	@dptr,a
   0B3B 90 40 4F           1713 	mov	dptr,#(_message + 0x004f)
   0B3E 74 DB              1714 	mov	a,#0xDB
   0B40 F0                 1715 	movx	@dptr,a
   0B41 90 40 50           1716 	mov	dptr,#(_message + 0x0050)
   0B44 74 EF              1717 	mov	a,#0xEF
   0B46 F0                 1718 	movx	@dptr,a
   0B47 90 40 51           1719 	mov	dptr,#(_message + 0x0051)
   0B4A 74 10              1720 	mov	a,#0x10
   0B4C F0                 1721 	movx	@dptr,a
   0B4D 90 40 52           1722 	mov	dptr,#(_message + 0x0052)
   0B50 74 35              1723 	mov	a,#0x35
   0B52 F0                 1724 	movx	@dptr,a
   0B53 90 40 53           1725 	mov	dptr,#(_message + 0x0053)
   0B56 74 6C              1726 	mov	a,#0x6C
   0B58 F0                 1727 	movx	@dptr,a
   0B59 90 40 54           1728 	mov	dptr,#(_message + 0x0054)
   0B5C 74 B8              1729 	mov	a,#0xB8
   0B5E F0                 1730 	movx	@dptr,a
   0B5F 90 40 55           1731 	mov	dptr,#(_message + 0x0055)
   0B62 74 AB              1732 	mov	a,#0xAB
   0B64 F0                 1733 	movx	@dptr,a
   0B65 90 40 56           1734 	mov	dptr,#(_message + 0x0056)
   0B68 74 A4              1735 	mov	a,#0xA4
   0B6A F0                 1736 	movx	@dptr,a
   0B6B 90 40 57           1737 	mov	dptr,#(_message + 0x0057)
   0B6E 74 E9              1738 	mov	a,#0xE9
   0B70 F0                 1739 	movx	@dptr,a
   0B71 90 40 58           1740 	mov	dptr,#(_message + 0x0058)
   0B74 74 1C              1741 	mov	a,#0x1C
   0B76 F0                 1742 	movx	@dptr,a
   0B77 90 40 59           1743 	mov	dptr,#(_message + 0x0059)
   0B7A 74 B0              1744 	mov	a,#0xB0
   0B7C F0                 1745 	movx	@dptr,a
   0B7D 90 40 5A           1746 	mov	dptr,#(_message + 0x005a)
   0B80 74 F5              1747 	mov	a,#0xF5
   0B82 F0                 1748 	movx	@dptr,a
   0B83 90 40 5B           1749 	mov	dptr,#(_message + 0x005b)
   0B86 74 B9              1750 	mov	a,#0xB9
   0B88 F0                 1751 	movx	@dptr,a
   0B89 90 40 5C           1752 	mov	dptr,#(_message + 0x005c)
   0B8C 74 F1              1753 	mov	a,#0xF1
   0B8E F0                 1754 	movx	@dptr,a
   0B8F 90 40 5D           1755 	mov	dptr,#(_message + 0x005d)
   0B92 74 3E              1756 	mov	a,#0x3E
   0B94 F0                 1757 	movx	@dptr,a
   0B95 90 40 5E           1758 	mov	dptr,#(_message + 0x005e)
   0B98 74 2B              1759 	mov	a,#0x2B
   0B9A F0                 1760 	movx	@dptr,a
   0B9B 90 40 5F           1761 	mov	dptr,#(_message + 0x005f)
   0B9E 74 0A              1762 	mov	a,#0x0A
   0BA0 F0                 1763 	movx	@dptr,a
   0BA1 90 40 60           1764 	mov	dptr,#(_message + 0x0060)
   0BA4 74 F3              1765 	mov	a,#0xF3
   0BA6 F0                 1766 	movx	@dptr,a
   0BA7 90 40 61           1767 	mov	dptr,#(_message + 0x0061)
   0BAA 74 DF              1768 	mov	a,#0xDF
   0BAC F0                 1769 	movx	@dptr,a
   0BAD 90 40 62           1770 	mov	dptr,#(_message + 0x0062)
   0BB0 74 02              1771 	mov	a,#0x02
   0BB2 F0                 1772 	movx	@dptr,a
   0BB3 90 40 63           1773 	mov	dptr,#(_message + 0x0063)
   0BB6 74 87              1774 	mov	a,#0x87
   0BB8 F0                 1775 	movx	@dptr,a
   0BB9 90 40 64           1776 	mov	dptr,#(_message + 0x0064)
   0BBC 74 AF              1777 	mov	a,#0xAF
   0BBE F0                 1778 	movx	@dptr,a
   0BBF 90 40 65           1779 	mov	dptr,#(_message + 0x0065)
   0BC2 74 A8              1780 	mov	a,#0xA8
   0BC4 F0                 1781 	movx	@dptr,a
   0BC5 90 40 66           1782 	mov	dptr,#(_message + 0x0066)
   0BC8 74 B3              1783 	mov	a,#0xB3
   0BCA F0                 1784 	movx	@dptr,a
   0BCB 90 40 67           1785 	mov	dptr,#(_message + 0x0067)
   0BCE 74 37              1786 	mov	a,#0x37
   0BD0 F0                 1787 	movx	@dptr,a
   0BD1 90 40 68           1788 	mov	dptr,#(_message + 0x0068)
   0BD4 74 03              1789 	mov	a,#0x03
   0BD6 F0                 1790 	movx	@dptr,a
   0BD7 90 40 69           1791 	mov	dptr,#(_message + 0x0069)
   0BDA 74 7C              1792 	mov	a,#0x7C
   0BDC F0                 1793 	movx	@dptr,a
   0BDD 90 40 6A           1794 	mov	dptr,#(_message + 0x006a)
   0BE0 74 C1              1795 	mov	a,#0xC1
   0BE2 F0                 1796 	movx	@dptr,a
   0BE3 90 40 6B           1797 	mov	dptr,#(_message + 0x006b)
   0BE6 74 C5              1798 	mov	a,#0xC5
   0BE8 F0                 1799 	movx	@dptr,a
   0BE9 90 40 6C           1800 	mov	dptr,#(_message + 0x006c)
   0BEC 74 71              1801 	mov	a,#0x71
   0BEE F0                 1802 	movx	@dptr,a
   0BEF 90 40 6D           1803 	mov	dptr,#(_message + 0x006d)
   0BF2 74 76              1804 	mov	a,#0x76
   0BF4 F0                 1805 	movx	@dptr,a
   0BF5 90 40 6E           1806 	mov	dptr,#(_message + 0x006e)
   0BF8 74 72              1807 	mov	a,#0x72
   0BFA F0                 1808 	movx	@dptr,a
   0BFB 90 40 6F           1809 	mov	dptr,#(_message + 0x006f)
   0BFE 74 1D              1810 	mov	a,#0x1D
   0C00 F0                 1811 	movx	@dptr,a
   0C01 90 40 70           1812 	mov	dptr,#(_message + 0x0070)
   0C04 74 82              1813 	mov	a,#0x82
   0C06 F0                 1814 	movx	@dptr,a
   0C07 90 40 71           1815 	mov	dptr,#(_message + 0x0071)
   0C0A 74 98              1816 	mov	a,#0x98
   0C0C F0                 1817 	movx	@dptr,a
   0C0D 90 40 72           1818 	mov	dptr,#(_message + 0x0072)
   0C10 74 A9              1819 	mov	a,#0xA9
   0C12 F0                 1820 	movx	@dptr,a
   0C13 90 40 73           1821 	mov	dptr,#(_message + 0x0073)
   0C16 74 3E              1822 	mov	a,#0x3E
   0C18 F0                 1823 	movx	@dptr,a
   0C19 90 40 74           1824 	mov	dptr,#(_message + 0x0074)
   0C1C 74 C3              1825 	mov	a,#0xC3
   0C1E F0                 1826 	movx	@dptr,a
   0C1F 90 40 75           1827 	mov	dptr,#(_message + 0x0075)
   0C22 74 E2              1828 	mov	a,#0xE2
   0C24 F0                 1829 	movx	@dptr,a
   0C25 90 40 76           1830 	mov	dptr,#(_message + 0x0076)
   0C28 74 AD              1831 	mov	a,#0xAD
   0C2A F0                 1832 	movx	@dptr,a
   0C2B 90 40 77           1833 	mov	dptr,#(_message + 0x0077)
   0C2E 74 1A              1834 	mov	a,#0x1A
   0C30 F0                 1835 	movx	@dptr,a
   0C31 90 40 78           1836 	mov	dptr,#(_message + 0x0078)
   0C34 74 4E              1837 	mov	a,#0x4E
   0C36 F0                 1838 	movx	@dptr,a
   0C37 90 40 79           1839 	mov	dptr,#(_message + 0x0079)
   0C3A 74 43              1840 	mov	a,#0x43
   0C3C F0                 1841 	movx	@dptr,a
   0C3D 90 40 7A           1842 	mov	dptr,#(_message + 0x007a)
   0C40 74 79              1843 	mov	a,#0x79
   0C42 F0                 1844 	movx	@dptr,a
   0C43 90 40 7B           1845 	mov	dptr,#(_message + 0x007b)
   0C46 74 7A              1846 	mov	a,#0x7A
   0C48 F0                 1847 	movx	@dptr,a
   0C49 90 40 7C           1848 	mov	dptr,#(_message + 0x007c)
   0C4C 74 C3              1849 	mov	a,#0xC3
   0C4E F0                 1850 	movx	@dptr,a
   0C4F 90 40 7D           1851 	mov	dptr,#(_message + 0x007d)
   0C52 74 BE              1852 	mov	a,#0xBE
   0C54 F0                 1853 	movx	@dptr,a
   0C55 90 40 7E           1854 	mov	dptr,#(_message + 0x007e)
   0C58 74 8A              1855 	mov	a,#0x8A
   0C5A F0                 1856 	movx	@dptr,a
   0C5B 90 40 7F           1857 	mov	dptr,#(_message + 0x007f)
   0C5E 74 6E              1858 	mov	a,#0x6E
   0C60 F0                 1859 	movx	@dptr,a
                           1860 ;	decryption.c:10: volatile __xdata __at (0x4181) unsigned char dec_exp[SIZE] = {0xA1,0x80,0x48,0x28,0xC3,0xFE,0x04,0xB3,0xF2,0xEF,0xAF,0x3E,0x55,0x46,0x4E,0xC8,0x47,0x7A,0x1C,0x83,0x74,0xD7,0x11,0xD1,0xFB,0x16,0x44,0x72,0x8C,0x4B,0xD5,0xFD,0xB9,0xFA,0x04,0xE1,0x3E,0x3A,0x16,0x04,0x55,0x41,0xD0,0x8A,0x92,0x38,0xF4,0xD4,0xAE,0x7A,0x60,0xE2,0x69,0xAA,0xA6,0x63,0xA1,0xEB,0x05,0x71,0x99,0x71,0xE3,0x67,0x2A,0x57,0xF7,0x6B,0x82,0xB3,0xF0,0x82,0x58,0x54,0xAF,0xC3,0xD1,0xEF,0x68,0x7E,0x88,0xBD,0x39,0x2B,0x2A,0x7C,0x14,0xF8,0xC7,0xD0,0xF9,0x64,0x9A,0xBA,0x6F,0x45,0x28,0x5D,0xD7,0xE2,0xC4,0x8E,0x9F,0x6F,0xA8,0x88,0xAD,0xFD,0x28,0x92,0x4F,0x63,0x41,0x70,0x22,0xAD,0xAB,0x4E,0x1D,0x63,0x89,0xCC,0x09,0x42,0xFE,0xBC,0xCF,0x3A};
   0C61 90 41 81           1861 	mov	dptr,#_dec_exp
   0C64 74 A1              1862 	mov	a,#0xA1
   0C66 F0                 1863 	movx	@dptr,a
   0C67 90 41 82           1864 	mov	dptr,#(_dec_exp + 0x0001)
   0C6A 74 80              1865 	mov	a,#0x80
   0C6C F0                 1866 	movx	@dptr,a
   0C6D 90 41 83           1867 	mov	dptr,#(_dec_exp + 0x0002)
   0C70 74 48              1868 	mov	a,#0x48
   0C72 F0                 1869 	movx	@dptr,a
   0C73 90 41 84           1870 	mov	dptr,#(_dec_exp + 0x0003)
   0C76 74 28              1871 	mov	a,#0x28
   0C78 F0                 1872 	movx	@dptr,a
   0C79 90 41 85           1873 	mov	dptr,#(_dec_exp + 0x0004)
   0C7C 74 C3              1874 	mov	a,#0xC3
   0C7E F0                 1875 	movx	@dptr,a
   0C7F 90 41 86           1876 	mov	dptr,#(_dec_exp + 0x0005)
   0C82 74 FE              1877 	mov	a,#0xFE
   0C84 F0                 1878 	movx	@dptr,a
   0C85 90 41 87           1879 	mov	dptr,#(_dec_exp + 0x0006)
   0C88 74 04              1880 	mov	a,#0x04
   0C8A F0                 1881 	movx	@dptr,a
   0C8B 90 41 88           1882 	mov	dptr,#(_dec_exp + 0x0007)
   0C8E 74 B3              1883 	mov	a,#0xB3
   0C90 F0                 1884 	movx	@dptr,a
   0C91 90 41 89           1885 	mov	dptr,#(_dec_exp + 0x0008)
   0C94 74 F2              1886 	mov	a,#0xF2
   0C96 F0                 1887 	movx	@dptr,a
   0C97 90 41 8A           1888 	mov	dptr,#(_dec_exp + 0x0009)
   0C9A 74 EF              1889 	mov	a,#0xEF
   0C9C F0                 1890 	movx	@dptr,a
   0C9D 90 41 8B           1891 	mov	dptr,#(_dec_exp + 0x000a)
   0CA0 74 AF              1892 	mov	a,#0xAF
   0CA2 F0                 1893 	movx	@dptr,a
   0CA3 90 41 8C           1894 	mov	dptr,#(_dec_exp + 0x000b)
   0CA6 74 3E              1895 	mov	a,#0x3E
   0CA8 F0                 1896 	movx	@dptr,a
   0CA9 90 41 8D           1897 	mov	dptr,#(_dec_exp + 0x000c)
   0CAC 74 55              1898 	mov	a,#0x55
   0CAE F0                 1899 	movx	@dptr,a
   0CAF 90 41 8E           1900 	mov	dptr,#(_dec_exp + 0x000d)
   0CB2 74 46              1901 	mov	a,#0x46
   0CB4 F0                 1902 	movx	@dptr,a
   0CB5 90 41 8F           1903 	mov	dptr,#(_dec_exp + 0x000e)
   0CB8 74 4E              1904 	mov	a,#0x4E
   0CBA F0                 1905 	movx	@dptr,a
   0CBB 90 41 90           1906 	mov	dptr,#(_dec_exp + 0x000f)
   0CBE 74 C8              1907 	mov	a,#0xC8
   0CC0 F0                 1908 	movx	@dptr,a
   0CC1 90 41 91           1909 	mov	dptr,#(_dec_exp + 0x0010)
   0CC4 74 47              1910 	mov	a,#0x47
   0CC6 F0                 1911 	movx	@dptr,a
   0CC7 90 41 92           1912 	mov	dptr,#(_dec_exp + 0x0011)
   0CCA 74 7A              1913 	mov	a,#0x7A
   0CCC F0                 1914 	movx	@dptr,a
   0CCD 90 41 93           1915 	mov	dptr,#(_dec_exp + 0x0012)
   0CD0 74 1C              1916 	mov	a,#0x1C
   0CD2 F0                 1917 	movx	@dptr,a
   0CD3 90 41 94           1918 	mov	dptr,#(_dec_exp + 0x0013)
   0CD6 74 83              1919 	mov	a,#0x83
   0CD8 F0                 1920 	movx	@dptr,a
   0CD9 90 41 95           1921 	mov	dptr,#(_dec_exp + 0x0014)
   0CDC 74 74              1922 	mov	a,#0x74
   0CDE F0                 1923 	movx	@dptr,a
   0CDF 90 41 96           1924 	mov	dptr,#(_dec_exp + 0x0015)
   0CE2 74 D7              1925 	mov	a,#0xD7
   0CE4 F0                 1926 	movx	@dptr,a
   0CE5 90 41 97           1927 	mov	dptr,#(_dec_exp + 0x0016)
   0CE8 74 11              1928 	mov	a,#0x11
   0CEA F0                 1929 	movx	@dptr,a
   0CEB 90 41 98           1930 	mov	dptr,#(_dec_exp + 0x0017)
   0CEE 74 D1              1931 	mov	a,#0xD1
   0CF0 F0                 1932 	movx	@dptr,a
   0CF1 90 41 99           1933 	mov	dptr,#(_dec_exp + 0x0018)
   0CF4 74 FB              1934 	mov	a,#0xFB
   0CF6 F0                 1935 	movx	@dptr,a
   0CF7 90 41 9A           1936 	mov	dptr,#(_dec_exp + 0x0019)
   0CFA 74 16              1937 	mov	a,#0x16
   0CFC F0                 1938 	movx	@dptr,a
   0CFD 90 41 9B           1939 	mov	dptr,#(_dec_exp + 0x001a)
   0D00 74 44              1940 	mov	a,#0x44
   0D02 F0                 1941 	movx	@dptr,a
   0D03 90 41 9C           1942 	mov	dptr,#(_dec_exp + 0x001b)
   0D06 74 72              1943 	mov	a,#0x72
   0D08 F0                 1944 	movx	@dptr,a
   0D09 90 41 9D           1945 	mov	dptr,#(_dec_exp + 0x001c)
   0D0C 74 8C              1946 	mov	a,#0x8C
   0D0E F0                 1947 	movx	@dptr,a
   0D0F 90 41 9E           1948 	mov	dptr,#(_dec_exp + 0x001d)
   0D12 74 4B              1949 	mov	a,#0x4B
   0D14 F0                 1950 	movx	@dptr,a
   0D15 90 41 9F           1951 	mov	dptr,#(_dec_exp + 0x001e)
   0D18 74 D5              1952 	mov	a,#0xD5
   0D1A F0                 1953 	movx	@dptr,a
   0D1B 90 41 A0           1954 	mov	dptr,#(_dec_exp + 0x001f)
   0D1E 74 FD              1955 	mov	a,#0xFD
   0D20 F0                 1956 	movx	@dptr,a
   0D21 90 41 A1           1957 	mov	dptr,#(_dec_exp + 0x0020)
   0D24 74 B9              1958 	mov	a,#0xB9
   0D26 F0                 1959 	movx	@dptr,a
   0D27 90 41 A2           1960 	mov	dptr,#(_dec_exp + 0x0021)
   0D2A 74 FA              1961 	mov	a,#0xFA
   0D2C F0                 1962 	movx	@dptr,a
   0D2D 90 41 A3           1963 	mov	dptr,#(_dec_exp + 0x0022)
   0D30 74 04              1964 	mov	a,#0x04
   0D32 F0                 1965 	movx	@dptr,a
   0D33 90 41 A4           1966 	mov	dptr,#(_dec_exp + 0x0023)
   0D36 74 E1              1967 	mov	a,#0xE1
   0D38 F0                 1968 	movx	@dptr,a
   0D39 90 41 A5           1969 	mov	dptr,#(_dec_exp + 0x0024)
   0D3C 74 3E              1970 	mov	a,#0x3E
   0D3E F0                 1971 	movx	@dptr,a
   0D3F 90 41 A6           1972 	mov	dptr,#(_dec_exp + 0x0025)
   0D42 74 3A              1973 	mov	a,#0x3A
   0D44 F0                 1974 	movx	@dptr,a
   0D45 90 41 A7           1975 	mov	dptr,#(_dec_exp + 0x0026)
   0D48 74 16              1976 	mov	a,#0x16
   0D4A F0                 1977 	movx	@dptr,a
   0D4B 90 41 A8           1978 	mov	dptr,#(_dec_exp + 0x0027)
   0D4E 74 04              1979 	mov	a,#0x04
   0D50 F0                 1980 	movx	@dptr,a
   0D51 90 41 A9           1981 	mov	dptr,#(_dec_exp + 0x0028)
   0D54 74 55              1982 	mov	a,#0x55
   0D56 F0                 1983 	movx	@dptr,a
   0D57 90 41 AA           1984 	mov	dptr,#(_dec_exp + 0x0029)
   0D5A 74 41              1985 	mov	a,#0x41
   0D5C F0                 1986 	movx	@dptr,a
   0D5D 90 41 AB           1987 	mov	dptr,#(_dec_exp + 0x002a)
   0D60 74 D0              1988 	mov	a,#0xD0
   0D62 F0                 1989 	movx	@dptr,a
   0D63 90 41 AC           1990 	mov	dptr,#(_dec_exp + 0x002b)
   0D66 74 8A              1991 	mov	a,#0x8A
   0D68 F0                 1992 	movx	@dptr,a
   0D69 90 41 AD           1993 	mov	dptr,#(_dec_exp + 0x002c)
   0D6C 74 92              1994 	mov	a,#0x92
   0D6E F0                 1995 	movx	@dptr,a
   0D6F 90 41 AE           1996 	mov	dptr,#(_dec_exp + 0x002d)
   0D72 74 38              1997 	mov	a,#0x38
   0D74 F0                 1998 	movx	@dptr,a
   0D75 90 41 AF           1999 	mov	dptr,#(_dec_exp + 0x002e)
   0D78 74 F4              2000 	mov	a,#0xF4
   0D7A F0                 2001 	movx	@dptr,a
   0D7B 90 41 B0           2002 	mov	dptr,#(_dec_exp + 0x002f)
   0D7E 74 D4              2003 	mov	a,#0xD4
   0D80 F0                 2004 	movx	@dptr,a
   0D81 90 41 B1           2005 	mov	dptr,#(_dec_exp + 0x0030)
   0D84 74 AE              2006 	mov	a,#0xAE
   0D86 F0                 2007 	movx	@dptr,a
   0D87 90 41 B2           2008 	mov	dptr,#(_dec_exp + 0x0031)
   0D8A 74 7A              2009 	mov	a,#0x7A
   0D8C F0                 2010 	movx	@dptr,a
   0D8D 90 41 B3           2011 	mov	dptr,#(_dec_exp + 0x0032)
   0D90 74 60              2012 	mov	a,#0x60
   0D92 F0                 2013 	movx	@dptr,a
   0D93 90 41 B4           2014 	mov	dptr,#(_dec_exp + 0x0033)
   0D96 74 E2              2015 	mov	a,#0xE2
   0D98 F0                 2016 	movx	@dptr,a
   0D99 90 41 B5           2017 	mov	dptr,#(_dec_exp + 0x0034)
   0D9C 74 69              2018 	mov	a,#0x69
   0D9E F0                 2019 	movx	@dptr,a
   0D9F 90 41 B6           2020 	mov	dptr,#(_dec_exp + 0x0035)
   0DA2 74 AA              2021 	mov	a,#0xAA
   0DA4 F0                 2022 	movx	@dptr,a
   0DA5 90 41 B7           2023 	mov	dptr,#(_dec_exp + 0x0036)
   0DA8 74 A6              2024 	mov	a,#0xA6
   0DAA F0                 2025 	movx	@dptr,a
   0DAB 90 41 B8           2026 	mov	dptr,#(_dec_exp + 0x0037)
   0DAE 74 63              2027 	mov	a,#0x63
   0DB0 F0                 2028 	movx	@dptr,a
   0DB1 90 41 B9           2029 	mov	dptr,#(_dec_exp + 0x0038)
   0DB4 74 A1              2030 	mov	a,#0xA1
   0DB6 F0                 2031 	movx	@dptr,a
   0DB7 90 41 BA           2032 	mov	dptr,#(_dec_exp + 0x0039)
   0DBA 74 EB              2033 	mov	a,#0xEB
   0DBC F0                 2034 	movx	@dptr,a
   0DBD 90 41 BB           2035 	mov	dptr,#(_dec_exp + 0x003a)
   0DC0 74 05              2036 	mov	a,#0x05
   0DC2 F0                 2037 	movx	@dptr,a
   0DC3 90 41 BC           2038 	mov	dptr,#(_dec_exp + 0x003b)
   0DC6 74 71              2039 	mov	a,#0x71
   0DC8 F0                 2040 	movx	@dptr,a
   0DC9 90 41 BD           2041 	mov	dptr,#(_dec_exp + 0x003c)
   0DCC 74 99              2042 	mov	a,#0x99
   0DCE F0                 2043 	movx	@dptr,a
   0DCF 90 41 BE           2044 	mov	dptr,#(_dec_exp + 0x003d)
   0DD2 74 71              2045 	mov	a,#0x71
   0DD4 F0                 2046 	movx	@dptr,a
   0DD5 90 41 BF           2047 	mov	dptr,#(_dec_exp + 0x003e)
   0DD8 74 E3              2048 	mov	a,#0xE3
   0DDA F0                 2049 	movx	@dptr,a
   0DDB 90 41 C0           2050 	mov	dptr,#(_dec_exp + 0x003f)
   0DDE 74 67              2051 	mov	a,#0x67
   0DE0 F0                 2052 	movx	@dptr,a
   0DE1 90 41 C1           2053 	mov	dptr,#(_dec_exp + 0x0040)
   0DE4 74 2A              2054 	mov	a,#0x2A
   0DE6 F0                 2055 	movx	@dptr,a
   0DE7 90 41 C2           2056 	mov	dptr,#(_dec_exp + 0x0041)
   0DEA 74 57              2057 	mov	a,#0x57
   0DEC F0                 2058 	movx	@dptr,a
   0DED 90 41 C3           2059 	mov	dptr,#(_dec_exp + 0x0042)
   0DF0 74 F7              2060 	mov	a,#0xF7
   0DF2 F0                 2061 	movx	@dptr,a
   0DF3 90 41 C4           2062 	mov	dptr,#(_dec_exp + 0x0043)
   0DF6 74 6B              2063 	mov	a,#0x6B
   0DF8 F0                 2064 	movx	@dptr,a
   0DF9 90 41 C5           2065 	mov	dptr,#(_dec_exp + 0x0044)
   0DFC 74 82              2066 	mov	a,#0x82
   0DFE F0                 2067 	movx	@dptr,a
   0DFF 90 41 C6           2068 	mov	dptr,#(_dec_exp + 0x0045)
   0E02 74 B3              2069 	mov	a,#0xB3
   0E04 F0                 2070 	movx	@dptr,a
   0E05 90 41 C7           2071 	mov	dptr,#(_dec_exp + 0x0046)
   0E08 74 F0              2072 	mov	a,#0xF0
   0E0A F0                 2073 	movx	@dptr,a
   0E0B 90 41 C8           2074 	mov	dptr,#(_dec_exp + 0x0047)
   0E0E 74 82              2075 	mov	a,#0x82
   0E10 F0                 2076 	movx	@dptr,a
   0E11 90 41 C9           2077 	mov	dptr,#(_dec_exp + 0x0048)
   0E14 74 58              2078 	mov	a,#0x58
   0E16 F0                 2079 	movx	@dptr,a
   0E17 90 41 CA           2080 	mov	dptr,#(_dec_exp + 0x0049)
   0E1A 74 54              2081 	mov	a,#0x54
   0E1C F0                 2082 	movx	@dptr,a
   0E1D 90 41 CB           2083 	mov	dptr,#(_dec_exp + 0x004a)
   0E20 74 AF              2084 	mov	a,#0xAF
   0E22 F0                 2085 	movx	@dptr,a
   0E23 90 41 CC           2086 	mov	dptr,#(_dec_exp + 0x004b)
   0E26 74 C3              2087 	mov	a,#0xC3
   0E28 F0                 2088 	movx	@dptr,a
   0E29 90 41 CD           2089 	mov	dptr,#(_dec_exp + 0x004c)
   0E2C 74 D1              2090 	mov	a,#0xD1
   0E2E F0                 2091 	movx	@dptr,a
   0E2F 90 41 CE           2092 	mov	dptr,#(_dec_exp + 0x004d)
   0E32 74 EF              2093 	mov	a,#0xEF
   0E34 F0                 2094 	movx	@dptr,a
   0E35 90 41 CF           2095 	mov	dptr,#(_dec_exp + 0x004e)
   0E38 74 68              2096 	mov	a,#0x68
   0E3A F0                 2097 	movx	@dptr,a
   0E3B 90 41 D0           2098 	mov	dptr,#(_dec_exp + 0x004f)
   0E3E 74 7E              2099 	mov	a,#0x7E
   0E40 F0                 2100 	movx	@dptr,a
   0E41 90 41 D1           2101 	mov	dptr,#(_dec_exp + 0x0050)
   0E44 74 88              2102 	mov	a,#0x88
   0E46 F0                 2103 	movx	@dptr,a
   0E47 90 41 D2           2104 	mov	dptr,#(_dec_exp + 0x0051)
   0E4A 74 BD              2105 	mov	a,#0xBD
   0E4C F0                 2106 	movx	@dptr,a
   0E4D 90 41 D3           2107 	mov	dptr,#(_dec_exp + 0x0052)
   0E50 74 39              2108 	mov	a,#0x39
   0E52 F0                 2109 	movx	@dptr,a
   0E53 90 41 D4           2110 	mov	dptr,#(_dec_exp + 0x0053)
   0E56 74 2B              2111 	mov	a,#0x2B
   0E58 F0                 2112 	movx	@dptr,a
   0E59 90 41 D5           2113 	mov	dptr,#(_dec_exp + 0x0054)
   0E5C 74 2A              2114 	mov	a,#0x2A
   0E5E F0                 2115 	movx	@dptr,a
   0E5F 90 41 D6           2116 	mov	dptr,#(_dec_exp + 0x0055)
   0E62 74 7C              2117 	mov	a,#0x7C
   0E64 F0                 2118 	movx	@dptr,a
   0E65 90 41 D7           2119 	mov	dptr,#(_dec_exp + 0x0056)
   0E68 74 14              2120 	mov	a,#0x14
   0E6A F0                 2121 	movx	@dptr,a
   0E6B 90 41 D8           2122 	mov	dptr,#(_dec_exp + 0x0057)
   0E6E 74 F8              2123 	mov	a,#0xF8
   0E70 F0                 2124 	movx	@dptr,a
   0E71 90 41 D9           2125 	mov	dptr,#(_dec_exp + 0x0058)
   0E74 74 C7              2126 	mov	a,#0xC7
   0E76 F0                 2127 	movx	@dptr,a
   0E77 90 41 DA           2128 	mov	dptr,#(_dec_exp + 0x0059)
   0E7A 74 D0              2129 	mov	a,#0xD0
   0E7C F0                 2130 	movx	@dptr,a
   0E7D 90 41 DB           2131 	mov	dptr,#(_dec_exp + 0x005a)
   0E80 74 F9              2132 	mov	a,#0xF9
   0E82 F0                 2133 	movx	@dptr,a
   0E83 90 41 DC           2134 	mov	dptr,#(_dec_exp + 0x005b)
   0E86 74 64              2135 	mov	a,#0x64
   0E88 F0                 2136 	movx	@dptr,a
   0E89 90 41 DD           2137 	mov	dptr,#(_dec_exp + 0x005c)
   0E8C 74 9A              2138 	mov	a,#0x9A
   0E8E F0                 2139 	movx	@dptr,a
   0E8F 90 41 DE           2140 	mov	dptr,#(_dec_exp + 0x005d)
   0E92 74 BA              2141 	mov	a,#0xBA
   0E94 F0                 2142 	movx	@dptr,a
   0E95 90 41 DF           2143 	mov	dptr,#(_dec_exp + 0x005e)
   0E98 74 6F              2144 	mov	a,#0x6F
   0E9A F0                 2145 	movx	@dptr,a
   0E9B 90 41 E0           2146 	mov	dptr,#(_dec_exp + 0x005f)
   0E9E 74 45              2147 	mov	a,#0x45
   0EA0 F0                 2148 	movx	@dptr,a
   0EA1 90 41 E1           2149 	mov	dptr,#(_dec_exp + 0x0060)
   0EA4 74 28              2150 	mov	a,#0x28
   0EA6 F0                 2151 	movx	@dptr,a
   0EA7 90 41 E2           2152 	mov	dptr,#(_dec_exp + 0x0061)
   0EAA 74 5D              2153 	mov	a,#0x5D
   0EAC F0                 2154 	movx	@dptr,a
   0EAD 90 41 E3           2155 	mov	dptr,#(_dec_exp + 0x0062)
   0EB0 74 D7              2156 	mov	a,#0xD7
   0EB2 F0                 2157 	movx	@dptr,a
   0EB3 90 41 E4           2158 	mov	dptr,#(_dec_exp + 0x0063)
   0EB6 74 E2              2159 	mov	a,#0xE2
   0EB8 F0                 2160 	movx	@dptr,a
   0EB9 90 41 E5           2161 	mov	dptr,#(_dec_exp + 0x0064)
   0EBC 74 C4              2162 	mov	a,#0xC4
   0EBE F0                 2163 	movx	@dptr,a
   0EBF 90 41 E6           2164 	mov	dptr,#(_dec_exp + 0x0065)
   0EC2 74 8E              2165 	mov	a,#0x8E
   0EC4 F0                 2166 	movx	@dptr,a
   0EC5 90 41 E7           2167 	mov	dptr,#(_dec_exp + 0x0066)
   0EC8 74 9F              2168 	mov	a,#0x9F
   0ECA F0                 2169 	movx	@dptr,a
   0ECB 90 41 E8           2170 	mov	dptr,#(_dec_exp + 0x0067)
   0ECE 74 6F              2171 	mov	a,#0x6F
   0ED0 F0                 2172 	movx	@dptr,a
   0ED1 90 41 E9           2173 	mov	dptr,#(_dec_exp + 0x0068)
   0ED4 74 A8              2174 	mov	a,#0xA8
   0ED6 F0                 2175 	movx	@dptr,a
   0ED7 90 41 EA           2176 	mov	dptr,#(_dec_exp + 0x0069)
   0EDA 74 88              2177 	mov	a,#0x88
   0EDC F0                 2178 	movx	@dptr,a
   0EDD 90 41 EB           2179 	mov	dptr,#(_dec_exp + 0x006a)
   0EE0 74 AD              2180 	mov	a,#0xAD
   0EE2 F0                 2181 	movx	@dptr,a
   0EE3 90 41 EC           2182 	mov	dptr,#(_dec_exp + 0x006b)
   0EE6 74 FD              2183 	mov	a,#0xFD
   0EE8 F0                 2184 	movx	@dptr,a
   0EE9 90 41 ED           2185 	mov	dptr,#(_dec_exp + 0x006c)
   0EEC 74 28              2186 	mov	a,#0x28
   0EEE F0                 2187 	movx	@dptr,a
   0EEF 90 41 EE           2188 	mov	dptr,#(_dec_exp + 0x006d)
   0EF2 74 92              2189 	mov	a,#0x92
   0EF4 F0                 2190 	movx	@dptr,a
   0EF5 90 41 EF           2191 	mov	dptr,#(_dec_exp + 0x006e)
   0EF8 74 4F              2192 	mov	a,#0x4F
   0EFA F0                 2193 	movx	@dptr,a
   0EFB 90 41 F0           2194 	mov	dptr,#(_dec_exp + 0x006f)
   0EFE 74 63              2195 	mov	a,#0x63
   0F00 F0                 2196 	movx	@dptr,a
   0F01 90 41 F1           2197 	mov	dptr,#(_dec_exp + 0x0070)
   0F04 74 41              2198 	mov	a,#0x41
   0F06 F0                 2199 	movx	@dptr,a
   0F07 90 41 F2           2200 	mov	dptr,#(_dec_exp + 0x0071)
   0F0A 74 70              2201 	mov	a,#0x70
   0F0C F0                 2202 	movx	@dptr,a
   0F0D 90 41 F3           2203 	mov	dptr,#(_dec_exp + 0x0072)
   0F10 74 22              2204 	mov	a,#0x22
   0F12 F0                 2205 	movx	@dptr,a
   0F13 90 41 F4           2206 	mov	dptr,#(_dec_exp + 0x0073)
   0F16 74 AD              2207 	mov	a,#0xAD
   0F18 F0                 2208 	movx	@dptr,a
   0F19 90 41 F5           2209 	mov	dptr,#(_dec_exp + 0x0074)
   0F1C 74 AB              2210 	mov	a,#0xAB
   0F1E F0                 2211 	movx	@dptr,a
   0F1F 90 41 F6           2212 	mov	dptr,#(_dec_exp + 0x0075)
   0F22 74 4E              2213 	mov	a,#0x4E
   0F24 F0                 2214 	movx	@dptr,a
   0F25 90 41 F7           2215 	mov	dptr,#(_dec_exp + 0x0076)
   0F28 74 1D              2216 	mov	a,#0x1D
   0F2A F0                 2217 	movx	@dptr,a
   0F2B 90 41 F8           2218 	mov	dptr,#(_dec_exp + 0x0077)
   0F2E 74 63              2219 	mov	a,#0x63
   0F30 F0                 2220 	movx	@dptr,a
   0F31 90 41 F9           2221 	mov	dptr,#(_dec_exp + 0x0078)
   0F34 74 89              2222 	mov	a,#0x89
   0F36 F0                 2223 	movx	@dptr,a
   0F37 90 41 FA           2224 	mov	dptr,#(_dec_exp + 0x0079)
   0F3A 74 CC              2225 	mov	a,#0xCC
   0F3C F0                 2226 	movx	@dptr,a
   0F3D 90 41 FB           2227 	mov	dptr,#(_dec_exp + 0x007a)
   0F40 74 09              2228 	mov	a,#0x09
   0F42 F0                 2229 	movx	@dptr,a
   0F43 90 41 FC           2230 	mov	dptr,#(_dec_exp + 0x007b)
   0F46 74 42              2231 	mov	a,#0x42
   0F48 F0                 2232 	movx	@dptr,a
   0F49 90 41 FD           2233 	mov	dptr,#(_dec_exp + 0x007c)
   0F4C 74 FE              2234 	mov	a,#0xFE
   0F4E F0                 2235 	movx	@dptr,a
   0F4F 90 41 FE           2236 	mov	dptr,#(_dec_exp + 0x007d)
   0F52 74 BC              2237 	mov	a,#0xBC
   0F54 F0                 2238 	movx	@dptr,a
   0F55 90 41 FF           2239 	mov	dptr,#(_dec_exp + 0x007e)
   0F58 74 CF              2240 	mov	a,#0xCF
   0F5A F0                 2241 	movx	@dptr,a
   0F5B 90 42 00           2242 	mov	dptr,#(_dec_exp + 0x007f)
   0F5E 74 3A              2243 	mov	a,#0x3A
   0F60 F0                 2244 	movx	@dptr,a
                           2245 	.area GSFINAL (CODE)
   0F61 02 00 03           2246 	ljmp	__sdcc_program_startup
                           2247 ;--------------------------------------------------------
                           2248 ; Home
                           2249 ;--------------------------------------------------------
                           2250 	.area HOME    (CODE)
                           2251 	.area HOME    (CODE)
   0003                    2252 __sdcc_program_startup:
   0003 12 0F 8E           2253 	lcall	_main
                           2254 ;	return from main will lock up
   0006 80 FE              2255 	sjmp .
                           2256 ;--------------------------------------------------------
                           2257 ; code
                           2258 ;--------------------------------------------------------
                           2259 	.area CSEG    (CODE)
                           2260 ;------------------------------------------------------------
                           2261 ;Allocation info for local variables in function 'write_data'
                           2262 ;------------------------------------------------------------
                           2263 ;------------------------------------------------------------
                           2264 ;	decryption.c:16: void write_data() {
                           2265 ;	-----------------------------------------
                           2266 ;	 function write_data
                           2267 ;	-----------------------------------------
   0F64                    2268 _write_data:
                    0002   2269 	ar2 = 0x02
                    0003   2270 	ar3 = 0x03
                    0004   2271 	ar4 = 0x04
                    0005   2272 	ar5 = 0x05
                    0006   2273 	ar6 = 0x06
                    0007   2274 	ar7 = 0x07
                    0000   2275 	ar0 = 0x00
                    0001   2276 	ar1 = 0x01
                           2277 ;	decryption.c:17: P1 = 0;
   0F64 75 90 00           2278 	mov	_P1,#0x00
                           2279 ;	decryption.c:19: P0 = ins_write_data;
   0F67 75 80 01           2280 	mov	_P0,#0x01
                           2281 ;	decryption.c:20: P0 = ins_idle;
   0F6A 75 80 00           2282 	mov	_P0,#0x00
                           2283 ;	decryption.c:22: while (P1 == 0) {}
   0F6D                    2284 00101$:
   0F6D E5 90              2285 	mov	a,_P1
   0F6F 60 FC              2286 	jz	00101$
                           2287 ;	decryption.c:23: P0 = ins_ack;
   0F71 75 80 04           2288 	mov	_P0,#0x04
   0F74 22                 2289 	ret
                           2290 ;------------------------------------------------------------
                           2291 ;Allocation info for local variables in function 'read_r'
                           2292 ;------------------------------------------------------------
                           2293 ;------------------------------------------------------------
                           2294 ;	decryption.c:26: void read_r() {
                           2295 ;	-----------------------------------------
                           2296 ;	 function read_r
                           2297 ;	-----------------------------------------
   0F75                    2298 _read_r:
                           2299 ;	decryption.c:27: P0 = ins_read_r;
   0F75 75 80 03           2300 	mov	_P0,#0x03
                           2301 ;	decryption.c:28: while (P1 == 0) {}
   0F78                    2302 00101$:
   0F78 E5 90              2303 	mov	a,_P1
   0F7A 60 FC              2304 	jz	00101$
                           2305 ;	decryption.c:29: P0 = ins_ack;
   0F7C 75 80 04           2306 	mov	_P0,#0x04
                           2307 ;	decryption.c:31: P0 = ins_idle;
   0F7F 75 80 00           2308 	mov	_P0,#0x00
   0F82 22                 2309 	ret
                           2310 ;------------------------------------------------------------
                           2311 ;Allocation info for local variables in function 'montgomery_exp'
                           2312 ;------------------------------------------------------------
                           2313 ;------------------------------------------------------------
                           2314 ;	decryption.c:34: void montgomery_exp() {
                           2315 ;	-----------------------------------------
                           2316 ;	 function montgomery_exp
                           2317 ;	-----------------------------------------
   0F83                    2318 _montgomery_exp:
                           2319 ;	decryption.c:35: P0 = ins_montgomery_exp;
   0F83 75 80 02           2320 	mov	_P0,#0x02
                           2321 ;	decryption.c:36: P0 = ins_idle;
   0F86 75 80 00           2322 	mov	_P0,#0x00
   0F89 22                 2323 	ret
                           2324 ;------------------------------------------------------------
                           2325 ;Allocation info for local variables in function 'terminate'
                           2326 ;------------------------------------------------------------
                           2327 ;------------------------------------------------------------
                           2328 ;	decryption.c:39: void terminate() {
                           2329 ;	-----------------------------------------
                           2330 ;	 function terminate
                           2331 ;	-----------------------------------------
   0F8A                    2332 _terminate:
                           2333 ;	decryption.c:40: P3 = 0x55;
   0F8A 75 B0 55           2334 	mov	_P3,#0x55
   0F8D 22                 2335 	ret
                           2336 ;------------------------------------------------------------
                           2337 ;Allocation info for local variables in function 'main'
                           2338 ;------------------------------------------------------------
                           2339 ;------------------------------------------------------------
                           2340 ;	decryption.c:43: int main() {
                           2341 ;	-----------------------------------------
                           2342 ;	 function main
                           2343 ;	-----------------------------------------
   0F8E                    2344 _main:
                           2345 ;	decryption.c:44: write_data();
   0F8E 12 0F 64           2346 	lcall	_write_data
                           2347 ;	decryption.c:45: montgomery_exp();
   0F91 12 0F 83           2348 	lcall	_montgomery_exp
                           2349 ;	decryption.c:46: read_r();
   0F94 12 0F 75           2350 	lcall	_read_r
                           2351 ;	decryption.c:48: terminate();
   0F97 12 0F 8A           2352 	lcall	_terminate
                           2353 ;	decryption.c:49: return 0;
   0F9A 90 00 00           2354 	mov	dptr,#0x0000
   0F9D 22                 2355 	ret
                           2356 	.area CSEG    (CODE)
                           2357 	.area CONST   (CODE)
                           2358 	.area XINIT   (CODE)
                           2359 	.area CABS    (ABS,CODE)
