                              1 ;--------------------------------------------------------
                              2 ; File Created by SDCC : free open source ANSI-C Compiler
                              3 ; Version 2.9.0 #5416 (Aug  6 2010) (UNIX)
                              4 ; This file was generated Wed Dec  5 17:36:04 2012
                              5 ;--------------------------------------------------------
                              6 	.module main
                              7 	.optsdcc -mmcs51 --model-small
                              8 	
                              9 ;--------------------------------------------------------
                             10 ; Public variables in this module
                             11 ;--------------------------------------------------------
                             12 	.globl _write_data_PARM_5
                             13 	.globl _write_data_PARM_4
                             14 	.globl _write_data_PARM_3
                             15 	.globl _write_data_PARM_2
                             16 	.globl _main
                             17 	.globl _terminate
                             18 	.globl _montgomery_exp
                             19 	.globl _read_r
                             20 	.globl _write_data
                             21 	.globl _CY
                             22 	.globl _AC
                             23 	.globl _F0
                             24 	.globl _RS1
                             25 	.globl _RS0
                             26 	.globl _OV
                             27 	.globl _F1
                             28 	.globl _P
                             29 	.globl _PS
                             30 	.globl _PT1
                             31 	.globl _PX1
                             32 	.globl _PT0
                             33 	.globl _PX0
                             34 	.globl _RD
                             35 	.globl _WR
                             36 	.globl _T1
                             37 	.globl _T0
                             38 	.globl _INT1
                             39 	.globl _INT0
                             40 	.globl _TXD
                             41 	.globl _RXD
                             42 	.globl _P3_7
                             43 	.globl _P3_6
                             44 	.globl _P3_5
                             45 	.globl _P3_4
                             46 	.globl _P3_3
                             47 	.globl _P3_2
                             48 	.globl _P3_1
                             49 	.globl _P3_0
                             50 	.globl _EA
                             51 	.globl _ES
                             52 	.globl _ET1
                             53 	.globl _EX1
                             54 	.globl _ET0
                             55 	.globl _EX0
                             56 	.globl _P2_7
                             57 	.globl _P2_6
                             58 	.globl _P2_5
                             59 	.globl _P2_4
                             60 	.globl _P2_3
                             61 	.globl _P2_2
                             62 	.globl _P2_1
                             63 	.globl _P2_0
                             64 	.globl _SM0
                             65 	.globl _SM1
                             66 	.globl _SM2
                             67 	.globl _REN
                             68 	.globl _TB8
                             69 	.globl _RB8
                             70 	.globl _TI
                             71 	.globl _RI
                             72 	.globl _P1_7
                             73 	.globl _P1_6
                             74 	.globl _P1_5
                             75 	.globl _P1_4
                             76 	.globl _P1_3
                             77 	.globl _P1_2
                             78 	.globl _P1_1
                             79 	.globl _P1_0
                             80 	.globl _TF1
                             81 	.globl _TR1
                             82 	.globl _TF0
                             83 	.globl _TR0
                             84 	.globl _IE1
                             85 	.globl _IT1
                             86 	.globl _IE0
                             87 	.globl _IT0
                             88 	.globl _P0_7
                             89 	.globl _P0_6
                             90 	.globl _P0_5
                             91 	.globl _P0_4
                             92 	.globl _P0_3
                             93 	.globl _P0_2
                             94 	.globl _P0_1
                             95 	.globl _P0_0
                             96 	.globl _B
                             97 	.globl _ACC
                             98 	.globl _PSW
                             99 	.globl _IP
                            100 	.globl _P3
                            101 	.globl _IE
                            102 	.globl _P2
                            103 	.globl _SBUF
                            104 	.globl _SCON
                            105 	.globl _P1
                            106 	.globl _TH1
                            107 	.globl _TH0
                            108 	.globl _TL1
                            109 	.globl _TL0
                            110 	.globl _TMOD
                            111 	.globl _TCON
                            112 	.globl _PCON
                            113 	.globl _DPH
                            114 	.globl _DPL
                            115 	.globl _SP
                            116 	.globl _P0
                            117 	.globl _dec_exp
                            118 	.globl _enc_exp
                            119 	.globl _message
                            120 	.globl _modulus
                            121 	.globl _r2modm
                            122 	.globl _rmodm
                            123 	.globl _r
                            124 	.globl _shared_m
                            125 	.globl _shared_e
                            126 	.globl _shared_a
                            127 	.globl _shared_r2modm
                            128 	.globl _shared_x
                            129 	.globl _i
                            130 ;--------------------------------------------------------
                            131 ; special function registers
                            132 ;--------------------------------------------------------
                            133 	.area RSEG    (DATA)
                    0080    134 _P0	=	0x0080
                    0081    135 _SP	=	0x0081
                    0082    136 _DPL	=	0x0082
                    0083    137 _DPH	=	0x0083
                    0087    138 _PCON	=	0x0087
                    0088    139 _TCON	=	0x0088
                    0089    140 _TMOD	=	0x0089
                    008A    141 _TL0	=	0x008a
                    008B    142 _TL1	=	0x008b
                    008C    143 _TH0	=	0x008c
                    008D    144 _TH1	=	0x008d
                    0090    145 _P1	=	0x0090
                    0098    146 _SCON	=	0x0098
                    0099    147 _SBUF	=	0x0099
                    00A0    148 _P2	=	0x00a0
                    00A8    149 _IE	=	0x00a8
                    00B0    150 _P3	=	0x00b0
                    00B8    151 _IP	=	0x00b8
                    00D0    152 _PSW	=	0x00d0
                    00E0    153 _ACC	=	0x00e0
                    00F0    154 _B	=	0x00f0
                            155 ;--------------------------------------------------------
                            156 ; special function bits
                            157 ;--------------------------------------------------------
                            158 	.area RSEG    (DATA)
                    0080    159 _P0_0	=	0x0080
                    0081    160 _P0_1	=	0x0081
                    0082    161 _P0_2	=	0x0082
                    0083    162 _P0_3	=	0x0083
                    0084    163 _P0_4	=	0x0084
                    0085    164 _P0_5	=	0x0085
                    0086    165 _P0_6	=	0x0086
                    0087    166 _P0_7	=	0x0087
                    0088    167 _IT0	=	0x0088
                    0089    168 _IE0	=	0x0089
                    008A    169 _IT1	=	0x008a
                    008B    170 _IE1	=	0x008b
                    008C    171 _TR0	=	0x008c
                    008D    172 _TF0	=	0x008d
                    008E    173 _TR1	=	0x008e
                    008F    174 _TF1	=	0x008f
                    0090    175 _P1_0	=	0x0090
                    0091    176 _P1_1	=	0x0091
                    0092    177 _P1_2	=	0x0092
                    0093    178 _P1_3	=	0x0093
                    0094    179 _P1_4	=	0x0094
                    0095    180 _P1_5	=	0x0095
                    0096    181 _P1_6	=	0x0096
                    0097    182 _P1_7	=	0x0097
                    0098    183 _RI	=	0x0098
                    0099    184 _TI	=	0x0099
                    009A    185 _RB8	=	0x009a
                    009B    186 _TB8	=	0x009b
                    009C    187 _REN	=	0x009c
                    009D    188 _SM2	=	0x009d
                    009E    189 _SM1	=	0x009e
                    009F    190 _SM0	=	0x009f
                    00A0    191 _P2_0	=	0x00a0
                    00A1    192 _P2_1	=	0x00a1
                    00A2    193 _P2_2	=	0x00a2
                    00A3    194 _P2_3	=	0x00a3
                    00A4    195 _P2_4	=	0x00a4
                    00A5    196 _P2_5	=	0x00a5
                    00A6    197 _P2_6	=	0x00a6
                    00A7    198 _P2_7	=	0x00a7
                    00A8    199 _EX0	=	0x00a8
                    00A9    200 _ET0	=	0x00a9
                    00AA    201 _EX1	=	0x00aa
                    00AB    202 _ET1	=	0x00ab
                    00AC    203 _ES	=	0x00ac
                    00AF    204 _EA	=	0x00af
                    00B0    205 _P3_0	=	0x00b0
                    00B1    206 _P3_1	=	0x00b1
                    00B2    207 _P3_2	=	0x00b2
                    00B3    208 _P3_3	=	0x00b3
                    00B4    209 _P3_4	=	0x00b4
                    00B5    210 _P3_5	=	0x00b5
                    00B6    211 _P3_6	=	0x00b6
                    00B7    212 _P3_7	=	0x00b7
                    00B0    213 _RXD	=	0x00b0
                    00B1    214 _TXD	=	0x00b1
                    00B2    215 _INT0	=	0x00b2
                    00B3    216 _INT1	=	0x00b3
                    00B4    217 _T0	=	0x00b4
                    00B5    218 _T1	=	0x00b5
                    00B6    219 _WR	=	0x00b6
                    00B7    220 _RD	=	0x00b7
                    00B8    221 _PX0	=	0x00b8
                    00B9    222 _PT0	=	0x00b9
                    00BA    223 _PX1	=	0x00ba
                    00BB    224 _PT1	=	0x00bb
                    00BC    225 _PS	=	0x00bc
                    00D0    226 _P	=	0x00d0
                    00D1    227 _F1	=	0x00d1
                    00D2    228 _OV	=	0x00d2
                    00D3    229 _RS0	=	0x00d3
                    00D4    230 _RS1	=	0x00d4
                    00D5    231 _F0	=	0x00d5
                    00D6    232 _AC	=	0x00d6
                    00D7    233 _CY	=	0x00d7
                            234 ;--------------------------------------------------------
                            235 ; overlayable register banks
                            236 ;--------------------------------------------------------
                            237 	.area REG_BANK_0	(REL,OVR,DATA)
   0000                     238 	.ds 8
                            239 ;--------------------------------------------------------
                            240 ; internal ram data
                            241 ;--------------------------------------------------------
                            242 	.area DSEG    (DATA)
   0000                     243 _i::
   0000                     244 	.ds 2
                            245 ;--------------------------------------------------------
                            246 ; overlayable items in internal ram 
                            247 ;--------------------------------------------------------
                            248 	.area	OSEG    (OVR,DATA)
   0000                     249 _write_data_PARM_2::
   0000                     250 	.ds 3
   0003                     251 _write_data_PARM_3::
   0003                     252 	.ds 3
   0006                     253 _write_data_PARM_4::
   0006                     254 	.ds 3
   0009                     255 _write_data_PARM_5::
   0009                     256 	.ds 3
                            257 ;--------------------------------------------------------
                            258 ; Stack segment in internal ram 
                            259 ;--------------------------------------------------------
                            260 	.area	SSEG	(DATA)
   0000                     261 __start__stack:
   0000                     262 	.ds	1
                            263 
                            264 ;--------------------------------------------------------
                            265 ; indirectly addressable internal ram data
                            266 ;--------------------------------------------------------
                            267 	.area ISEG    (DATA)
                            268 ;--------------------------------------------------------
                            269 ; absolute internal ram data
                            270 ;--------------------------------------------------------
                            271 	.area IABS    (ABS,DATA)
                            272 	.area IABS    (ABS,DATA)
                            273 ;--------------------------------------------------------
                            274 ; bit data
                            275 ;--------------------------------------------------------
                            276 	.area BSEG    (BIT)
                            277 ;--------------------------------------------------------
                            278 ; paged external ram data
                            279 ;--------------------------------------------------------
                            280 	.area PSEG    (PAG,XDATA)
                            281 ;--------------------------------------------------------
                            282 ; external ram data
                            283 ;--------------------------------------------------------
                            284 	.area XSEG    (XDATA)
                    4000    285 _shared_x	=	0x4000
                    4080    286 _shared_r2modm	=	0x4080
                    4100    287 _shared_a	=	0x4100
                    4180    288 _shared_e	=	0x4180
                    4200    289 _shared_m	=	0x4200
                    5000    290 _r	=	0x5000
                            291 ;--------------------------------------------------------
                            292 ; absolute external ram data
                            293 ;--------------------------------------------------------
                            294 	.area XABS    (ABS,XDATA)
   0000                     295 	.org 0x0000
   0000                     296 _rmodm::
   0000                     297 	.ds 128
   0080                     298 	.org 0x0080
   0080                     299 _r2modm::
   0080                     300 	.ds 128
   0100                     301 	.org 0x0100
   0100                     302 _modulus::
   0100                     303 	.ds 128
   0180                     304 	.org 0x0180
   0180                     305 _message::
   0180                     306 	.ds 128
   0200                     307 	.org 0x0200
   0200                     308 _enc_exp::
   0200                     309 	.ds 128
   0280                     310 	.org 0x0280
   0280                     311 _dec_exp::
   0280                     312 	.ds 128
                            313 ;--------------------------------------------------------
                            314 ; external initialized ram data
                            315 ;--------------------------------------------------------
                            316 	.area XISEG   (XDATA)
                            317 	.area HOME    (CODE)
                            318 	.area GSINIT0 (CODE)
                            319 	.area GSINIT1 (CODE)
                            320 	.area GSINIT2 (CODE)
                            321 	.area GSINIT3 (CODE)
                            322 	.area GSINIT4 (CODE)
                            323 	.area GSINIT5 (CODE)
                            324 	.area GSINIT  (CODE)
                            325 	.area GSFINAL (CODE)
                            326 	.area CSEG    (CODE)
                            327 ;--------------------------------------------------------
                            328 ; interrupt vector 
                            329 ;--------------------------------------------------------
                            330 	.area HOME    (CODE)
   0000                     331 __interrupt_vect:
   0000 02s00r00            332 	ljmp	__sdcc_gsinit_startup
                            333 ;--------------------------------------------------------
                            334 ; global & static initialisations
                            335 ;--------------------------------------------------------
                            336 	.area HOME    (CODE)
                            337 	.area GSINIT  (CODE)
                            338 	.area GSFINAL (CODE)
                            339 	.area GSINIT  (CODE)
                            340 	.globl __sdcc_gsinit_startup
                            341 	.globl __sdcc_program_startup
                            342 	.globl __start__stack
                            343 	.globl __mcs51_genXINIT
                            344 	.globl __mcs51_genXRAMCLEAR
                            345 	.globl __mcs51_genRAMCLEAR
                            346 ;	main.c:6: volatile __xdata __at (0x0000) unsigned char rmodm[SIZE]   = {0xA3,0x10,0x6B,0x83,0x7C,0x40,0xBF,0xB2,0x54,0x28,0x20,0x4D,0xB2,0xD4,0xF8,0xA6,0xE5,0xB7,0x51,0xBA,0xE8,0xD1,0x95,0x9A,0xFE,0xAB,0x0A,0x48,0x23,0xA2,0x70,0xB3,0xCC,0x7B,0x8F,0x44,0xF4,0x5B,0x53,0x78,0x7D,0xE2,0xF2,0xAF,0xD2,0xBA,0x06,0x0F,0xEE,0xA4,0x37,0x06,0xE7,0x04,0x2C,0x90,0x3C,0x8B,0xFD,0x54,0xCD,0xB9,0x94,0xAD,0x64,0x8E,0x26,0xDE,0x8C,0xC5,0x33,0x92,0x24,0xEF,0x76,0x34,0xC4,0xB8,0xEC,0xF1,0x9A,0x79,0x61,0x80,0xC1,0xBC,0x6D,0x03,0x49,0x95,0x94,0xC8,0x6F,0x14,0xB0,0x16,0x14,0x63,0xD0,0x94,0xD9,0x10,0x4B,0x44,0x03,0xC2,0xCC,0x04,0x68,0x98,0x6C,0xD9,0x69,0xC7,0x1A,0x0F,0xC5,0x39,0x5C,0x6A,0x5A,0x67,0x0B,0x47,0xF4,0x77,0x1E,0x2B};
   0000 90s00r00            347 	mov	dptr,#_rmodm
   0003 74 A3               348 	mov	a,#0xA3
   0005 F0                  349 	movx	@dptr,a
   0006 90s00r01            350 	mov	dptr,#(_rmodm + 0x0001)
   0009 74 10               351 	mov	a,#0x10
   000B F0                  352 	movx	@dptr,a
   000C 90s00r02            353 	mov	dptr,#(_rmodm + 0x0002)
   000F 74 6B               354 	mov	a,#0x6B
   0011 F0                  355 	movx	@dptr,a
   0012 90s00r03            356 	mov	dptr,#(_rmodm + 0x0003)
   0015 74 83               357 	mov	a,#0x83
   0017 F0                  358 	movx	@dptr,a
   0018 90s00r04            359 	mov	dptr,#(_rmodm + 0x0004)
   001B 74 7C               360 	mov	a,#0x7C
   001D F0                  361 	movx	@dptr,a
   001E 90s00r05            362 	mov	dptr,#(_rmodm + 0x0005)
   0021 74 40               363 	mov	a,#0x40
   0023 F0                  364 	movx	@dptr,a
   0024 90s00r06            365 	mov	dptr,#(_rmodm + 0x0006)
   0027 74 BF               366 	mov	a,#0xBF
   0029 F0                  367 	movx	@dptr,a
   002A 90s00r07            368 	mov	dptr,#(_rmodm + 0x0007)
   002D 74 B2               369 	mov	a,#0xB2
   002F F0                  370 	movx	@dptr,a
   0030 90s00r08            371 	mov	dptr,#(_rmodm + 0x0008)
   0033 74 54               372 	mov	a,#0x54
   0035 F0                  373 	movx	@dptr,a
   0036 90s00r09            374 	mov	dptr,#(_rmodm + 0x0009)
   0039 74 28               375 	mov	a,#0x28
   003B F0                  376 	movx	@dptr,a
   003C 90s00r0A            377 	mov	dptr,#(_rmodm + 0x000a)
   003F 74 20               378 	mov	a,#0x20
   0041 F0                  379 	movx	@dptr,a
   0042 90s00r0B            380 	mov	dptr,#(_rmodm + 0x000b)
   0045 74 4D               381 	mov	a,#0x4D
   0047 F0                  382 	movx	@dptr,a
   0048 90s00r0C            383 	mov	dptr,#(_rmodm + 0x000c)
   004B 74 B2               384 	mov	a,#0xB2
   004D F0                  385 	movx	@dptr,a
   004E 90s00r0D            386 	mov	dptr,#(_rmodm + 0x000d)
   0051 74 D4               387 	mov	a,#0xD4
   0053 F0                  388 	movx	@dptr,a
   0054 90s00r0E            389 	mov	dptr,#(_rmodm + 0x000e)
   0057 74 F8               390 	mov	a,#0xF8
   0059 F0                  391 	movx	@dptr,a
   005A 90s00r0F            392 	mov	dptr,#(_rmodm + 0x000f)
   005D 74 A6               393 	mov	a,#0xA6
   005F F0                  394 	movx	@dptr,a
   0060 90s00r10            395 	mov	dptr,#(_rmodm + 0x0010)
   0063 74 E5               396 	mov	a,#0xE5
   0065 F0                  397 	movx	@dptr,a
   0066 90s00r11            398 	mov	dptr,#(_rmodm + 0x0011)
   0069 74 B7               399 	mov	a,#0xB7
   006B F0                  400 	movx	@dptr,a
   006C 90s00r12            401 	mov	dptr,#(_rmodm + 0x0012)
   006F 74 51               402 	mov	a,#0x51
   0071 F0                  403 	movx	@dptr,a
   0072 90s00r13            404 	mov	dptr,#(_rmodm + 0x0013)
   0075 74 BA               405 	mov	a,#0xBA
   0077 F0                  406 	movx	@dptr,a
   0078 90s00r14            407 	mov	dptr,#(_rmodm + 0x0014)
   007B 74 E8               408 	mov	a,#0xE8
   007D F0                  409 	movx	@dptr,a
   007E 90s00r15            410 	mov	dptr,#(_rmodm + 0x0015)
   0081 74 D1               411 	mov	a,#0xD1
   0083 F0                  412 	movx	@dptr,a
   0084 90s00r16            413 	mov	dptr,#(_rmodm + 0x0016)
   0087 74 95               414 	mov	a,#0x95
   0089 F0                  415 	movx	@dptr,a
   008A 90s00r17            416 	mov	dptr,#(_rmodm + 0x0017)
   008D 74 9A               417 	mov	a,#0x9A
   008F F0                  418 	movx	@dptr,a
   0090 90s00r18            419 	mov	dptr,#(_rmodm + 0x0018)
   0093 74 FE               420 	mov	a,#0xFE
   0095 F0                  421 	movx	@dptr,a
   0096 90s00r19            422 	mov	dptr,#(_rmodm + 0x0019)
   0099 74 AB               423 	mov	a,#0xAB
   009B F0                  424 	movx	@dptr,a
   009C 90s00r1A            425 	mov	dptr,#(_rmodm + 0x001a)
   009F 74 0A               426 	mov	a,#0x0A
   00A1 F0                  427 	movx	@dptr,a
   00A2 90s00r1B            428 	mov	dptr,#(_rmodm + 0x001b)
   00A5 74 48               429 	mov	a,#0x48
   00A7 F0                  430 	movx	@dptr,a
   00A8 90s00r1C            431 	mov	dptr,#(_rmodm + 0x001c)
   00AB 74 23               432 	mov	a,#0x23
   00AD F0                  433 	movx	@dptr,a
   00AE 90s00r1D            434 	mov	dptr,#(_rmodm + 0x001d)
   00B1 74 A2               435 	mov	a,#0xA2
   00B3 F0                  436 	movx	@dptr,a
   00B4 90s00r1E            437 	mov	dptr,#(_rmodm + 0x001e)
   00B7 74 70               438 	mov	a,#0x70
   00B9 F0                  439 	movx	@dptr,a
   00BA 90s00r1F            440 	mov	dptr,#(_rmodm + 0x001f)
   00BD 74 B3               441 	mov	a,#0xB3
   00BF F0                  442 	movx	@dptr,a
   00C0 90s00r20            443 	mov	dptr,#(_rmodm + 0x0020)
   00C3 74 CC               444 	mov	a,#0xCC
   00C5 F0                  445 	movx	@dptr,a
   00C6 90s00r21            446 	mov	dptr,#(_rmodm + 0x0021)
   00C9 74 7B               447 	mov	a,#0x7B
   00CB F0                  448 	movx	@dptr,a
   00CC 90s00r22            449 	mov	dptr,#(_rmodm + 0x0022)
   00CF 74 8F               450 	mov	a,#0x8F
   00D1 F0                  451 	movx	@dptr,a
   00D2 90s00r23            452 	mov	dptr,#(_rmodm + 0x0023)
   00D5 74 44               453 	mov	a,#0x44
   00D7 F0                  454 	movx	@dptr,a
   00D8 90s00r24            455 	mov	dptr,#(_rmodm + 0x0024)
   00DB 74 F4               456 	mov	a,#0xF4
   00DD F0                  457 	movx	@dptr,a
   00DE 90s00r25            458 	mov	dptr,#(_rmodm + 0x0025)
   00E1 74 5B               459 	mov	a,#0x5B
   00E3 F0                  460 	movx	@dptr,a
   00E4 90s00r26            461 	mov	dptr,#(_rmodm + 0x0026)
   00E7 74 53               462 	mov	a,#0x53
   00E9 F0                  463 	movx	@dptr,a
   00EA 90s00r27            464 	mov	dptr,#(_rmodm + 0x0027)
   00ED 74 78               465 	mov	a,#0x78
   00EF F0                  466 	movx	@dptr,a
   00F0 90s00r28            467 	mov	dptr,#(_rmodm + 0x0028)
   00F3 74 7D               468 	mov	a,#0x7D
   00F5 F0                  469 	movx	@dptr,a
   00F6 90s00r29            470 	mov	dptr,#(_rmodm + 0x0029)
   00F9 74 E2               471 	mov	a,#0xE2
   00FB F0                  472 	movx	@dptr,a
   00FC 90s00r2A            473 	mov	dptr,#(_rmodm + 0x002a)
   00FF 74 F2               474 	mov	a,#0xF2
   0101 F0                  475 	movx	@dptr,a
   0102 90s00r2B            476 	mov	dptr,#(_rmodm + 0x002b)
   0105 74 AF               477 	mov	a,#0xAF
   0107 F0                  478 	movx	@dptr,a
   0108 90s00r2C            479 	mov	dptr,#(_rmodm + 0x002c)
   010B 74 D2               480 	mov	a,#0xD2
   010D F0                  481 	movx	@dptr,a
   010E 90s00r2D            482 	mov	dptr,#(_rmodm + 0x002d)
   0111 74 BA               483 	mov	a,#0xBA
   0113 F0                  484 	movx	@dptr,a
   0114 90s00r2E            485 	mov	dptr,#(_rmodm + 0x002e)
   0117 74 06               486 	mov	a,#0x06
   0119 F0                  487 	movx	@dptr,a
   011A 90s00r2F            488 	mov	dptr,#(_rmodm + 0x002f)
   011D 74 0F               489 	mov	a,#0x0F
   011F F0                  490 	movx	@dptr,a
   0120 90s00r30            491 	mov	dptr,#(_rmodm + 0x0030)
   0123 74 EE               492 	mov	a,#0xEE
   0125 F0                  493 	movx	@dptr,a
   0126 90s00r31            494 	mov	dptr,#(_rmodm + 0x0031)
   0129 74 A4               495 	mov	a,#0xA4
   012B F0                  496 	movx	@dptr,a
   012C 90s00r32            497 	mov	dptr,#(_rmodm + 0x0032)
   012F 74 37               498 	mov	a,#0x37
   0131 F0                  499 	movx	@dptr,a
   0132 90s00r33            500 	mov	dptr,#(_rmodm + 0x0033)
   0135 74 06               501 	mov	a,#0x06
   0137 F0                  502 	movx	@dptr,a
   0138 90s00r34            503 	mov	dptr,#(_rmodm + 0x0034)
   013B 74 E7               504 	mov	a,#0xE7
   013D F0                  505 	movx	@dptr,a
   013E 90s00r35            506 	mov	dptr,#(_rmodm + 0x0035)
   0141 74 04               507 	mov	a,#0x04
   0143 F0                  508 	movx	@dptr,a
   0144 90s00r36            509 	mov	dptr,#(_rmodm + 0x0036)
   0147 74 2C               510 	mov	a,#0x2C
   0149 F0                  511 	movx	@dptr,a
   014A 90s00r37            512 	mov	dptr,#(_rmodm + 0x0037)
   014D 74 90               513 	mov	a,#0x90
   014F F0                  514 	movx	@dptr,a
   0150 90s00r38            515 	mov	dptr,#(_rmodm + 0x0038)
   0153 74 3C               516 	mov	a,#0x3C
   0155 F0                  517 	movx	@dptr,a
   0156 90s00r39            518 	mov	dptr,#(_rmodm + 0x0039)
   0159 74 8B               519 	mov	a,#0x8B
   015B F0                  520 	movx	@dptr,a
   015C 90s00r3A            521 	mov	dptr,#(_rmodm + 0x003a)
   015F 74 FD               522 	mov	a,#0xFD
   0161 F0                  523 	movx	@dptr,a
   0162 90s00r3B            524 	mov	dptr,#(_rmodm + 0x003b)
   0165 74 54               525 	mov	a,#0x54
   0167 F0                  526 	movx	@dptr,a
   0168 90s00r3C            527 	mov	dptr,#(_rmodm + 0x003c)
   016B 74 CD               528 	mov	a,#0xCD
   016D F0                  529 	movx	@dptr,a
   016E 90s00r3D            530 	mov	dptr,#(_rmodm + 0x003d)
   0171 74 B9               531 	mov	a,#0xB9
   0173 F0                  532 	movx	@dptr,a
   0174 90s00r3E            533 	mov	dptr,#(_rmodm + 0x003e)
   0177 74 94               534 	mov	a,#0x94
   0179 F0                  535 	movx	@dptr,a
   017A 90s00r3F            536 	mov	dptr,#(_rmodm + 0x003f)
   017D 74 AD               537 	mov	a,#0xAD
   017F F0                  538 	movx	@dptr,a
   0180 90s00r40            539 	mov	dptr,#(_rmodm + 0x0040)
   0183 74 64               540 	mov	a,#0x64
   0185 F0                  541 	movx	@dptr,a
   0186 90s00r41            542 	mov	dptr,#(_rmodm + 0x0041)
   0189 74 8E               543 	mov	a,#0x8E
   018B F0                  544 	movx	@dptr,a
   018C 90s00r42            545 	mov	dptr,#(_rmodm + 0x0042)
   018F 74 26               546 	mov	a,#0x26
   0191 F0                  547 	movx	@dptr,a
   0192 90s00r43            548 	mov	dptr,#(_rmodm + 0x0043)
   0195 74 DE               549 	mov	a,#0xDE
   0197 F0                  550 	movx	@dptr,a
   0198 90s00r44            551 	mov	dptr,#(_rmodm + 0x0044)
   019B 74 8C               552 	mov	a,#0x8C
   019D F0                  553 	movx	@dptr,a
   019E 90s00r45            554 	mov	dptr,#(_rmodm + 0x0045)
   01A1 74 C5               555 	mov	a,#0xC5
   01A3 F0                  556 	movx	@dptr,a
   01A4 90s00r46            557 	mov	dptr,#(_rmodm + 0x0046)
   01A7 74 33               558 	mov	a,#0x33
   01A9 F0                  559 	movx	@dptr,a
   01AA 90s00r47            560 	mov	dptr,#(_rmodm + 0x0047)
   01AD 74 92               561 	mov	a,#0x92
   01AF F0                  562 	movx	@dptr,a
   01B0 90s00r48            563 	mov	dptr,#(_rmodm + 0x0048)
   01B3 74 24               564 	mov	a,#0x24
   01B5 F0                  565 	movx	@dptr,a
   01B6 90s00r49            566 	mov	dptr,#(_rmodm + 0x0049)
   01B9 74 EF               567 	mov	a,#0xEF
   01BB F0                  568 	movx	@dptr,a
   01BC 90s00r4A            569 	mov	dptr,#(_rmodm + 0x004a)
   01BF 74 76               570 	mov	a,#0x76
   01C1 F0                  571 	movx	@dptr,a
   01C2 90s00r4B            572 	mov	dptr,#(_rmodm + 0x004b)
   01C5 74 34               573 	mov	a,#0x34
   01C7 F0                  574 	movx	@dptr,a
   01C8 90s00r4C            575 	mov	dptr,#(_rmodm + 0x004c)
   01CB 74 C4               576 	mov	a,#0xC4
   01CD F0                  577 	movx	@dptr,a
   01CE 90s00r4D            578 	mov	dptr,#(_rmodm + 0x004d)
   01D1 74 B8               579 	mov	a,#0xB8
   01D3 F0                  580 	movx	@dptr,a
   01D4 90s00r4E            581 	mov	dptr,#(_rmodm + 0x004e)
   01D7 74 EC               582 	mov	a,#0xEC
   01D9 F0                  583 	movx	@dptr,a
   01DA 90s00r4F            584 	mov	dptr,#(_rmodm + 0x004f)
   01DD 74 F1               585 	mov	a,#0xF1
   01DF F0                  586 	movx	@dptr,a
   01E0 90s00r50            587 	mov	dptr,#(_rmodm + 0x0050)
   01E3 74 9A               588 	mov	a,#0x9A
   01E5 F0                  589 	movx	@dptr,a
   01E6 90s00r51            590 	mov	dptr,#(_rmodm + 0x0051)
   01E9 74 79               591 	mov	a,#0x79
   01EB F0                  592 	movx	@dptr,a
   01EC 90s00r52            593 	mov	dptr,#(_rmodm + 0x0052)
   01EF 74 61               594 	mov	a,#0x61
   01F1 F0                  595 	movx	@dptr,a
   01F2 90s00r53            596 	mov	dptr,#(_rmodm + 0x0053)
   01F5 74 80               597 	mov	a,#0x80
   01F7 F0                  598 	movx	@dptr,a
   01F8 90s00r54            599 	mov	dptr,#(_rmodm + 0x0054)
   01FB 74 C1               600 	mov	a,#0xC1
   01FD F0                  601 	movx	@dptr,a
   01FE 90s00r55            602 	mov	dptr,#(_rmodm + 0x0055)
   0201 74 BC               603 	mov	a,#0xBC
   0203 F0                  604 	movx	@dptr,a
   0204 90s00r56            605 	mov	dptr,#(_rmodm + 0x0056)
   0207 74 6D               606 	mov	a,#0x6D
   0209 F0                  607 	movx	@dptr,a
   020A 90s00r57            608 	mov	dptr,#(_rmodm + 0x0057)
   020D 74 03               609 	mov	a,#0x03
   020F F0                  610 	movx	@dptr,a
   0210 90s00r58            611 	mov	dptr,#(_rmodm + 0x0058)
   0213 74 49               612 	mov	a,#0x49
   0215 F0                  613 	movx	@dptr,a
   0216 90s00r59            614 	mov	dptr,#(_rmodm + 0x0059)
   0219 74 95               615 	mov	a,#0x95
   021B F0                  616 	movx	@dptr,a
   021C 90s00r5A            617 	mov	dptr,#(_rmodm + 0x005a)
   021F 74 94               618 	mov	a,#0x94
   0221 F0                  619 	movx	@dptr,a
   0222 90s00r5B            620 	mov	dptr,#(_rmodm + 0x005b)
   0225 74 C8               621 	mov	a,#0xC8
   0227 F0                  622 	movx	@dptr,a
   0228 90s00r5C            623 	mov	dptr,#(_rmodm + 0x005c)
   022B 74 6F               624 	mov	a,#0x6F
   022D F0                  625 	movx	@dptr,a
   022E 90s00r5D            626 	mov	dptr,#(_rmodm + 0x005d)
   0231 74 14               627 	mov	a,#0x14
   0233 F0                  628 	movx	@dptr,a
   0234 90s00r5E            629 	mov	dptr,#(_rmodm + 0x005e)
   0237 74 B0               630 	mov	a,#0xB0
   0239 F0                  631 	movx	@dptr,a
   023A 90s00r5F            632 	mov	dptr,#(_rmodm + 0x005f)
   023D 74 16               633 	mov	a,#0x16
   023F F0                  634 	movx	@dptr,a
   0240 90s00r60            635 	mov	dptr,#(_rmodm + 0x0060)
   0243 74 14               636 	mov	a,#0x14
   0245 F0                  637 	movx	@dptr,a
   0246 90s00r61            638 	mov	dptr,#(_rmodm + 0x0061)
   0249 74 63               639 	mov	a,#0x63
   024B F0                  640 	movx	@dptr,a
   024C 90s00r62            641 	mov	dptr,#(_rmodm + 0x0062)
   024F 74 D0               642 	mov	a,#0xD0
   0251 F0                  643 	movx	@dptr,a
   0252 90s00r63            644 	mov	dptr,#(_rmodm + 0x0063)
   0255 74 94               645 	mov	a,#0x94
   0257 F0                  646 	movx	@dptr,a
   0258 90s00r64            647 	mov	dptr,#(_rmodm + 0x0064)
   025B 74 D9               648 	mov	a,#0xD9
   025D F0                  649 	movx	@dptr,a
   025E 90s00r65            650 	mov	dptr,#(_rmodm + 0x0065)
   0261 74 10               651 	mov	a,#0x10
   0263 F0                  652 	movx	@dptr,a
   0264 90s00r66            653 	mov	dptr,#(_rmodm + 0x0066)
   0267 74 4B               654 	mov	a,#0x4B
   0269 F0                  655 	movx	@dptr,a
   026A 90s00r67            656 	mov	dptr,#(_rmodm + 0x0067)
   026D 74 44               657 	mov	a,#0x44
   026F F0                  658 	movx	@dptr,a
   0270 90s00r68            659 	mov	dptr,#(_rmodm + 0x0068)
   0273 74 03               660 	mov	a,#0x03
   0275 F0                  661 	movx	@dptr,a
   0276 90s00r69            662 	mov	dptr,#(_rmodm + 0x0069)
   0279 74 C2               663 	mov	a,#0xC2
   027B F0                  664 	movx	@dptr,a
   027C 90s00r6A            665 	mov	dptr,#(_rmodm + 0x006a)
   027F 74 CC               666 	mov	a,#0xCC
   0281 F0                  667 	movx	@dptr,a
   0282 90s00r6B            668 	mov	dptr,#(_rmodm + 0x006b)
   0285 74 04               669 	mov	a,#0x04
   0287 F0                  670 	movx	@dptr,a
   0288 90s00r6C            671 	mov	dptr,#(_rmodm + 0x006c)
   028B 74 68               672 	mov	a,#0x68
   028D F0                  673 	movx	@dptr,a
   028E 90s00r6D            674 	mov	dptr,#(_rmodm + 0x006d)
   0291 74 98               675 	mov	a,#0x98
   0293 F0                  676 	movx	@dptr,a
   0294 90s00r6E            677 	mov	dptr,#(_rmodm + 0x006e)
   0297 74 6C               678 	mov	a,#0x6C
   0299 F0                  679 	movx	@dptr,a
   029A 90s00r6F            680 	mov	dptr,#(_rmodm + 0x006f)
   029D 74 D9               681 	mov	a,#0xD9
   029F F0                  682 	movx	@dptr,a
   02A0 90s00r70            683 	mov	dptr,#(_rmodm + 0x0070)
   02A3 74 69               684 	mov	a,#0x69
   02A5 F0                  685 	movx	@dptr,a
   02A6 90s00r71            686 	mov	dptr,#(_rmodm + 0x0071)
   02A9 74 C7               687 	mov	a,#0xC7
   02AB F0                  688 	movx	@dptr,a
   02AC 90s00r72            689 	mov	dptr,#(_rmodm + 0x0072)
   02AF 74 1A               690 	mov	a,#0x1A
   02B1 F0                  691 	movx	@dptr,a
   02B2 90s00r73            692 	mov	dptr,#(_rmodm + 0x0073)
   02B5 74 0F               693 	mov	a,#0x0F
   02B7 F0                  694 	movx	@dptr,a
   02B8 90s00r74            695 	mov	dptr,#(_rmodm + 0x0074)
   02BB 74 C5               696 	mov	a,#0xC5
   02BD F0                  697 	movx	@dptr,a
   02BE 90s00r75            698 	mov	dptr,#(_rmodm + 0x0075)
   02C1 74 39               699 	mov	a,#0x39
   02C3 F0                  700 	movx	@dptr,a
   02C4 90s00r76            701 	mov	dptr,#(_rmodm + 0x0076)
   02C7 74 5C               702 	mov	a,#0x5C
   02C9 F0                  703 	movx	@dptr,a
   02CA 90s00r77            704 	mov	dptr,#(_rmodm + 0x0077)
   02CD 74 6A               705 	mov	a,#0x6A
   02CF F0                  706 	movx	@dptr,a
   02D0 90s00r78            707 	mov	dptr,#(_rmodm + 0x0078)
   02D3 74 5A               708 	mov	a,#0x5A
   02D5 F0                  709 	movx	@dptr,a
   02D6 90s00r79            710 	mov	dptr,#(_rmodm + 0x0079)
   02D9 74 67               711 	mov	a,#0x67
   02DB F0                  712 	movx	@dptr,a
   02DC 90s00r7A            713 	mov	dptr,#(_rmodm + 0x007a)
   02DF 74 0B               714 	mov	a,#0x0B
   02E1 F0                  715 	movx	@dptr,a
   02E2 90s00r7B            716 	mov	dptr,#(_rmodm + 0x007b)
   02E5 74 47               717 	mov	a,#0x47
   02E7 F0                  718 	movx	@dptr,a
   02E8 90s00r7C            719 	mov	dptr,#(_rmodm + 0x007c)
   02EB 74 F4               720 	mov	a,#0xF4
   02ED F0                  721 	movx	@dptr,a
   02EE 90s00r7D            722 	mov	dptr,#(_rmodm + 0x007d)
   02F1 74 77               723 	mov	a,#0x77
   02F3 F0                  724 	movx	@dptr,a
   02F4 90s00r7E            725 	mov	dptr,#(_rmodm + 0x007e)
   02F7 74 1E               726 	mov	a,#0x1E
   02F9 F0                  727 	movx	@dptr,a
   02FA 90s00r7F            728 	mov	dptr,#(_rmodm + 0x007f)
   02FD 74 2B               729 	mov	a,#0x2B
   02FF F0                  730 	movx	@dptr,a
                            731 ;	main.c:7: volatile __xdata __at (0x0080) unsigned char r2modm[SIZE]  = {0x77,0xEA,0xCF,0xBE,0xC1,0x80,0x10,0xEA,0x1B,0xA6,0xCD,0x50,0x4D,0x92,0x9E,0xEA,0x53,0xAC,0x79,0x45,0x34,0x3D,0x31,0xDF,0x24,0xA4,0x19,0x11,0x2A,0xFD,0x73,0x15,0x2A,0x8F,0xF3,0x43,0xAF,0x42,0x3D,0x85,0xF8,0x09,0x44,0xC3,0xFF,0xC7,0xF9,0xDB,0x8F,0x6A,0x1E,0x8D,0xA4,0x23,0x29,0x31,0xD2,0xE9,0x6E,0xBA,0x41,0x51,0xF7,0x83,0x9B,0x27,0x0E,0x5F,0x4D,0x6C,0x7D,0xD2,0x0A,0x1F,0x3A,0x7C,0x4C,0xE4,0x4D,0xFD,0xFC,0xF7,0x61,0xFE,0xE9,0xA4,0xB6,0x56,0xB2,0x7D,0x39,0xD1,0xEA,0x77,0xA3,0x22,0xD0,0xC6,0x4E,0xA4,0x45,0xB3,0xD5,0x63,0x7B,0x1D,0x52,0x4F,0x4C,0x0A,0x28,0xB8,0x3F,0xDB,0x90,0x04,0x5C,0xBE,0x0B,0xAC,0xD2,0x3A,0x71,0x9A,0x76,0x20,0x31,0x46};
   0300 90s00r80            732 	mov	dptr,#_r2modm
   0303 74 77               733 	mov	a,#0x77
   0305 F0                  734 	movx	@dptr,a
   0306 90s00r81            735 	mov	dptr,#(_r2modm + 0x0001)
   0309 74 EA               736 	mov	a,#0xEA
   030B F0                  737 	movx	@dptr,a
   030C 90s00r82            738 	mov	dptr,#(_r2modm + 0x0002)
   030F 74 CF               739 	mov	a,#0xCF
   0311 F0                  740 	movx	@dptr,a
   0312 90s00r83            741 	mov	dptr,#(_r2modm + 0x0003)
   0315 74 BE               742 	mov	a,#0xBE
   0317 F0                  743 	movx	@dptr,a
   0318 90s00r84            744 	mov	dptr,#(_r2modm + 0x0004)
   031B 74 C1               745 	mov	a,#0xC1
   031D F0                  746 	movx	@dptr,a
   031E 90s00r85            747 	mov	dptr,#(_r2modm + 0x0005)
   0321 74 80               748 	mov	a,#0x80
   0323 F0                  749 	movx	@dptr,a
   0324 90s00r86            750 	mov	dptr,#(_r2modm + 0x0006)
   0327 74 10               751 	mov	a,#0x10
   0329 F0                  752 	movx	@dptr,a
   032A 90s00r87            753 	mov	dptr,#(_r2modm + 0x0007)
   032D 74 EA               754 	mov	a,#0xEA
   032F F0                  755 	movx	@dptr,a
   0330 90s00r88            756 	mov	dptr,#(_r2modm + 0x0008)
   0333 74 1B               757 	mov	a,#0x1B
   0335 F0                  758 	movx	@dptr,a
   0336 90s00r89            759 	mov	dptr,#(_r2modm + 0x0009)
   0339 74 A6               760 	mov	a,#0xA6
   033B F0                  761 	movx	@dptr,a
   033C 90s00r8A            762 	mov	dptr,#(_r2modm + 0x000a)
   033F 74 CD               763 	mov	a,#0xCD
   0341 F0                  764 	movx	@dptr,a
   0342 90s00r8B            765 	mov	dptr,#(_r2modm + 0x000b)
   0345 74 50               766 	mov	a,#0x50
   0347 F0                  767 	movx	@dptr,a
   0348 90s00r8C            768 	mov	dptr,#(_r2modm + 0x000c)
   034B 74 4D               769 	mov	a,#0x4D
   034D F0                  770 	movx	@dptr,a
   034E 90s00r8D            771 	mov	dptr,#(_r2modm + 0x000d)
   0351 74 92               772 	mov	a,#0x92
   0353 F0                  773 	movx	@dptr,a
   0354 90s00r8E            774 	mov	dptr,#(_r2modm + 0x000e)
   0357 74 9E               775 	mov	a,#0x9E
   0359 F0                  776 	movx	@dptr,a
   035A 90s00r8F            777 	mov	dptr,#(_r2modm + 0x000f)
   035D 74 EA               778 	mov	a,#0xEA
   035F F0                  779 	movx	@dptr,a
   0360 90s00r90            780 	mov	dptr,#(_r2modm + 0x0010)
   0363 74 53               781 	mov	a,#0x53
   0365 F0                  782 	movx	@dptr,a
   0366 90s00r91            783 	mov	dptr,#(_r2modm + 0x0011)
   0369 74 AC               784 	mov	a,#0xAC
   036B F0                  785 	movx	@dptr,a
   036C 90s00r92            786 	mov	dptr,#(_r2modm + 0x0012)
   036F 74 79               787 	mov	a,#0x79
   0371 F0                  788 	movx	@dptr,a
   0372 90s00r93            789 	mov	dptr,#(_r2modm + 0x0013)
   0375 74 45               790 	mov	a,#0x45
   0377 F0                  791 	movx	@dptr,a
   0378 90s00r94            792 	mov	dptr,#(_r2modm + 0x0014)
   037B 74 34               793 	mov	a,#0x34
   037D F0                  794 	movx	@dptr,a
   037E 90s00r95            795 	mov	dptr,#(_r2modm + 0x0015)
   0381 74 3D               796 	mov	a,#0x3D
   0383 F0                  797 	movx	@dptr,a
   0384 90s00r96            798 	mov	dptr,#(_r2modm + 0x0016)
   0387 74 31               799 	mov	a,#0x31
   0389 F0                  800 	movx	@dptr,a
   038A 90s00r97            801 	mov	dptr,#(_r2modm + 0x0017)
   038D 74 DF               802 	mov	a,#0xDF
   038F F0                  803 	movx	@dptr,a
   0390 90s00r98            804 	mov	dptr,#(_r2modm + 0x0018)
   0393 74 24               805 	mov	a,#0x24
   0395 F0                  806 	movx	@dptr,a
   0396 90s00r99            807 	mov	dptr,#(_r2modm + 0x0019)
   0399 74 A4               808 	mov	a,#0xA4
   039B F0                  809 	movx	@dptr,a
   039C 90s00r9A            810 	mov	dptr,#(_r2modm + 0x001a)
   039F 74 19               811 	mov	a,#0x19
   03A1 F0                  812 	movx	@dptr,a
   03A2 90s00r9B            813 	mov	dptr,#(_r2modm + 0x001b)
   03A5 74 11               814 	mov	a,#0x11
   03A7 F0                  815 	movx	@dptr,a
   03A8 90s00r9C            816 	mov	dptr,#(_r2modm + 0x001c)
   03AB 74 2A               817 	mov	a,#0x2A
   03AD F0                  818 	movx	@dptr,a
   03AE 90s00r9D            819 	mov	dptr,#(_r2modm + 0x001d)
   03B1 74 FD               820 	mov	a,#0xFD
   03B3 F0                  821 	movx	@dptr,a
   03B4 90s00r9E            822 	mov	dptr,#(_r2modm + 0x001e)
   03B7 74 73               823 	mov	a,#0x73
   03B9 F0                  824 	movx	@dptr,a
   03BA 90s00r9F            825 	mov	dptr,#(_r2modm + 0x001f)
   03BD 74 15               826 	mov	a,#0x15
   03BF F0                  827 	movx	@dptr,a
   03C0 90s00rA0            828 	mov	dptr,#(_r2modm + 0x0020)
   03C3 74 2A               829 	mov	a,#0x2A
   03C5 F0                  830 	movx	@dptr,a
   03C6 90s00rA1            831 	mov	dptr,#(_r2modm + 0x0021)
   03C9 74 8F               832 	mov	a,#0x8F
   03CB F0                  833 	movx	@dptr,a
   03CC 90s00rA2            834 	mov	dptr,#(_r2modm + 0x0022)
   03CF 74 F3               835 	mov	a,#0xF3
   03D1 F0                  836 	movx	@dptr,a
   03D2 90s00rA3            837 	mov	dptr,#(_r2modm + 0x0023)
   03D5 74 43               838 	mov	a,#0x43
   03D7 F0                  839 	movx	@dptr,a
   03D8 90s00rA4            840 	mov	dptr,#(_r2modm + 0x0024)
   03DB 74 AF               841 	mov	a,#0xAF
   03DD F0                  842 	movx	@dptr,a
   03DE 90s00rA5            843 	mov	dptr,#(_r2modm + 0x0025)
   03E1 74 42               844 	mov	a,#0x42
   03E3 F0                  845 	movx	@dptr,a
   03E4 90s00rA6            846 	mov	dptr,#(_r2modm + 0x0026)
   03E7 74 3D               847 	mov	a,#0x3D
   03E9 F0                  848 	movx	@dptr,a
   03EA 90s00rA7            849 	mov	dptr,#(_r2modm + 0x0027)
   03ED 74 85               850 	mov	a,#0x85
   03EF F0                  851 	movx	@dptr,a
   03F0 90s00rA8            852 	mov	dptr,#(_r2modm + 0x0028)
   03F3 74 F8               853 	mov	a,#0xF8
   03F5 F0                  854 	movx	@dptr,a
   03F6 90s00rA9            855 	mov	dptr,#(_r2modm + 0x0029)
   03F9 74 09               856 	mov	a,#0x09
   03FB F0                  857 	movx	@dptr,a
   03FC 90s00rAA            858 	mov	dptr,#(_r2modm + 0x002a)
   03FF 74 44               859 	mov	a,#0x44
   0401 F0                  860 	movx	@dptr,a
   0402 90s00rAB            861 	mov	dptr,#(_r2modm + 0x002b)
   0405 74 C3               862 	mov	a,#0xC3
   0407 F0                  863 	movx	@dptr,a
   0408 90s00rAC            864 	mov	dptr,#(_r2modm + 0x002c)
   040B 74 FF               865 	mov	a,#0xFF
   040D F0                  866 	movx	@dptr,a
   040E 90s00rAD            867 	mov	dptr,#(_r2modm + 0x002d)
   0411 74 C7               868 	mov	a,#0xC7
   0413 F0                  869 	movx	@dptr,a
   0414 90s00rAE            870 	mov	dptr,#(_r2modm + 0x002e)
   0417 74 F9               871 	mov	a,#0xF9
   0419 F0                  872 	movx	@dptr,a
   041A 90s00rAF            873 	mov	dptr,#(_r2modm + 0x002f)
   041D 74 DB               874 	mov	a,#0xDB
   041F F0                  875 	movx	@dptr,a
   0420 90s00rB0            876 	mov	dptr,#(_r2modm + 0x0030)
   0423 74 8F               877 	mov	a,#0x8F
   0425 F0                  878 	movx	@dptr,a
   0426 90s00rB1            879 	mov	dptr,#(_r2modm + 0x0031)
   0429 74 6A               880 	mov	a,#0x6A
   042B F0                  881 	movx	@dptr,a
   042C 90s00rB2            882 	mov	dptr,#(_r2modm + 0x0032)
   042F 74 1E               883 	mov	a,#0x1E
   0431 F0                  884 	movx	@dptr,a
   0432 90s00rB3            885 	mov	dptr,#(_r2modm + 0x0033)
   0435 74 8D               886 	mov	a,#0x8D
   0437 F0                  887 	movx	@dptr,a
   0438 90s00rB4            888 	mov	dptr,#(_r2modm + 0x0034)
   043B 74 A4               889 	mov	a,#0xA4
   043D F0                  890 	movx	@dptr,a
   043E 90s00rB5            891 	mov	dptr,#(_r2modm + 0x0035)
   0441 74 23               892 	mov	a,#0x23
   0443 F0                  893 	movx	@dptr,a
   0444 90s00rB6            894 	mov	dptr,#(_r2modm + 0x0036)
   0447 74 29               895 	mov	a,#0x29
   0449 F0                  896 	movx	@dptr,a
   044A 90s00rB7            897 	mov	dptr,#(_r2modm + 0x0037)
   044D 74 31               898 	mov	a,#0x31
   044F F0                  899 	movx	@dptr,a
   0450 90s00rB8            900 	mov	dptr,#(_r2modm + 0x0038)
   0453 74 D2               901 	mov	a,#0xD2
   0455 F0                  902 	movx	@dptr,a
   0456 90s00rB9            903 	mov	dptr,#(_r2modm + 0x0039)
   0459 74 E9               904 	mov	a,#0xE9
   045B F0                  905 	movx	@dptr,a
   045C 90s00rBA            906 	mov	dptr,#(_r2modm + 0x003a)
   045F 74 6E               907 	mov	a,#0x6E
   0461 F0                  908 	movx	@dptr,a
   0462 90s00rBB            909 	mov	dptr,#(_r2modm + 0x003b)
   0465 74 BA               910 	mov	a,#0xBA
   0467 F0                  911 	movx	@dptr,a
   0468 90s00rBC            912 	mov	dptr,#(_r2modm + 0x003c)
   046B 74 41               913 	mov	a,#0x41
   046D F0                  914 	movx	@dptr,a
   046E 90s00rBD            915 	mov	dptr,#(_r2modm + 0x003d)
   0471 74 51               916 	mov	a,#0x51
   0473 F0                  917 	movx	@dptr,a
   0474 90s00rBE            918 	mov	dptr,#(_r2modm + 0x003e)
   0477 74 F7               919 	mov	a,#0xF7
   0479 F0                  920 	movx	@dptr,a
   047A 90s00rBF            921 	mov	dptr,#(_r2modm + 0x003f)
   047D 74 83               922 	mov	a,#0x83
   047F F0                  923 	movx	@dptr,a
   0480 90s00rC0            924 	mov	dptr,#(_r2modm + 0x0040)
   0483 74 9B               925 	mov	a,#0x9B
   0485 F0                  926 	movx	@dptr,a
   0486 90s00rC1            927 	mov	dptr,#(_r2modm + 0x0041)
   0489 74 27               928 	mov	a,#0x27
   048B F0                  929 	movx	@dptr,a
   048C 90s00rC2            930 	mov	dptr,#(_r2modm + 0x0042)
   048F 74 0E               931 	mov	a,#0x0E
   0491 F0                  932 	movx	@dptr,a
   0492 90s00rC3            933 	mov	dptr,#(_r2modm + 0x0043)
   0495 74 5F               934 	mov	a,#0x5F
   0497 F0                  935 	movx	@dptr,a
   0498 90s00rC4            936 	mov	dptr,#(_r2modm + 0x0044)
   049B 74 4D               937 	mov	a,#0x4D
   049D F0                  938 	movx	@dptr,a
   049E 90s00rC5            939 	mov	dptr,#(_r2modm + 0x0045)
   04A1 74 6C               940 	mov	a,#0x6C
   04A3 F0                  941 	movx	@dptr,a
   04A4 90s00rC6            942 	mov	dptr,#(_r2modm + 0x0046)
   04A7 74 7D               943 	mov	a,#0x7D
   04A9 F0                  944 	movx	@dptr,a
   04AA 90s00rC7            945 	mov	dptr,#(_r2modm + 0x0047)
   04AD 74 D2               946 	mov	a,#0xD2
   04AF F0                  947 	movx	@dptr,a
   04B0 90s00rC8            948 	mov	dptr,#(_r2modm + 0x0048)
   04B3 74 0A               949 	mov	a,#0x0A
   04B5 F0                  950 	movx	@dptr,a
   04B6 90s00rC9            951 	mov	dptr,#(_r2modm + 0x0049)
   04B9 74 1F               952 	mov	a,#0x1F
   04BB F0                  953 	movx	@dptr,a
   04BC 90s00rCA            954 	mov	dptr,#(_r2modm + 0x004a)
   04BF 74 3A               955 	mov	a,#0x3A
   04C1 F0                  956 	movx	@dptr,a
   04C2 90s00rCB            957 	mov	dptr,#(_r2modm + 0x004b)
   04C5 74 7C               958 	mov	a,#0x7C
   04C7 F0                  959 	movx	@dptr,a
   04C8 90s00rCC            960 	mov	dptr,#(_r2modm + 0x004c)
   04CB 74 4C               961 	mov	a,#0x4C
   04CD F0                  962 	movx	@dptr,a
   04CE 90s00rCD            963 	mov	dptr,#(_r2modm + 0x004d)
   04D1 74 E4               964 	mov	a,#0xE4
   04D3 F0                  965 	movx	@dptr,a
   04D4 90s00rCE            966 	mov	dptr,#(_r2modm + 0x004e)
   04D7 74 4D               967 	mov	a,#0x4D
   04D9 F0                  968 	movx	@dptr,a
   04DA 90s00rCF            969 	mov	dptr,#(_r2modm + 0x004f)
   04DD 74 FD               970 	mov	a,#0xFD
   04DF F0                  971 	movx	@dptr,a
   04E0 90s00rD0            972 	mov	dptr,#(_r2modm + 0x0050)
   04E3 74 FC               973 	mov	a,#0xFC
   04E5 F0                  974 	movx	@dptr,a
   04E6 90s00rD1            975 	mov	dptr,#(_r2modm + 0x0051)
   04E9 74 F7               976 	mov	a,#0xF7
   04EB F0                  977 	movx	@dptr,a
   04EC 90s00rD2            978 	mov	dptr,#(_r2modm + 0x0052)
   04EF 74 61               979 	mov	a,#0x61
   04F1 F0                  980 	movx	@dptr,a
   04F2 90s00rD3            981 	mov	dptr,#(_r2modm + 0x0053)
   04F5 74 FE               982 	mov	a,#0xFE
   04F7 F0                  983 	movx	@dptr,a
   04F8 90s00rD4            984 	mov	dptr,#(_r2modm + 0x0054)
   04FB 74 E9               985 	mov	a,#0xE9
   04FD F0                  986 	movx	@dptr,a
   04FE 90s00rD5            987 	mov	dptr,#(_r2modm + 0x0055)
   0501 74 A4               988 	mov	a,#0xA4
   0503 F0                  989 	movx	@dptr,a
   0504 90s00rD6            990 	mov	dptr,#(_r2modm + 0x0056)
   0507 74 B6               991 	mov	a,#0xB6
   0509 F0                  992 	movx	@dptr,a
   050A 90s00rD7            993 	mov	dptr,#(_r2modm + 0x0057)
   050D 74 56               994 	mov	a,#0x56
   050F F0                  995 	movx	@dptr,a
   0510 90s00rD8            996 	mov	dptr,#(_r2modm + 0x0058)
   0513 74 B2               997 	mov	a,#0xB2
   0515 F0                  998 	movx	@dptr,a
   0516 90s00rD9            999 	mov	dptr,#(_r2modm + 0x0059)
   0519 74 7D              1000 	mov	a,#0x7D
   051B F0                 1001 	movx	@dptr,a
   051C 90s00rDA           1002 	mov	dptr,#(_r2modm + 0x005a)
   051F 74 39              1003 	mov	a,#0x39
   0521 F0                 1004 	movx	@dptr,a
   0522 90s00rDB           1005 	mov	dptr,#(_r2modm + 0x005b)
   0525 74 D1              1006 	mov	a,#0xD1
   0527 F0                 1007 	movx	@dptr,a
   0528 90s00rDC           1008 	mov	dptr,#(_r2modm + 0x005c)
   052B 74 EA              1009 	mov	a,#0xEA
   052D F0                 1010 	movx	@dptr,a
   052E 90s00rDD           1011 	mov	dptr,#(_r2modm + 0x005d)
   0531 74 77              1012 	mov	a,#0x77
   0533 F0                 1013 	movx	@dptr,a
   0534 90s00rDE           1014 	mov	dptr,#(_r2modm + 0x005e)
   0537 74 A3              1015 	mov	a,#0xA3
   0539 F0                 1016 	movx	@dptr,a
   053A 90s00rDF           1017 	mov	dptr,#(_r2modm + 0x005f)
   053D 74 22              1018 	mov	a,#0x22
   053F F0                 1019 	movx	@dptr,a
   0540 90s00rE0           1020 	mov	dptr,#(_r2modm + 0x0060)
   0543 74 D0              1021 	mov	a,#0xD0
   0545 F0                 1022 	movx	@dptr,a
   0546 90s00rE1           1023 	mov	dptr,#(_r2modm + 0x0061)
   0549 74 C6              1024 	mov	a,#0xC6
   054B F0                 1025 	movx	@dptr,a
   054C 90s00rE2           1026 	mov	dptr,#(_r2modm + 0x0062)
   054F 74 4E              1027 	mov	a,#0x4E
   0551 F0                 1028 	movx	@dptr,a
   0552 90s00rE3           1029 	mov	dptr,#(_r2modm + 0x0063)
   0555 74 A4              1030 	mov	a,#0xA4
   0557 F0                 1031 	movx	@dptr,a
   0558 90s00rE4           1032 	mov	dptr,#(_r2modm + 0x0064)
   055B 74 45              1033 	mov	a,#0x45
   055D F0                 1034 	movx	@dptr,a
   055E 90s00rE5           1035 	mov	dptr,#(_r2modm + 0x0065)
   0561 74 B3              1036 	mov	a,#0xB3
   0563 F0                 1037 	movx	@dptr,a
   0564 90s00rE6           1038 	mov	dptr,#(_r2modm + 0x0066)
   0567 74 D5              1039 	mov	a,#0xD5
   0569 F0                 1040 	movx	@dptr,a
   056A 90s00rE7           1041 	mov	dptr,#(_r2modm + 0x0067)
   056D 74 63              1042 	mov	a,#0x63
   056F F0                 1043 	movx	@dptr,a
   0570 90s00rE8           1044 	mov	dptr,#(_r2modm + 0x0068)
   0573 74 7B              1045 	mov	a,#0x7B
   0575 F0                 1046 	movx	@dptr,a
   0576 90s00rE9           1047 	mov	dptr,#(_r2modm + 0x0069)
   0579 74 1D              1048 	mov	a,#0x1D
   057B F0                 1049 	movx	@dptr,a
   057C 90s00rEA           1050 	mov	dptr,#(_r2modm + 0x006a)
   057F 74 52              1051 	mov	a,#0x52
   0581 F0                 1052 	movx	@dptr,a
   0582 90s00rEB           1053 	mov	dptr,#(_r2modm + 0x006b)
   0585 74 4F              1054 	mov	a,#0x4F
   0587 F0                 1055 	movx	@dptr,a
   0588 90s00rEC           1056 	mov	dptr,#(_r2modm + 0x006c)
   058B 74 4C              1057 	mov	a,#0x4C
   058D F0                 1058 	movx	@dptr,a
   058E 90s00rED           1059 	mov	dptr,#(_r2modm + 0x006d)
   0591 74 0A              1060 	mov	a,#0x0A
   0593 F0                 1061 	movx	@dptr,a
   0594 90s00rEE           1062 	mov	dptr,#(_r2modm + 0x006e)
   0597 74 28              1063 	mov	a,#0x28
   0599 F0                 1064 	movx	@dptr,a
   059A 90s00rEF           1065 	mov	dptr,#(_r2modm + 0x006f)
   059D 74 B8              1066 	mov	a,#0xB8
   059F F0                 1067 	movx	@dptr,a
   05A0 90s00rF0           1068 	mov	dptr,#(_r2modm + 0x0070)
   05A3 74 3F              1069 	mov	a,#0x3F
   05A5 F0                 1070 	movx	@dptr,a
   05A6 90s00rF1           1071 	mov	dptr,#(_r2modm + 0x0071)
   05A9 74 DB              1072 	mov	a,#0xDB
   05AB F0                 1073 	movx	@dptr,a
   05AC 90s00rF2           1074 	mov	dptr,#(_r2modm + 0x0072)
   05AF 74 90              1075 	mov	a,#0x90
   05B1 F0                 1076 	movx	@dptr,a
   05B2 90s00rF3           1077 	mov	dptr,#(_r2modm + 0x0073)
   05B5 74 04              1078 	mov	a,#0x04
   05B7 F0                 1079 	movx	@dptr,a
   05B8 90s00rF4           1080 	mov	dptr,#(_r2modm + 0x0074)
   05BB 74 5C              1081 	mov	a,#0x5C
   05BD F0                 1082 	movx	@dptr,a
   05BE 90s00rF5           1083 	mov	dptr,#(_r2modm + 0x0075)
   05C1 74 BE              1084 	mov	a,#0xBE
   05C3 F0                 1085 	movx	@dptr,a
   05C4 90s00rF6           1086 	mov	dptr,#(_r2modm + 0x0076)
   05C7 74 0B              1087 	mov	a,#0x0B
   05C9 F0                 1088 	movx	@dptr,a
   05CA 90s00rF7           1089 	mov	dptr,#(_r2modm + 0x0077)
   05CD 74 AC              1090 	mov	a,#0xAC
   05CF F0                 1091 	movx	@dptr,a
   05D0 90s00rF8           1092 	mov	dptr,#(_r2modm + 0x0078)
   05D3 74 D2              1093 	mov	a,#0xD2
   05D5 F0                 1094 	movx	@dptr,a
   05D6 90s00rF9           1095 	mov	dptr,#(_r2modm + 0x0079)
   05D9 74 3A              1096 	mov	a,#0x3A
   05DB F0                 1097 	movx	@dptr,a
   05DC 90s00rFA           1098 	mov	dptr,#(_r2modm + 0x007a)
   05DF 74 71              1099 	mov	a,#0x71
   05E1 F0                 1100 	movx	@dptr,a
   05E2 90s00rFB           1101 	mov	dptr,#(_r2modm + 0x007b)
   05E5 74 9A              1102 	mov	a,#0x9A
   05E7 F0                 1103 	movx	@dptr,a
   05E8 90s00rFC           1104 	mov	dptr,#(_r2modm + 0x007c)
   05EB 74 76              1105 	mov	a,#0x76
   05ED F0                 1106 	movx	@dptr,a
   05EE 90s00rFD           1107 	mov	dptr,#(_r2modm + 0x007d)
   05F1 74 20              1108 	mov	a,#0x20
   05F3 F0                 1109 	movx	@dptr,a
   05F4 90s00rFE           1110 	mov	dptr,#(_r2modm + 0x007e)
   05F7 74 31              1111 	mov	a,#0x31
   05F9 F0                 1112 	movx	@dptr,a
   05FA 90s00rFF           1113 	mov	dptr,#(_r2modm + 0x007f)
   05FD 74 46              1114 	mov	a,#0x46
   05FF F0                 1115 	movx	@dptr,a
                           1116 ;	main.c:8: volatile __xdata __at (0x0100) unsigned char modulus[SIZE] = {0x5D,0xEF,0x94,0x7C,0x83,0xBF,0x40,0x4D,0xAB,0xD7,0xDF,0xB2,0x4D,0x2B,0x07,0x59,0x1A,0x48,0xAE,0x45,0x17,0x2E,0x6A,0x65,0x01,0x54,0xF5,0xB7,0xDC,0x5D,0x8F,0x4C,0x33,0x84,0x70,0xBB,0x0B,0xA4,0xAC,0x87,0x82,0x1D,0x0D,0x50,0x2D,0x45,0xF9,0xF0,0x11,0x5B,0xC8,0xF9,0x18,0xFB,0xD3,0x6F,0xC3,0x74,0x02,0xAB,0x32,0x46,0x6B,0x52,0x9B,0x71,0xD9,0x21,0x73,0x3A,0xCC,0x6D,0xDB,0x10,0x89,0xCB,0x3B,0x47,0x13,0x0E,0x65,0x86,0x9E,0x7F,0x3E,0x43,0x92,0xFC,0xB6,0x6A,0x6B,0x37,0x90,0xEB,0x4F,0xE9,0xEB,0x9C,0x2F,0x6B,0x26,0xEF,0xB4,0xBB,0xFC,0x3D,0x33,0xFB,0x97,0x67,0x93,0x26,0x96,0x38,0xE5,0xF0,0x3A,0xC6,0xA3,0x95,0xA5,0x98,0xF4,0xB8,0x0B,0x88,0xE1,0xD4};
   0600 90s01r00           1117 	mov	dptr,#_modulus
   0603 74 5D              1118 	mov	a,#0x5D
   0605 F0                 1119 	movx	@dptr,a
   0606 90s01r01           1120 	mov	dptr,#(_modulus + 0x0001)
   0609 74 EF              1121 	mov	a,#0xEF
   060B F0                 1122 	movx	@dptr,a
   060C 90s01r02           1123 	mov	dptr,#(_modulus + 0x0002)
   060F 74 94              1124 	mov	a,#0x94
   0611 F0                 1125 	movx	@dptr,a
   0612 90s01r03           1126 	mov	dptr,#(_modulus + 0x0003)
   0615 74 7C              1127 	mov	a,#0x7C
   0617 F0                 1128 	movx	@dptr,a
   0618 90s01r04           1129 	mov	dptr,#(_modulus + 0x0004)
   061B 74 83              1130 	mov	a,#0x83
   061D F0                 1131 	movx	@dptr,a
   061E 90s01r05           1132 	mov	dptr,#(_modulus + 0x0005)
   0621 74 BF              1133 	mov	a,#0xBF
   0623 F0                 1134 	movx	@dptr,a
   0624 90s01r06           1135 	mov	dptr,#(_modulus + 0x0006)
   0627 74 40              1136 	mov	a,#0x40
   0629 F0                 1137 	movx	@dptr,a
   062A 90s01r07           1138 	mov	dptr,#(_modulus + 0x0007)
   062D 74 4D              1139 	mov	a,#0x4D
   062F F0                 1140 	movx	@dptr,a
   0630 90s01r08           1141 	mov	dptr,#(_modulus + 0x0008)
   0633 74 AB              1142 	mov	a,#0xAB
   0635 F0                 1143 	movx	@dptr,a
   0636 90s01r09           1144 	mov	dptr,#(_modulus + 0x0009)
   0639 74 D7              1145 	mov	a,#0xD7
   063B F0                 1146 	movx	@dptr,a
   063C 90s01r0A           1147 	mov	dptr,#(_modulus + 0x000a)
   063F 74 DF              1148 	mov	a,#0xDF
   0641 F0                 1149 	movx	@dptr,a
   0642 90s01r0B           1150 	mov	dptr,#(_modulus + 0x000b)
   0645 74 B2              1151 	mov	a,#0xB2
   0647 F0                 1152 	movx	@dptr,a
   0648 90s01r0C           1153 	mov	dptr,#(_modulus + 0x000c)
   064B 74 4D              1154 	mov	a,#0x4D
   064D F0                 1155 	movx	@dptr,a
   064E 90s01r0D           1156 	mov	dptr,#(_modulus + 0x000d)
   0651 74 2B              1157 	mov	a,#0x2B
   0653 F0                 1158 	movx	@dptr,a
   0654 90s01r0E           1159 	mov	dptr,#(_modulus + 0x000e)
   0657 74 07              1160 	mov	a,#0x07
   0659 F0                 1161 	movx	@dptr,a
   065A 90s01r0F           1162 	mov	dptr,#(_modulus + 0x000f)
   065D 74 59              1163 	mov	a,#0x59
   065F F0                 1164 	movx	@dptr,a
   0660 90s01r10           1165 	mov	dptr,#(_modulus + 0x0010)
   0663 74 1A              1166 	mov	a,#0x1A
   0665 F0                 1167 	movx	@dptr,a
   0666 90s01r11           1168 	mov	dptr,#(_modulus + 0x0011)
   0669 74 48              1169 	mov	a,#0x48
   066B F0                 1170 	movx	@dptr,a
   066C 90s01r12           1171 	mov	dptr,#(_modulus + 0x0012)
   066F 74 AE              1172 	mov	a,#0xAE
   0671 F0                 1173 	movx	@dptr,a
   0672 90s01r13           1174 	mov	dptr,#(_modulus + 0x0013)
   0675 74 45              1175 	mov	a,#0x45
   0677 F0                 1176 	movx	@dptr,a
   0678 90s01r14           1177 	mov	dptr,#(_modulus + 0x0014)
   067B 74 17              1178 	mov	a,#0x17
   067D F0                 1179 	movx	@dptr,a
   067E 90s01r15           1180 	mov	dptr,#(_modulus + 0x0015)
   0681 74 2E              1181 	mov	a,#0x2E
   0683 F0                 1182 	movx	@dptr,a
   0684 90s01r16           1183 	mov	dptr,#(_modulus + 0x0016)
   0687 74 6A              1184 	mov	a,#0x6A
   0689 F0                 1185 	movx	@dptr,a
   068A 90s01r17           1186 	mov	dptr,#(_modulus + 0x0017)
   068D 74 65              1187 	mov	a,#0x65
   068F F0                 1188 	movx	@dptr,a
   0690 90s01r18           1189 	mov	dptr,#(_modulus + 0x0018)
   0693 74 01              1190 	mov	a,#0x01
   0695 F0                 1191 	movx	@dptr,a
   0696 90s01r19           1192 	mov	dptr,#(_modulus + 0x0019)
   0699 74 54              1193 	mov	a,#0x54
   069B F0                 1194 	movx	@dptr,a
   069C 90s01r1A           1195 	mov	dptr,#(_modulus + 0x001a)
   069F 74 F5              1196 	mov	a,#0xF5
   06A1 F0                 1197 	movx	@dptr,a
   06A2 90s01r1B           1198 	mov	dptr,#(_modulus + 0x001b)
   06A5 74 B7              1199 	mov	a,#0xB7
   06A7 F0                 1200 	movx	@dptr,a
   06A8 90s01r1C           1201 	mov	dptr,#(_modulus + 0x001c)
   06AB 74 DC              1202 	mov	a,#0xDC
   06AD F0                 1203 	movx	@dptr,a
   06AE 90s01r1D           1204 	mov	dptr,#(_modulus + 0x001d)
   06B1 74 5D              1205 	mov	a,#0x5D
   06B3 F0                 1206 	movx	@dptr,a
   06B4 90s01r1E           1207 	mov	dptr,#(_modulus + 0x001e)
   06B7 74 8F              1208 	mov	a,#0x8F
   06B9 F0                 1209 	movx	@dptr,a
   06BA 90s01r1F           1210 	mov	dptr,#(_modulus + 0x001f)
   06BD 74 4C              1211 	mov	a,#0x4C
   06BF F0                 1212 	movx	@dptr,a
   06C0 90s01r20           1213 	mov	dptr,#(_modulus + 0x0020)
   06C3 74 33              1214 	mov	a,#0x33
   06C5 F0                 1215 	movx	@dptr,a
   06C6 90s01r21           1216 	mov	dptr,#(_modulus + 0x0021)
   06C9 74 84              1217 	mov	a,#0x84
   06CB F0                 1218 	movx	@dptr,a
   06CC 90s01r22           1219 	mov	dptr,#(_modulus + 0x0022)
   06CF 74 70              1220 	mov	a,#0x70
   06D1 F0                 1221 	movx	@dptr,a
   06D2 90s01r23           1222 	mov	dptr,#(_modulus + 0x0023)
   06D5 74 BB              1223 	mov	a,#0xBB
   06D7 F0                 1224 	movx	@dptr,a
   06D8 90s01r24           1225 	mov	dptr,#(_modulus + 0x0024)
   06DB 74 0B              1226 	mov	a,#0x0B
   06DD F0                 1227 	movx	@dptr,a
   06DE 90s01r25           1228 	mov	dptr,#(_modulus + 0x0025)
   06E1 74 A4              1229 	mov	a,#0xA4
   06E3 F0                 1230 	movx	@dptr,a
   06E4 90s01r26           1231 	mov	dptr,#(_modulus + 0x0026)
   06E7 74 AC              1232 	mov	a,#0xAC
   06E9 F0                 1233 	movx	@dptr,a
   06EA 90s01r27           1234 	mov	dptr,#(_modulus + 0x0027)
   06ED 74 87              1235 	mov	a,#0x87
   06EF F0                 1236 	movx	@dptr,a
   06F0 90s01r28           1237 	mov	dptr,#(_modulus + 0x0028)
   06F3 74 82              1238 	mov	a,#0x82
   06F5 F0                 1239 	movx	@dptr,a
   06F6 90s01r29           1240 	mov	dptr,#(_modulus + 0x0029)
   06F9 74 1D              1241 	mov	a,#0x1D
   06FB F0                 1242 	movx	@dptr,a
   06FC 90s01r2A           1243 	mov	dptr,#(_modulus + 0x002a)
   06FF 74 0D              1244 	mov	a,#0x0D
   0701 F0                 1245 	movx	@dptr,a
   0702 90s01r2B           1246 	mov	dptr,#(_modulus + 0x002b)
   0705 74 50              1247 	mov	a,#0x50
   0707 F0                 1248 	movx	@dptr,a
   0708 90s01r2C           1249 	mov	dptr,#(_modulus + 0x002c)
   070B 74 2D              1250 	mov	a,#0x2D
   070D F0                 1251 	movx	@dptr,a
   070E 90s01r2D           1252 	mov	dptr,#(_modulus + 0x002d)
   0711 74 45              1253 	mov	a,#0x45
   0713 F0                 1254 	movx	@dptr,a
   0714 90s01r2E           1255 	mov	dptr,#(_modulus + 0x002e)
   0717 74 F9              1256 	mov	a,#0xF9
   0719 F0                 1257 	movx	@dptr,a
   071A 90s01r2F           1258 	mov	dptr,#(_modulus + 0x002f)
   071D 74 F0              1259 	mov	a,#0xF0
   071F F0                 1260 	movx	@dptr,a
   0720 90s01r30           1261 	mov	dptr,#(_modulus + 0x0030)
   0723 74 11              1262 	mov	a,#0x11
   0725 F0                 1263 	movx	@dptr,a
   0726 90s01r31           1264 	mov	dptr,#(_modulus + 0x0031)
   0729 74 5B              1265 	mov	a,#0x5B
   072B F0                 1266 	movx	@dptr,a
   072C 90s01r32           1267 	mov	dptr,#(_modulus + 0x0032)
   072F 74 C8              1268 	mov	a,#0xC8
   0731 F0                 1269 	movx	@dptr,a
   0732 90s01r33           1270 	mov	dptr,#(_modulus + 0x0033)
   0735 74 F9              1271 	mov	a,#0xF9
   0737 F0                 1272 	movx	@dptr,a
   0738 90s01r34           1273 	mov	dptr,#(_modulus + 0x0034)
   073B 74 18              1274 	mov	a,#0x18
   073D F0                 1275 	movx	@dptr,a
   073E 90s01r35           1276 	mov	dptr,#(_modulus + 0x0035)
   0741 74 FB              1277 	mov	a,#0xFB
   0743 F0                 1278 	movx	@dptr,a
   0744 90s01r36           1279 	mov	dptr,#(_modulus + 0x0036)
   0747 74 D3              1280 	mov	a,#0xD3
   0749 F0                 1281 	movx	@dptr,a
   074A 90s01r37           1282 	mov	dptr,#(_modulus + 0x0037)
   074D 74 6F              1283 	mov	a,#0x6F
   074F F0                 1284 	movx	@dptr,a
   0750 90s01r38           1285 	mov	dptr,#(_modulus + 0x0038)
   0753 74 C3              1286 	mov	a,#0xC3
   0755 F0                 1287 	movx	@dptr,a
   0756 90s01r39           1288 	mov	dptr,#(_modulus + 0x0039)
   0759 74 74              1289 	mov	a,#0x74
   075B F0                 1290 	movx	@dptr,a
   075C 90s01r3A           1291 	mov	dptr,#(_modulus + 0x003a)
   075F 74 02              1292 	mov	a,#0x02
   0761 F0                 1293 	movx	@dptr,a
   0762 90s01r3B           1294 	mov	dptr,#(_modulus + 0x003b)
   0765 74 AB              1295 	mov	a,#0xAB
   0767 F0                 1296 	movx	@dptr,a
   0768 90s01r3C           1297 	mov	dptr,#(_modulus + 0x003c)
   076B 74 32              1298 	mov	a,#0x32
   076D F0                 1299 	movx	@dptr,a
   076E 90s01r3D           1300 	mov	dptr,#(_modulus + 0x003d)
   0771 74 46              1301 	mov	a,#0x46
   0773 F0                 1302 	movx	@dptr,a
   0774 90s01r3E           1303 	mov	dptr,#(_modulus + 0x003e)
   0777 74 6B              1304 	mov	a,#0x6B
   0779 F0                 1305 	movx	@dptr,a
   077A 90s01r3F           1306 	mov	dptr,#(_modulus + 0x003f)
   077D 74 52              1307 	mov	a,#0x52
   077F F0                 1308 	movx	@dptr,a
   0780 90s01r40           1309 	mov	dptr,#(_modulus + 0x0040)
   0783 74 9B              1310 	mov	a,#0x9B
   0785 F0                 1311 	movx	@dptr,a
   0786 90s01r41           1312 	mov	dptr,#(_modulus + 0x0041)
   0789 74 71              1313 	mov	a,#0x71
   078B F0                 1314 	movx	@dptr,a
   078C 90s01r42           1315 	mov	dptr,#(_modulus + 0x0042)
   078F 74 D9              1316 	mov	a,#0xD9
   0791 F0                 1317 	movx	@dptr,a
   0792 90s01r43           1318 	mov	dptr,#(_modulus + 0x0043)
   0795 74 21              1319 	mov	a,#0x21
   0797 F0                 1320 	movx	@dptr,a
   0798 90s01r44           1321 	mov	dptr,#(_modulus + 0x0044)
   079B 74 73              1322 	mov	a,#0x73
   079D F0                 1323 	movx	@dptr,a
   079E 90s01r45           1324 	mov	dptr,#(_modulus + 0x0045)
   07A1 74 3A              1325 	mov	a,#0x3A
   07A3 F0                 1326 	movx	@dptr,a
   07A4 90s01r46           1327 	mov	dptr,#(_modulus + 0x0046)
   07A7 74 CC              1328 	mov	a,#0xCC
   07A9 F0                 1329 	movx	@dptr,a
   07AA 90s01r47           1330 	mov	dptr,#(_modulus + 0x0047)
   07AD 74 6D              1331 	mov	a,#0x6D
   07AF F0                 1332 	movx	@dptr,a
   07B0 90s01r48           1333 	mov	dptr,#(_modulus + 0x0048)
   07B3 74 DB              1334 	mov	a,#0xDB
   07B5 F0                 1335 	movx	@dptr,a
   07B6 90s01r49           1336 	mov	dptr,#(_modulus + 0x0049)
   07B9 74 10              1337 	mov	a,#0x10
   07BB F0                 1338 	movx	@dptr,a
   07BC 90s01r4A           1339 	mov	dptr,#(_modulus + 0x004a)
   07BF 74 89              1340 	mov	a,#0x89
   07C1 F0                 1341 	movx	@dptr,a
   07C2 90s01r4B           1342 	mov	dptr,#(_modulus + 0x004b)
   07C5 74 CB              1343 	mov	a,#0xCB
   07C7 F0                 1344 	movx	@dptr,a
   07C8 90s01r4C           1345 	mov	dptr,#(_modulus + 0x004c)
   07CB 74 3B              1346 	mov	a,#0x3B
   07CD F0                 1347 	movx	@dptr,a
   07CE 90s01r4D           1348 	mov	dptr,#(_modulus + 0x004d)
   07D1 74 47              1349 	mov	a,#0x47
   07D3 F0                 1350 	movx	@dptr,a
   07D4 90s01r4E           1351 	mov	dptr,#(_modulus + 0x004e)
   07D7 74 13              1352 	mov	a,#0x13
   07D9 F0                 1353 	movx	@dptr,a
   07DA 90s01r4F           1354 	mov	dptr,#(_modulus + 0x004f)
   07DD 74 0E              1355 	mov	a,#0x0E
   07DF F0                 1356 	movx	@dptr,a
   07E0 90s01r50           1357 	mov	dptr,#(_modulus + 0x0050)
   07E3 74 65              1358 	mov	a,#0x65
   07E5 F0                 1359 	movx	@dptr,a
   07E6 90s01r51           1360 	mov	dptr,#(_modulus + 0x0051)
   07E9 74 86              1361 	mov	a,#0x86
   07EB F0                 1362 	movx	@dptr,a
   07EC 90s01r52           1363 	mov	dptr,#(_modulus + 0x0052)
   07EF 74 9E              1364 	mov	a,#0x9E
   07F1 F0                 1365 	movx	@dptr,a
   07F2 90s01r53           1366 	mov	dptr,#(_modulus + 0x0053)
   07F5 74 7F              1367 	mov	a,#0x7F
   07F7 F0                 1368 	movx	@dptr,a
   07F8 90s01r54           1369 	mov	dptr,#(_modulus + 0x0054)
   07FB 74 3E              1370 	mov	a,#0x3E
   07FD F0                 1371 	movx	@dptr,a
   07FE 90s01r55           1372 	mov	dptr,#(_modulus + 0x0055)
   0801 74 43              1373 	mov	a,#0x43
   0803 F0                 1374 	movx	@dptr,a
   0804 90s01r56           1375 	mov	dptr,#(_modulus + 0x0056)
   0807 74 92              1376 	mov	a,#0x92
   0809 F0                 1377 	movx	@dptr,a
   080A 90s01r57           1378 	mov	dptr,#(_modulus + 0x0057)
   080D 74 FC              1379 	mov	a,#0xFC
   080F F0                 1380 	movx	@dptr,a
   0810 90s01r58           1381 	mov	dptr,#(_modulus + 0x0058)
   0813 74 B6              1382 	mov	a,#0xB6
   0815 F0                 1383 	movx	@dptr,a
   0816 90s01r59           1384 	mov	dptr,#(_modulus + 0x0059)
   0819 74 6A              1385 	mov	a,#0x6A
   081B F0                 1386 	movx	@dptr,a
   081C 90s01r5A           1387 	mov	dptr,#(_modulus + 0x005a)
   081F 74 6B              1388 	mov	a,#0x6B
   0821 F0                 1389 	movx	@dptr,a
   0822 90s01r5B           1390 	mov	dptr,#(_modulus + 0x005b)
   0825 74 37              1391 	mov	a,#0x37
   0827 F0                 1392 	movx	@dptr,a
   0828 90s01r5C           1393 	mov	dptr,#(_modulus + 0x005c)
   082B 74 90              1394 	mov	a,#0x90
   082D F0                 1395 	movx	@dptr,a
   082E 90s01r5D           1396 	mov	dptr,#(_modulus + 0x005d)
   0831 74 EB              1397 	mov	a,#0xEB
   0833 F0                 1398 	movx	@dptr,a
   0834 90s01r5E           1399 	mov	dptr,#(_modulus + 0x005e)
   0837 74 4F              1400 	mov	a,#0x4F
   0839 F0                 1401 	movx	@dptr,a
   083A 90s01r5F           1402 	mov	dptr,#(_modulus + 0x005f)
   083D 74 E9              1403 	mov	a,#0xE9
   083F F0                 1404 	movx	@dptr,a
   0840 90s01r60           1405 	mov	dptr,#(_modulus + 0x0060)
   0843 74 EB              1406 	mov	a,#0xEB
   0845 F0                 1407 	movx	@dptr,a
   0846 90s01r61           1408 	mov	dptr,#(_modulus + 0x0061)
   0849 74 9C              1409 	mov	a,#0x9C
   084B F0                 1410 	movx	@dptr,a
   084C 90s01r62           1411 	mov	dptr,#(_modulus + 0x0062)
   084F 74 2F              1412 	mov	a,#0x2F
   0851 F0                 1413 	movx	@dptr,a
   0852 90s01r63           1414 	mov	dptr,#(_modulus + 0x0063)
   0855 74 6B              1415 	mov	a,#0x6B
   0857 F0                 1416 	movx	@dptr,a
   0858 90s01r64           1417 	mov	dptr,#(_modulus + 0x0064)
   085B 74 26              1418 	mov	a,#0x26
   085D F0                 1419 	movx	@dptr,a
   085E 90s01r65           1420 	mov	dptr,#(_modulus + 0x0065)
   0861 74 EF              1421 	mov	a,#0xEF
   0863 F0                 1422 	movx	@dptr,a
   0864 90s01r66           1423 	mov	dptr,#(_modulus + 0x0066)
   0867 74 B4              1424 	mov	a,#0xB4
   0869 F0                 1425 	movx	@dptr,a
   086A 90s01r67           1426 	mov	dptr,#(_modulus + 0x0067)
   086D 74 BB              1427 	mov	a,#0xBB
   086F F0                 1428 	movx	@dptr,a
   0870 90s01r68           1429 	mov	dptr,#(_modulus + 0x0068)
   0873 74 FC              1430 	mov	a,#0xFC
   0875 F0                 1431 	movx	@dptr,a
   0876 90s01r69           1432 	mov	dptr,#(_modulus + 0x0069)
   0879 74 3D              1433 	mov	a,#0x3D
   087B F0                 1434 	movx	@dptr,a
   087C 90s01r6A           1435 	mov	dptr,#(_modulus + 0x006a)
   087F 74 33              1436 	mov	a,#0x33
   0881 F0                 1437 	movx	@dptr,a
   0882 90s01r6B           1438 	mov	dptr,#(_modulus + 0x006b)
   0885 74 FB              1439 	mov	a,#0xFB
   0887 F0                 1440 	movx	@dptr,a
   0888 90s01r6C           1441 	mov	dptr,#(_modulus + 0x006c)
   088B 74 97              1442 	mov	a,#0x97
   088D F0                 1443 	movx	@dptr,a
   088E 90s01r6D           1444 	mov	dptr,#(_modulus + 0x006d)
   0891 74 67              1445 	mov	a,#0x67
   0893 F0                 1446 	movx	@dptr,a
   0894 90s01r6E           1447 	mov	dptr,#(_modulus + 0x006e)
   0897 74 93              1448 	mov	a,#0x93
   0899 F0                 1449 	movx	@dptr,a
   089A 90s01r6F           1450 	mov	dptr,#(_modulus + 0x006f)
   089D 74 26              1451 	mov	a,#0x26
   089F F0                 1452 	movx	@dptr,a
   08A0 90s01r70           1453 	mov	dptr,#(_modulus + 0x0070)
   08A3 74 96              1454 	mov	a,#0x96
   08A5 F0                 1455 	movx	@dptr,a
   08A6 90s01r71           1456 	mov	dptr,#(_modulus + 0x0071)
   08A9 74 38              1457 	mov	a,#0x38
   08AB F0                 1458 	movx	@dptr,a
   08AC 90s01r72           1459 	mov	dptr,#(_modulus + 0x0072)
   08AF 74 E5              1460 	mov	a,#0xE5
   08B1 F0                 1461 	movx	@dptr,a
   08B2 90s01r73           1462 	mov	dptr,#(_modulus + 0x0073)
   08B5 74 F0              1463 	mov	a,#0xF0
   08B7 F0                 1464 	movx	@dptr,a
   08B8 90s01r74           1465 	mov	dptr,#(_modulus + 0x0074)
   08BB 74 3A              1466 	mov	a,#0x3A
   08BD F0                 1467 	movx	@dptr,a
   08BE 90s01r75           1468 	mov	dptr,#(_modulus + 0x0075)
   08C1 74 C6              1469 	mov	a,#0xC6
   08C3 F0                 1470 	movx	@dptr,a
   08C4 90s01r76           1471 	mov	dptr,#(_modulus + 0x0076)
   08C7 74 A3              1472 	mov	a,#0xA3
   08C9 F0                 1473 	movx	@dptr,a
   08CA 90s01r77           1474 	mov	dptr,#(_modulus + 0x0077)
   08CD 74 95              1475 	mov	a,#0x95
   08CF F0                 1476 	movx	@dptr,a
   08D0 90s01r78           1477 	mov	dptr,#(_modulus + 0x0078)
   08D3 74 A5              1478 	mov	a,#0xA5
   08D5 F0                 1479 	movx	@dptr,a
   08D6 90s01r79           1480 	mov	dptr,#(_modulus + 0x0079)
   08D9 74 98              1481 	mov	a,#0x98
   08DB F0                 1482 	movx	@dptr,a
   08DC 90s01r7A           1483 	mov	dptr,#(_modulus + 0x007a)
   08DF 74 F4              1484 	mov	a,#0xF4
   08E1 F0                 1485 	movx	@dptr,a
   08E2 90s01r7B           1486 	mov	dptr,#(_modulus + 0x007b)
   08E5 74 B8              1487 	mov	a,#0xB8
   08E7 F0                 1488 	movx	@dptr,a
   08E8 90s01r7C           1489 	mov	dptr,#(_modulus + 0x007c)
   08EB 74 0B              1490 	mov	a,#0x0B
   08ED F0                 1491 	movx	@dptr,a
   08EE 90s01r7D           1492 	mov	dptr,#(_modulus + 0x007d)
   08F1 74 88              1493 	mov	a,#0x88
   08F3 F0                 1494 	movx	@dptr,a
   08F4 90s01r7E           1495 	mov	dptr,#(_modulus + 0x007e)
   08F7 74 E1              1496 	mov	a,#0xE1
   08F9 F0                 1497 	movx	@dptr,a
   08FA 90s01r7F           1498 	mov	dptr,#(_modulus + 0x007f)
   08FD 74 D4              1499 	mov	a,#0xD4
   08FF F0                 1500 	movx	@dptr,a
                           1501 ;	main.c:9: volatile __xdata __at (0x0180) unsigned char message[SIZE] = {0x89,0x15,0x30,0x41,0x3E,0x7F,0xEF,0x15,0xE4,0x59,0x32,0xAF,0xB2,0x6D,0x61,0x15,0xAC,0x53,0x86,0xBA,0xCB,0xC2,0xCE,0x20,0xDB,0x5B,0xE6,0xEE,0xD5,0x02,0x8C,0xEA,0xD5,0x70,0x0C,0xBC,0x50,0xBD,0xC2,0x7A,0x07,0xF6,0xBB,0x3C,0x00,0x38,0x06,0x24,0x70,0x95,0xE1,0x72,0x5B,0xDC,0xD6,0xCE,0x2D,0x16,0x91,0x45,0xBE,0xAE,0x08,0x7C,0x64,0xD8,0xF1,0xA0,0xB2,0x93,0x82,0x2D,0xF5,0xE0,0xC5,0x83,0xB3,0x1B,0xB2,0x02,0x03,0x08,0x9E,0x01,0x16,0x5B,0x49,0xA9,0x4D,0x82,0xC6,0x2E,0x15,0x88,0x5C,0xDD,0x2F,0x39,0xB1,0x5B,0xBA,0x4C,0x2A,0x9C,0x84,0xE2,0xAD,0xB0,0xB3,0xF5,0xD7,0x47,0xC0,0x24,0x6F,0xFB,0xA3,0x41,0xF4,0x53,0x2D,0xC5,0x8E,0x65,0x89,0xDF,0xCE,0xB9};
   0900 90s01r80           1502 	mov	dptr,#_message
   0903 74 89              1503 	mov	a,#0x89
   0905 F0                 1504 	movx	@dptr,a
   0906 90s01r81           1505 	mov	dptr,#(_message + 0x0001)
   0909 74 15              1506 	mov	a,#0x15
   090B F0                 1507 	movx	@dptr,a
   090C 90s01r82           1508 	mov	dptr,#(_message + 0x0002)
   090F 74 30              1509 	mov	a,#0x30
   0911 F0                 1510 	movx	@dptr,a
   0912 90s01r83           1511 	mov	dptr,#(_message + 0x0003)
   0915 74 41              1512 	mov	a,#0x41
   0917 F0                 1513 	movx	@dptr,a
   0918 90s01r84           1514 	mov	dptr,#(_message + 0x0004)
   091B 74 3E              1515 	mov	a,#0x3E
   091D F0                 1516 	movx	@dptr,a
   091E 90s01r85           1517 	mov	dptr,#(_message + 0x0005)
   0921 74 7F              1518 	mov	a,#0x7F
   0923 F0                 1519 	movx	@dptr,a
   0924 90s01r86           1520 	mov	dptr,#(_message + 0x0006)
   0927 74 EF              1521 	mov	a,#0xEF
   0929 F0                 1522 	movx	@dptr,a
   092A 90s01r87           1523 	mov	dptr,#(_message + 0x0007)
   092D 74 15              1524 	mov	a,#0x15
   092F F0                 1525 	movx	@dptr,a
   0930 90s01r88           1526 	mov	dptr,#(_message + 0x0008)
   0933 74 E4              1527 	mov	a,#0xE4
   0935 F0                 1528 	movx	@dptr,a
   0936 90s01r89           1529 	mov	dptr,#(_message + 0x0009)
   0939 74 59              1530 	mov	a,#0x59
   093B F0                 1531 	movx	@dptr,a
   093C 90s01r8A           1532 	mov	dptr,#(_message + 0x000a)
   093F 74 32              1533 	mov	a,#0x32
   0941 F0                 1534 	movx	@dptr,a
   0942 90s01r8B           1535 	mov	dptr,#(_message + 0x000b)
   0945 74 AF              1536 	mov	a,#0xAF
   0947 F0                 1537 	movx	@dptr,a
   0948 90s01r8C           1538 	mov	dptr,#(_message + 0x000c)
   094B 74 B2              1539 	mov	a,#0xB2
   094D F0                 1540 	movx	@dptr,a
   094E 90s01r8D           1541 	mov	dptr,#(_message + 0x000d)
   0951 74 6D              1542 	mov	a,#0x6D
   0953 F0                 1543 	movx	@dptr,a
   0954 90s01r8E           1544 	mov	dptr,#(_message + 0x000e)
   0957 74 61              1545 	mov	a,#0x61
   0959 F0                 1546 	movx	@dptr,a
   095A 90s01r8F           1547 	mov	dptr,#(_message + 0x000f)
   095D 74 15              1548 	mov	a,#0x15
   095F F0                 1549 	movx	@dptr,a
   0960 90s01r90           1550 	mov	dptr,#(_message + 0x0010)
   0963 74 AC              1551 	mov	a,#0xAC
   0965 F0                 1552 	movx	@dptr,a
   0966 90s01r91           1553 	mov	dptr,#(_message + 0x0011)
   0969 74 53              1554 	mov	a,#0x53
   096B F0                 1555 	movx	@dptr,a
   096C 90s01r92           1556 	mov	dptr,#(_message + 0x0012)
   096F 74 86              1557 	mov	a,#0x86
   0971 F0                 1558 	movx	@dptr,a
   0972 90s01r93           1559 	mov	dptr,#(_message + 0x0013)
   0975 74 BA              1560 	mov	a,#0xBA
   0977 F0                 1561 	movx	@dptr,a
   0978 90s01r94           1562 	mov	dptr,#(_message + 0x0014)
   097B 74 CB              1563 	mov	a,#0xCB
   097D F0                 1564 	movx	@dptr,a
   097E 90s01r95           1565 	mov	dptr,#(_message + 0x0015)
   0981 74 C2              1566 	mov	a,#0xC2
   0983 F0                 1567 	movx	@dptr,a
   0984 90s01r96           1568 	mov	dptr,#(_message + 0x0016)
   0987 74 CE              1569 	mov	a,#0xCE
   0989 F0                 1570 	movx	@dptr,a
   098A 90s01r97           1571 	mov	dptr,#(_message + 0x0017)
   098D 74 20              1572 	mov	a,#0x20
   098F F0                 1573 	movx	@dptr,a
   0990 90s01r98           1574 	mov	dptr,#(_message + 0x0018)
   0993 74 DB              1575 	mov	a,#0xDB
   0995 F0                 1576 	movx	@dptr,a
   0996 90s01r99           1577 	mov	dptr,#(_message + 0x0019)
   0999 74 5B              1578 	mov	a,#0x5B
   099B F0                 1579 	movx	@dptr,a
   099C 90s01r9A           1580 	mov	dptr,#(_message + 0x001a)
   099F 74 E6              1581 	mov	a,#0xE6
   09A1 F0                 1582 	movx	@dptr,a
   09A2 90s01r9B           1583 	mov	dptr,#(_message + 0x001b)
   09A5 74 EE              1584 	mov	a,#0xEE
   09A7 F0                 1585 	movx	@dptr,a
   09A8 90s01r9C           1586 	mov	dptr,#(_message + 0x001c)
   09AB 74 D5              1587 	mov	a,#0xD5
   09AD F0                 1588 	movx	@dptr,a
   09AE 90s01r9D           1589 	mov	dptr,#(_message + 0x001d)
   09B1 74 02              1590 	mov	a,#0x02
   09B3 F0                 1591 	movx	@dptr,a
   09B4 90s01r9E           1592 	mov	dptr,#(_message + 0x001e)
   09B7 74 8C              1593 	mov	a,#0x8C
   09B9 F0                 1594 	movx	@dptr,a
   09BA 90s01r9F           1595 	mov	dptr,#(_message + 0x001f)
   09BD 74 EA              1596 	mov	a,#0xEA
   09BF F0                 1597 	movx	@dptr,a
   09C0 90s01rA0           1598 	mov	dptr,#(_message + 0x0020)
   09C3 74 D5              1599 	mov	a,#0xD5
   09C5 F0                 1600 	movx	@dptr,a
   09C6 90s01rA1           1601 	mov	dptr,#(_message + 0x0021)
   09C9 74 70              1602 	mov	a,#0x70
   09CB F0                 1603 	movx	@dptr,a
   09CC 90s01rA2           1604 	mov	dptr,#(_message + 0x0022)
   09CF 74 0C              1605 	mov	a,#0x0C
   09D1 F0                 1606 	movx	@dptr,a
   09D2 90s01rA3           1607 	mov	dptr,#(_message + 0x0023)
   09D5 74 BC              1608 	mov	a,#0xBC
   09D7 F0                 1609 	movx	@dptr,a
   09D8 90s01rA4           1610 	mov	dptr,#(_message + 0x0024)
   09DB 74 50              1611 	mov	a,#0x50
   09DD F0                 1612 	movx	@dptr,a
   09DE 90s01rA5           1613 	mov	dptr,#(_message + 0x0025)
   09E1 74 BD              1614 	mov	a,#0xBD
   09E3 F0                 1615 	movx	@dptr,a
   09E4 90s01rA6           1616 	mov	dptr,#(_message + 0x0026)
   09E7 74 C2              1617 	mov	a,#0xC2
   09E9 F0                 1618 	movx	@dptr,a
   09EA 90s01rA7           1619 	mov	dptr,#(_message + 0x0027)
   09ED 74 7A              1620 	mov	a,#0x7A
   09EF F0                 1621 	movx	@dptr,a
   09F0 90s01rA8           1622 	mov	dptr,#(_message + 0x0028)
   09F3 74 07              1623 	mov	a,#0x07
   09F5 F0                 1624 	movx	@dptr,a
   09F6 90s01rA9           1625 	mov	dptr,#(_message + 0x0029)
   09F9 74 F6              1626 	mov	a,#0xF6
   09FB F0                 1627 	movx	@dptr,a
   09FC 90s01rAA           1628 	mov	dptr,#(_message + 0x002a)
   09FF 74 BB              1629 	mov	a,#0xBB
   0A01 F0                 1630 	movx	@dptr,a
   0A02 90s01rAB           1631 	mov	dptr,#(_message + 0x002b)
   0A05 74 3C              1632 	mov	a,#0x3C
   0A07 F0                 1633 	movx	@dptr,a
   0A08 90s01rAC           1634 	mov	dptr,#(_message + 0x002c)
   0A0B E4                 1635 	clr	a
   0A0C F0                 1636 	movx	@dptr,a
   0A0D 90s01rAD           1637 	mov	dptr,#(_message + 0x002d)
   0A10 74 38              1638 	mov	a,#0x38
   0A12 F0                 1639 	movx	@dptr,a
   0A13 90s01rAE           1640 	mov	dptr,#(_message + 0x002e)
   0A16 74 06              1641 	mov	a,#0x06
   0A18 F0                 1642 	movx	@dptr,a
   0A19 90s01rAF           1643 	mov	dptr,#(_message + 0x002f)
   0A1C 74 24              1644 	mov	a,#0x24
   0A1E F0                 1645 	movx	@dptr,a
   0A1F 90s01rB0           1646 	mov	dptr,#(_message + 0x0030)
   0A22 74 70              1647 	mov	a,#0x70
   0A24 F0                 1648 	movx	@dptr,a
   0A25 90s01rB1           1649 	mov	dptr,#(_message + 0x0031)
   0A28 74 95              1650 	mov	a,#0x95
   0A2A F0                 1651 	movx	@dptr,a
   0A2B 90s01rB2           1652 	mov	dptr,#(_message + 0x0032)
   0A2E 74 E1              1653 	mov	a,#0xE1
   0A30 F0                 1654 	movx	@dptr,a
   0A31 90s01rB3           1655 	mov	dptr,#(_message + 0x0033)
   0A34 74 72              1656 	mov	a,#0x72
   0A36 F0                 1657 	movx	@dptr,a
   0A37 90s01rB4           1658 	mov	dptr,#(_message + 0x0034)
   0A3A 74 5B              1659 	mov	a,#0x5B
   0A3C F0                 1660 	movx	@dptr,a
   0A3D 90s01rB5           1661 	mov	dptr,#(_message + 0x0035)
   0A40 74 DC              1662 	mov	a,#0xDC
   0A42 F0                 1663 	movx	@dptr,a
   0A43 90s01rB6           1664 	mov	dptr,#(_message + 0x0036)
   0A46 74 D6              1665 	mov	a,#0xD6
   0A48 F0                 1666 	movx	@dptr,a
   0A49 90s01rB7           1667 	mov	dptr,#(_message + 0x0037)
   0A4C 74 CE              1668 	mov	a,#0xCE
   0A4E F0                 1669 	movx	@dptr,a
   0A4F 90s01rB8           1670 	mov	dptr,#(_message + 0x0038)
   0A52 74 2D              1671 	mov	a,#0x2D
   0A54 F0                 1672 	movx	@dptr,a
   0A55 90s01rB9           1673 	mov	dptr,#(_message + 0x0039)
   0A58 74 16              1674 	mov	a,#0x16
   0A5A F0                 1675 	movx	@dptr,a
   0A5B 90s01rBA           1676 	mov	dptr,#(_message + 0x003a)
   0A5E 74 91              1677 	mov	a,#0x91
   0A60 F0                 1678 	movx	@dptr,a
   0A61 90s01rBB           1679 	mov	dptr,#(_message + 0x003b)
   0A64 74 45              1680 	mov	a,#0x45
   0A66 F0                 1681 	movx	@dptr,a
   0A67 90s01rBC           1682 	mov	dptr,#(_message + 0x003c)
   0A6A 74 BE              1683 	mov	a,#0xBE
   0A6C F0                 1684 	movx	@dptr,a
   0A6D 90s01rBD           1685 	mov	dptr,#(_message + 0x003d)
   0A70 74 AE              1686 	mov	a,#0xAE
   0A72 F0                 1687 	movx	@dptr,a
   0A73 90s01rBE           1688 	mov	dptr,#(_message + 0x003e)
   0A76 74 08              1689 	mov	a,#0x08
   0A78 F0                 1690 	movx	@dptr,a
   0A79 90s01rBF           1691 	mov	dptr,#(_message + 0x003f)
   0A7C 74 7C              1692 	mov	a,#0x7C
   0A7E F0                 1693 	movx	@dptr,a
   0A7F 90s01rC0           1694 	mov	dptr,#(_message + 0x0040)
   0A82 74 64              1695 	mov	a,#0x64
   0A84 F0                 1696 	movx	@dptr,a
   0A85 90s01rC1           1697 	mov	dptr,#(_message + 0x0041)
   0A88 74 D8              1698 	mov	a,#0xD8
   0A8A F0                 1699 	movx	@dptr,a
   0A8B 90s01rC2           1700 	mov	dptr,#(_message + 0x0042)
   0A8E 74 F1              1701 	mov	a,#0xF1
   0A90 F0                 1702 	movx	@dptr,a
   0A91 90s01rC3           1703 	mov	dptr,#(_message + 0x0043)
   0A94 74 A0              1704 	mov	a,#0xA0
   0A96 F0                 1705 	movx	@dptr,a
   0A97 90s01rC4           1706 	mov	dptr,#(_message + 0x0044)
   0A9A 74 B2              1707 	mov	a,#0xB2
   0A9C F0                 1708 	movx	@dptr,a
   0A9D 90s01rC5           1709 	mov	dptr,#(_message + 0x0045)
   0AA0 74 93              1710 	mov	a,#0x93
   0AA2 F0                 1711 	movx	@dptr,a
   0AA3 90s01rC6           1712 	mov	dptr,#(_message + 0x0046)
   0AA6 74 82              1713 	mov	a,#0x82
   0AA8 F0                 1714 	movx	@dptr,a
   0AA9 90s01rC7           1715 	mov	dptr,#(_message + 0x0047)
   0AAC 74 2D              1716 	mov	a,#0x2D
   0AAE F0                 1717 	movx	@dptr,a
   0AAF 90s01rC8           1718 	mov	dptr,#(_message + 0x0048)
   0AB2 74 F5              1719 	mov	a,#0xF5
   0AB4 F0                 1720 	movx	@dptr,a
   0AB5 90s01rC9           1721 	mov	dptr,#(_message + 0x0049)
   0AB8 74 E0              1722 	mov	a,#0xE0
   0ABA F0                 1723 	movx	@dptr,a
   0ABB 90s01rCA           1724 	mov	dptr,#(_message + 0x004a)
   0ABE 74 C5              1725 	mov	a,#0xC5
   0AC0 F0                 1726 	movx	@dptr,a
   0AC1 90s01rCB           1727 	mov	dptr,#(_message + 0x004b)
   0AC4 74 83              1728 	mov	a,#0x83
   0AC6 F0                 1729 	movx	@dptr,a
   0AC7 90s01rCC           1730 	mov	dptr,#(_message + 0x004c)
   0ACA 74 B3              1731 	mov	a,#0xB3
   0ACC F0                 1732 	movx	@dptr,a
   0ACD 90s01rCD           1733 	mov	dptr,#(_message + 0x004d)
   0AD0 74 1B              1734 	mov	a,#0x1B
   0AD2 F0                 1735 	movx	@dptr,a
   0AD3 90s01rCE           1736 	mov	dptr,#(_message + 0x004e)
   0AD6 74 B2              1737 	mov	a,#0xB2
   0AD8 F0                 1738 	movx	@dptr,a
   0AD9 90s01rCF           1739 	mov	dptr,#(_message + 0x004f)
   0ADC 74 02              1740 	mov	a,#0x02
   0ADE F0                 1741 	movx	@dptr,a
   0ADF 90s01rD0           1742 	mov	dptr,#(_message + 0x0050)
   0AE2 74 03              1743 	mov	a,#0x03
   0AE4 F0                 1744 	movx	@dptr,a
   0AE5 90s01rD1           1745 	mov	dptr,#(_message + 0x0051)
   0AE8 74 08              1746 	mov	a,#0x08
   0AEA F0                 1747 	movx	@dptr,a
   0AEB 90s01rD2           1748 	mov	dptr,#(_message + 0x0052)
   0AEE 74 9E              1749 	mov	a,#0x9E
   0AF0 F0                 1750 	movx	@dptr,a
   0AF1 90s01rD3           1751 	mov	dptr,#(_message + 0x0053)
   0AF4 74 01              1752 	mov	a,#0x01
   0AF6 F0                 1753 	movx	@dptr,a
   0AF7 90s01rD4           1754 	mov	dptr,#(_message + 0x0054)
   0AFA 74 16              1755 	mov	a,#0x16
   0AFC F0                 1756 	movx	@dptr,a
   0AFD 90s01rD5           1757 	mov	dptr,#(_message + 0x0055)
   0B00 74 5B              1758 	mov	a,#0x5B
   0B02 F0                 1759 	movx	@dptr,a
   0B03 90s01rD6           1760 	mov	dptr,#(_message + 0x0056)
   0B06 74 49              1761 	mov	a,#0x49
   0B08 F0                 1762 	movx	@dptr,a
   0B09 90s01rD7           1763 	mov	dptr,#(_message + 0x0057)
   0B0C 74 A9              1764 	mov	a,#0xA9
   0B0E F0                 1765 	movx	@dptr,a
   0B0F 90s01rD8           1766 	mov	dptr,#(_message + 0x0058)
   0B12 74 4D              1767 	mov	a,#0x4D
   0B14 F0                 1768 	movx	@dptr,a
   0B15 90s01rD9           1769 	mov	dptr,#(_message + 0x0059)
   0B18 74 82              1770 	mov	a,#0x82
   0B1A F0                 1771 	movx	@dptr,a
   0B1B 90s01rDA           1772 	mov	dptr,#(_message + 0x005a)
   0B1E 74 C6              1773 	mov	a,#0xC6
   0B20 F0                 1774 	movx	@dptr,a
   0B21 90s01rDB           1775 	mov	dptr,#(_message + 0x005b)
   0B24 74 2E              1776 	mov	a,#0x2E
   0B26 F0                 1777 	movx	@dptr,a
   0B27 90s01rDC           1778 	mov	dptr,#(_message + 0x005c)
   0B2A 74 15              1779 	mov	a,#0x15
   0B2C F0                 1780 	movx	@dptr,a
   0B2D 90s01rDD           1781 	mov	dptr,#(_message + 0x005d)
   0B30 74 88              1782 	mov	a,#0x88
   0B32 F0                 1783 	movx	@dptr,a
   0B33 90s01rDE           1784 	mov	dptr,#(_message + 0x005e)
   0B36 74 5C              1785 	mov	a,#0x5C
   0B38 F0                 1786 	movx	@dptr,a
   0B39 90s01rDF           1787 	mov	dptr,#(_message + 0x005f)
   0B3C 74 DD              1788 	mov	a,#0xDD
   0B3E F0                 1789 	movx	@dptr,a
   0B3F 90s01rE0           1790 	mov	dptr,#(_message + 0x0060)
   0B42 74 2F              1791 	mov	a,#0x2F
   0B44 F0                 1792 	movx	@dptr,a
   0B45 90s01rE1           1793 	mov	dptr,#(_message + 0x0061)
   0B48 74 39              1794 	mov	a,#0x39
   0B4A F0                 1795 	movx	@dptr,a
   0B4B 90s01rE2           1796 	mov	dptr,#(_message + 0x0062)
   0B4E 74 B1              1797 	mov	a,#0xB1
   0B50 F0                 1798 	movx	@dptr,a
   0B51 90s01rE3           1799 	mov	dptr,#(_message + 0x0063)
   0B54 74 5B              1800 	mov	a,#0x5B
   0B56 F0                 1801 	movx	@dptr,a
   0B57 90s01rE4           1802 	mov	dptr,#(_message + 0x0064)
   0B5A 74 BA              1803 	mov	a,#0xBA
   0B5C F0                 1804 	movx	@dptr,a
   0B5D 90s01rE5           1805 	mov	dptr,#(_message + 0x0065)
   0B60 74 4C              1806 	mov	a,#0x4C
   0B62 F0                 1807 	movx	@dptr,a
   0B63 90s01rE6           1808 	mov	dptr,#(_message + 0x0066)
   0B66 74 2A              1809 	mov	a,#0x2A
   0B68 F0                 1810 	movx	@dptr,a
   0B69 90s01rE7           1811 	mov	dptr,#(_message + 0x0067)
   0B6C 74 9C              1812 	mov	a,#0x9C
   0B6E F0                 1813 	movx	@dptr,a
   0B6F 90s01rE8           1814 	mov	dptr,#(_message + 0x0068)
   0B72 74 84              1815 	mov	a,#0x84
   0B74 F0                 1816 	movx	@dptr,a
   0B75 90s01rE9           1817 	mov	dptr,#(_message + 0x0069)
   0B78 74 E2              1818 	mov	a,#0xE2
   0B7A F0                 1819 	movx	@dptr,a
   0B7B 90s01rEA           1820 	mov	dptr,#(_message + 0x006a)
   0B7E 74 AD              1821 	mov	a,#0xAD
   0B80 F0                 1822 	movx	@dptr,a
   0B81 90s01rEB           1823 	mov	dptr,#(_message + 0x006b)
   0B84 74 B0              1824 	mov	a,#0xB0
   0B86 F0                 1825 	movx	@dptr,a
   0B87 90s01rEC           1826 	mov	dptr,#(_message + 0x006c)
   0B8A 74 B3              1827 	mov	a,#0xB3
   0B8C F0                 1828 	movx	@dptr,a
   0B8D 90s01rED           1829 	mov	dptr,#(_message + 0x006d)
   0B90 74 F5              1830 	mov	a,#0xF5
   0B92 F0                 1831 	movx	@dptr,a
   0B93 90s01rEE           1832 	mov	dptr,#(_message + 0x006e)
   0B96 74 D7              1833 	mov	a,#0xD7
   0B98 F0                 1834 	movx	@dptr,a
   0B99 90s01rEF           1835 	mov	dptr,#(_message + 0x006f)
   0B9C 74 47              1836 	mov	a,#0x47
   0B9E F0                 1837 	movx	@dptr,a
   0B9F 90s01rF0           1838 	mov	dptr,#(_message + 0x0070)
   0BA2 74 C0              1839 	mov	a,#0xC0
   0BA4 F0                 1840 	movx	@dptr,a
   0BA5 90s01rF1           1841 	mov	dptr,#(_message + 0x0071)
   0BA8 74 24              1842 	mov	a,#0x24
   0BAA F0                 1843 	movx	@dptr,a
   0BAB 90s01rF2           1844 	mov	dptr,#(_message + 0x0072)
   0BAE 74 6F              1845 	mov	a,#0x6F
   0BB0 F0                 1846 	movx	@dptr,a
   0BB1 90s01rF3           1847 	mov	dptr,#(_message + 0x0073)
   0BB4 74 FB              1848 	mov	a,#0xFB
   0BB6 F0                 1849 	movx	@dptr,a
   0BB7 90s01rF4           1850 	mov	dptr,#(_message + 0x0074)
   0BBA 74 A3              1851 	mov	a,#0xA3
   0BBC F0                 1852 	movx	@dptr,a
   0BBD 90s01rF5           1853 	mov	dptr,#(_message + 0x0075)
   0BC0 74 41              1854 	mov	a,#0x41
   0BC2 F0                 1855 	movx	@dptr,a
   0BC3 90s01rF6           1856 	mov	dptr,#(_message + 0x0076)
   0BC6 74 F4              1857 	mov	a,#0xF4
   0BC8 F0                 1858 	movx	@dptr,a
   0BC9 90s01rF7           1859 	mov	dptr,#(_message + 0x0077)
   0BCC 74 53              1860 	mov	a,#0x53
   0BCE F0                 1861 	movx	@dptr,a
   0BCF 90s01rF8           1862 	mov	dptr,#(_message + 0x0078)
   0BD2 74 2D              1863 	mov	a,#0x2D
   0BD4 F0                 1864 	movx	@dptr,a
   0BD5 90s01rF9           1865 	mov	dptr,#(_message + 0x0079)
   0BD8 74 C5              1866 	mov	a,#0xC5
   0BDA F0                 1867 	movx	@dptr,a
   0BDB 90s01rFA           1868 	mov	dptr,#(_message + 0x007a)
   0BDE 74 8E              1869 	mov	a,#0x8E
   0BE0 F0                 1870 	movx	@dptr,a
   0BE1 90s01rFB           1871 	mov	dptr,#(_message + 0x007b)
   0BE4 74 65              1872 	mov	a,#0x65
   0BE6 F0                 1873 	movx	@dptr,a
   0BE7 90s01rFC           1874 	mov	dptr,#(_message + 0x007c)
   0BEA 74 89              1875 	mov	a,#0x89
   0BEC F0                 1876 	movx	@dptr,a
   0BED 90s01rFD           1877 	mov	dptr,#(_message + 0x007d)
   0BF0 74 DF              1878 	mov	a,#0xDF
   0BF2 F0                 1879 	movx	@dptr,a
   0BF3 90s01rFE           1880 	mov	dptr,#(_message + 0x007e)
   0BF6 74 CE              1881 	mov	a,#0xCE
   0BF8 F0                 1882 	movx	@dptr,a
   0BF9 90s01rFF           1883 	mov	dptr,#(_message + 0x007f)
   0BFC 74 B9              1884 	mov	a,#0xB9
   0BFE F0                 1885 	movx	@dptr,a
                           1886 ;	main.c:10: volatile __xdata __at (0x0200) unsigned char enc_exp[SIZE] = {0x1,0x01};
   0BFF 90s02r00           1887 	mov	dptr,#_enc_exp
   0C02 74 01              1888 	mov	a,#0x01
   0C04 F0                 1889 	movx	@dptr,a
   0C05 90s02r01           1890 	mov	dptr,#(_enc_exp + 0x0001)
   0C08 74 01              1891 	mov	a,#0x01
   0C0A F0                 1892 	movx	@dptr,a
                           1893 ;	main.c:11: volatile __xdata __at (0x0280) unsigned char dec_exp[SIZE] = {0xA1,0x80,0x48,0x28,0xC3,0xFE,0x04,0xB3,0xF2,0xEF,0xAF,0x3E,0x55,0x46,0x4E,0xC8,0x47,0x7A,0x1C,0x83,0x74,0xD7,0x11,0xD1,0xFB,0x16,0x44,0x72,0x8C,0x4B,0xD5,0xFD,0xB9,0xFA,0x04,0xE1,0x3E,0x3A,0x16,0x04,0x55,0x41,0xD0,0x8A,0x92,0x38,0xF4,0xD4,0xAE,0x7A,0x60,0xE2,0x69,0xAA,0xA6,0x63,0xA1,0xEB,0x05,0x71,0x99,0x71,0xE3,0x67,0x2A,0x57,0xF7,0x6B,0x82,0xB3,0xF0,0x82,0x58,0x54,0xAF,0xC3,0xD1,0xEF,0x68,0x7E,0x88,0xBD,0x39,0x2B,0x2A,0x7C,0x14,0xF8,0xC7,0xD0,0xF9,0x64,0x9A,0xBA,0x6F,0x45,0x28,0x5D,0xD7,0xE2,0xC4,0x8E,0x9F,0x6F,0xA8,0x88,0xAD,0xFD,0x28,0x92,0x4F,0x63,0x41,0x70,0x22,0xAD,0xAB,0x4E,0x1D,0x63,0x89,0xCC,0x09,0x42,0xFE,0xBC,0xCF,0x3A};
   0C0B 90s02r80           1894 	mov	dptr,#_dec_exp
   0C0E 74 A1              1895 	mov	a,#0xA1
   0C10 F0                 1896 	movx	@dptr,a
   0C11 90s02r81           1897 	mov	dptr,#(_dec_exp + 0x0001)
   0C14 74 80              1898 	mov	a,#0x80
   0C16 F0                 1899 	movx	@dptr,a
   0C17 90s02r82           1900 	mov	dptr,#(_dec_exp + 0x0002)
   0C1A 74 48              1901 	mov	a,#0x48
   0C1C F0                 1902 	movx	@dptr,a
   0C1D 90s02r83           1903 	mov	dptr,#(_dec_exp + 0x0003)
   0C20 74 28              1904 	mov	a,#0x28
   0C22 F0                 1905 	movx	@dptr,a
   0C23 90s02r84           1906 	mov	dptr,#(_dec_exp + 0x0004)
   0C26 74 C3              1907 	mov	a,#0xC3
   0C28 F0                 1908 	movx	@dptr,a
   0C29 90s02r85           1909 	mov	dptr,#(_dec_exp + 0x0005)
   0C2C 74 FE              1910 	mov	a,#0xFE
   0C2E F0                 1911 	movx	@dptr,a
   0C2F 90s02r86           1912 	mov	dptr,#(_dec_exp + 0x0006)
   0C32 74 04              1913 	mov	a,#0x04
   0C34 F0                 1914 	movx	@dptr,a
   0C35 90s02r87           1915 	mov	dptr,#(_dec_exp + 0x0007)
   0C38 74 B3              1916 	mov	a,#0xB3
   0C3A F0                 1917 	movx	@dptr,a
   0C3B 90s02r88           1918 	mov	dptr,#(_dec_exp + 0x0008)
   0C3E 74 F2              1919 	mov	a,#0xF2
   0C40 F0                 1920 	movx	@dptr,a
   0C41 90s02r89           1921 	mov	dptr,#(_dec_exp + 0x0009)
   0C44 74 EF              1922 	mov	a,#0xEF
   0C46 F0                 1923 	movx	@dptr,a
   0C47 90s02r8A           1924 	mov	dptr,#(_dec_exp + 0x000a)
   0C4A 74 AF              1925 	mov	a,#0xAF
   0C4C F0                 1926 	movx	@dptr,a
   0C4D 90s02r8B           1927 	mov	dptr,#(_dec_exp + 0x000b)
   0C50 74 3E              1928 	mov	a,#0x3E
   0C52 F0                 1929 	movx	@dptr,a
   0C53 90s02r8C           1930 	mov	dptr,#(_dec_exp + 0x000c)
   0C56 74 55              1931 	mov	a,#0x55
   0C58 F0                 1932 	movx	@dptr,a
   0C59 90s02r8D           1933 	mov	dptr,#(_dec_exp + 0x000d)
   0C5C 74 46              1934 	mov	a,#0x46
   0C5E F0                 1935 	movx	@dptr,a
   0C5F 90s02r8E           1936 	mov	dptr,#(_dec_exp + 0x000e)
   0C62 74 4E              1937 	mov	a,#0x4E
   0C64 F0                 1938 	movx	@dptr,a
   0C65 90s02r8F           1939 	mov	dptr,#(_dec_exp + 0x000f)
   0C68 74 C8              1940 	mov	a,#0xC8
   0C6A F0                 1941 	movx	@dptr,a
   0C6B 90s02r90           1942 	mov	dptr,#(_dec_exp + 0x0010)
   0C6E 74 47              1943 	mov	a,#0x47
   0C70 F0                 1944 	movx	@dptr,a
   0C71 90s02r91           1945 	mov	dptr,#(_dec_exp + 0x0011)
   0C74 74 7A              1946 	mov	a,#0x7A
   0C76 F0                 1947 	movx	@dptr,a
   0C77 90s02r92           1948 	mov	dptr,#(_dec_exp + 0x0012)
   0C7A 74 1C              1949 	mov	a,#0x1C
   0C7C F0                 1950 	movx	@dptr,a
   0C7D 90s02r93           1951 	mov	dptr,#(_dec_exp + 0x0013)
   0C80 74 83              1952 	mov	a,#0x83
   0C82 F0                 1953 	movx	@dptr,a
   0C83 90s02r94           1954 	mov	dptr,#(_dec_exp + 0x0014)
   0C86 74 74              1955 	mov	a,#0x74
   0C88 F0                 1956 	movx	@dptr,a
   0C89 90s02r95           1957 	mov	dptr,#(_dec_exp + 0x0015)
   0C8C 74 D7              1958 	mov	a,#0xD7
   0C8E F0                 1959 	movx	@dptr,a
   0C8F 90s02r96           1960 	mov	dptr,#(_dec_exp + 0x0016)
   0C92 74 11              1961 	mov	a,#0x11
   0C94 F0                 1962 	movx	@dptr,a
   0C95 90s02r97           1963 	mov	dptr,#(_dec_exp + 0x0017)
   0C98 74 D1              1964 	mov	a,#0xD1
   0C9A F0                 1965 	movx	@dptr,a
   0C9B 90s02r98           1966 	mov	dptr,#(_dec_exp + 0x0018)
   0C9E 74 FB              1967 	mov	a,#0xFB
   0CA0 F0                 1968 	movx	@dptr,a
   0CA1 90s02r99           1969 	mov	dptr,#(_dec_exp + 0x0019)
   0CA4 74 16              1970 	mov	a,#0x16
   0CA6 F0                 1971 	movx	@dptr,a
   0CA7 90s02r9A           1972 	mov	dptr,#(_dec_exp + 0x001a)
   0CAA 74 44              1973 	mov	a,#0x44
   0CAC F0                 1974 	movx	@dptr,a
   0CAD 90s02r9B           1975 	mov	dptr,#(_dec_exp + 0x001b)
   0CB0 74 72              1976 	mov	a,#0x72
   0CB2 F0                 1977 	movx	@dptr,a
   0CB3 90s02r9C           1978 	mov	dptr,#(_dec_exp + 0x001c)
   0CB6 74 8C              1979 	mov	a,#0x8C
   0CB8 F0                 1980 	movx	@dptr,a
   0CB9 90s02r9D           1981 	mov	dptr,#(_dec_exp + 0x001d)
   0CBC 74 4B              1982 	mov	a,#0x4B
   0CBE F0                 1983 	movx	@dptr,a
   0CBF 90s02r9E           1984 	mov	dptr,#(_dec_exp + 0x001e)
   0CC2 74 D5              1985 	mov	a,#0xD5
   0CC4 F0                 1986 	movx	@dptr,a
   0CC5 90s02r9F           1987 	mov	dptr,#(_dec_exp + 0x001f)
   0CC8 74 FD              1988 	mov	a,#0xFD
   0CCA F0                 1989 	movx	@dptr,a
   0CCB 90s02rA0           1990 	mov	dptr,#(_dec_exp + 0x0020)
   0CCE 74 B9              1991 	mov	a,#0xB9
   0CD0 F0                 1992 	movx	@dptr,a
   0CD1 90s02rA1           1993 	mov	dptr,#(_dec_exp + 0x0021)
   0CD4 74 FA              1994 	mov	a,#0xFA
   0CD6 F0                 1995 	movx	@dptr,a
   0CD7 90s02rA2           1996 	mov	dptr,#(_dec_exp + 0x0022)
   0CDA 74 04              1997 	mov	a,#0x04
   0CDC F0                 1998 	movx	@dptr,a
   0CDD 90s02rA3           1999 	mov	dptr,#(_dec_exp + 0x0023)
   0CE0 74 E1              2000 	mov	a,#0xE1
   0CE2 F0                 2001 	movx	@dptr,a
   0CE3 90s02rA4           2002 	mov	dptr,#(_dec_exp + 0x0024)
   0CE6 74 3E              2003 	mov	a,#0x3E
   0CE8 F0                 2004 	movx	@dptr,a
   0CE9 90s02rA5           2005 	mov	dptr,#(_dec_exp + 0x0025)
   0CEC 74 3A              2006 	mov	a,#0x3A
   0CEE F0                 2007 	movx	@dptr,a
   0CEF 90s02rA6           2008 	mov	dptr,#(_dec_exp + 0x0026)
   0CF2 74 16              2009 	mov	a,#0x16
   0CF4 F0                 2010 	movx	@dptr,a
   0CF5 90s02rA7           2011 	mov	dptr,#(_dec_exp + 0x0027)
   0CF8 74 04              2012 	mov	a,#0x04
   0CFA F0                 2013 	movx	@dptr,a
   0CFB 90s02rA8           2014 	mov	dptr,#(_dec_exp + 0x0028)
   0CFE 74 55              2015 	mov	a,#0x55
   0D00 F0                 2016 	movx	@dptr,a
   0D01 90s02rA9           2017 	mov	dptr,#(_dec_exp + 0x0029)
   0D04 74 41              2018 	mov	a,#0x41
   0D06 F0                 2019 	movx	@dptr,a
   0D07 90s02rAA           2020 	mov	dptr,#(_dec_exp + 0x002a)
   0D0A 74 D0              2021 	mov	a,#0xD0
   0D0C F0                 2022 	movx	@dptr,a
   0D0D 90s02rAB           2023 	mov	dptr,#(_dec_exp + 0x002b)
   0D10 74 8A              2024 	mov	a,#0x8A
   0D12 F0                 2025 	movx	@dptr,a
   0D13 90s02rAC           2026 	mov	dptr,#(_dec_exp + 0x002c)
   0D16 74 92              2027 	mov	a,#0x92
   0D18 F0                 2028 	movx	@dptr,a
   0D19 90s02rAD           2029 	mov	dptr,#(_dec_exp + 0x002d)
   0D1C 74 38              2030 	mov	a,#0x38
   0D1E F0                 2031 	movx	@dptr,a
   0D1F 90s02rAE           2032 	mov	dptr,#(_dec_exp + 0x002e)
   0D22 74 F4              2033 	mov	a,#0xF4
   0D24 F0                 2034 	movx	@dptr,a
   0D25 90s02rAF           2035 	mov	dptr,#(_dec_exp + 0x002f)
   0D28 74 D4              2036 	mov	a,#0xD4
   0D2A F0                 2037 	movx	@dptr,a
   0D2B 90s02rB0           2038 	mov	dptr,#(_dec_exp + 0x0030)
   0D2E 74 AE              2039 	mov	a,#0xAE
   0D30 F0                 2040 	movx	@dptr,a
   0D31 90s02rB1           2041 	mov	dptr,#(_dec_exp + 0x0031)
   0D34 74 7A              2042 	mov	a,#0x7A
   0D36 F0                 2043 	movx	@dptr,a
   0D37 90s02rB2           2044 	mov	dptr,#(_dec_exp + 0x0032)
   0D3A 74 60              2045 	mov	a,#0x60
   0D3C F0                 2046 	movx	@dptr,a
   0D3D 90s02rB3           2047 	mov	dptr,#(_dec_exp + 0x0033)
   0D40 74 E2              2048 	mov	a,#0xE2
   0D42 F0                 2049 	movx	@dptr,a
   0D43 90s02rB4           2050 	mov	dptr,#(_dec_exp + 0x0034)
   0D46 74 69              2051 	mov	a,#0x69
   0D48 F0                 2052 	movx	@dptr,a
   0D49 90s02rB5           2053 	mov	dptr,#(_dec_exp + 0x0035)
   0D4C 74 AA              2054 	mov	a,#0xAA
   0D4E F0                 2055 	movx	@dptr,a
   0D4F 90s02rB6           2056 	mov	dptr,#(_dec_exp + 0x0036)
   0D52 74 A6              2057 	mov	a,#0xA6
   0D54 F0                 2058 	movx	@dptr,a
   0D55 90s02rB7           2059 	mov	dptr,#(_dec_exp + 0x0037)
   0D58 74 63              2060 	mov	a,#0x63
   0D5A F0                 2061 	movx	@dptr,a
   0D5B 90s02rB8           2062 	mov	dptr,#(_dec_exp + 0x0038)
   0D5E 74 A1              2063 	mov	a,#0xA1
   0D60 F0                 2064 	movx	@dptr,a
   0D61 90s02rB9           2065 	mov	dptr,#(_dec_exp + 0x0039)
   0D64 74 EB              2066 	mov	a,#0xEB
   0D66 F0                 2067 	movx	@dptr,a
   0D67 90s02rBA           2068 	mov	dptr,#(_dec_exp + 0x003a)
   0D6A 74 05              2069 	mov	a,#0x05
   0D6C F0                 2070 	movx	@dptr,a
   0D6D 90s02rBB           2071 	mov	dptr,#(_dec_exp + 0x003b)
   0D70 74 71              2072 	mov	a,#0x71
   0D72 F0                 2073 	movx	@dptr,a
   0D73 90s02rBC           2074 	mov	dptr,#(_dec_exp + 0x003c)
   0D76 74 99              2075 	mov	a,#0x99
   0D78 F0                 2076 	movx	@dptr,a
   0D79 90s02rBD           2077 	mov	dptr,#(_dec_exp + 0x003d)
   0D7C 74 71              2078 	mov	a,#0x71
   0D7E F0                 2079 	movx	@dptr,a
   0D7F 90s02rBE           2080 	mov	dptr,#(_dec_exp + 0x003e)
   0D82 74 E3              2081 	mov	a,#0xE3
   0D84 F0                 2082 	movx	@dptr,a
   0D85 90s02rBF           2083 	mov	dptr,#(_dec_exp + 0x003f)
   0D88 74 67              2084 	mov	a,#0x67
   0D8A F0                 2085 	movx	@dptr,a
   0D8B 90s02rC0           2086 	mov	dptr,#(_dec_exp + 0x0040)
   0D8E 74 2A              2087 	mov	a,#0x2A
   0D90 F0                 2088 	movx	@dptr,a
   0D91 90s02rC1           2089 	mov	dptr,#(_dec_exp + 0x0041)
   0D94 74 57              2090 	mov	a,#0x57
   0D96 F0                 2091 	movx	@dptr,a
   0D97 90s02rC2           2092 	mov	dptr,#(_dec_exp + 0x0042)
   0D9A 74 F7              2093 	mov	a,#0xF7
   0D9C F0                 2094 	movx	@dptr,a
   0D9D 90s02rC3           2095 	mov	dptr,#(_dec_exp + 0x0043)
   0DA0 74 6B              2096 	mov	a,#0x6B
   0DA2 F0                 2097 	movx	@dptr,a
   0DA3 90s02rC4           2098 	mov	dptr,#(_dec_exp + 0x0044)
   0DA6 74 82              2099 	mov	a,#0x82
   0DA8 F0                 2100 	movx	@dptr,a
   0DA9 90s02rC5           2101 	mov	dptr,#(_dec_exp + 0x0045)
   0DAC 74 B3              2102 	mov	a,#0xB3
   0DAE F0                 2103 	movx	@dptr,a
   0DAF 90s02rC6           2104 	mov	dptr,#(_dec_exp + 0x0046)
   0DB2 74 F0              2105 	mov	a,#0xF0
   0DB4 F0                 2106 	movx	@dptr,a
   0DB5 90s02rC7           2107 	mov	dptr,#(_dec_exp + 0x0047)
   0DB8 74 82              2108 	mov	a,#0x82
   0DBA F0                 2109 	movx	@dptr,a
   0DBB 90s02rC8           2110 	mov	dptr,#(_dec_exp + 0x0048)
   0DBE 74 58              2111 	mov	a,#0x58
   0DC0 F0                 2112 	movx	@dptr,a
   0DC1 90s02rC9           2113 	mov	dptr,#(_dec_exp + 0x0049)
   0DC4 74 54              2114 	mov	a,#0x54
   0DC6 F0                 2115 	movx	@dptr,a
   0DC7 90s02rCA           2116 	mov	dptr,#(_dec_exp + 0x004a)
   0DCA 74 AF              2117 	mov	a,#0xAF
   0DCC F0                 2118 	movx	@dptr,a
   0DCD 90s02rCB           2119 	mov	dptr,#(_dec_exp + 0x004b)
   0DD0 74 C3              2120 	mov	a,#0xC3
   0DD2 F0                 2121 	movx	@dptr,a
   0DD3 90s02rCC           2122 	mov	dptr,#(_dec_exp + 0x004c)
   0DD6 74 D1              2123 	mov	a,#0xD1
   0DD8 F0                 2124 	movx	@dptr,a
   0DD9 90s02rCD           2125 	mov	dptr,#(_dec_exp + 0x004d)
   0DDC 74 EF              2126 	mov	a,#0xEF
   0DDE F0                 2127 	movx	@dptr,a
   0DDF 90s02rCE           2128 	mov	dptr,#(_dec_exp + 0x004e)
   0DE2 74 68              2129 	mov	a,#0x68
   0DE4 F0                 2130 	movx	@dptr,a
   0DE5 90s02rCF           2131 	mov	dptr,#(_dec_exp + 0x004f)
   0DE8 74 7E              2132 	mov	a,#0x7E
   0DEA F0                 2133 	movx	@dptr,a
   0DEB 90s02rD0           2134 	mov	dptr,#(_dec_exp + 0x0050)
   0DEE 74 88              2135 	mov	a,#0x88
   0DF0 F0                 2136 	movx	@dptr,a
   0DF1 90s02rD1           2137 	mov	dptr,#(_dec_exp + 0x0051)
   0DF4 74 BD              2138 	mov	a,#0xBD
   0DF6 F0                 2139 	movx	@dptr,a
   0DF7 90s02rD2           2140 	mov	dptr,#(_dec_exp + 0x0052)
   0DFA 74 39              2141 	mov	a,#0x39
   0DFC F0                 2142 	movx	@dptr,a
   0DFD 90s02rD3           2143 	mov	dptr,#(_dec_exp + 0x0053)
   0E00 74 2B              2144 	mov	a,#0x2B
   0E02 F0                 2145 	movx	@dptr,a
   0E03 90s02rD4           2146 	mov	dptr,#(_dec_exp + 0x0054)
   0E06 74 2A              2147 	mov	a,#0x2A
   0E08 F0                 2148 	movx	@dptr,a
   0E09 90s02rD5           2149 	mov	dptr,#(_dec_exp + 0x0055)
   0E0C 74 7C              2150 	mov	a,#0x7C
   0E0E F0                 2151 	movx	@dptr,a
   0E0F 90s02rD6           2152 	mov	dptr,#(_dec_exp + 0x0056)
   0E12 74 14              2153 	mov	a,#0x14
   0E14 F0                 2154 	movx	@dptr,a
   0E15 90s02rD7           2155 	mov	dptr,#(_dec_exp + 0x0057)
   0E18 74 F8              2156 	mov	a,#0xF8
   0E1A F0                 2157 	movx	@dptr,a
   0E1B 90s02rD8           2158 	mov	dptr,#(_dec_exp + 0x0058)
   0E1E 74 C7              2159 	mov	a,#0xC7
   0E20 F0                 2160 	movx	@dptr,a
   0E21 90s02rD9           2161 	mov	dptr,#(_dec_exp + 0x0059)
   0E24 74 D0              2162 	mov	a,#0xD0
   0E26 F0                 2163 	movx	@dptr,a
   0E27 90s02rDA           2164 	mov	dptr,#(_dec_exp + 0x005a)
   0E2A 74 F9              2165 	mov	a,#0xF9
   0E2C F0                 2166 	movx	@dptr,a
   0E2D 90s02rDB           2167 	mov	dptr,#(_dec_exp + 0x005b)
   0E30 74 64              2168 	mov	a,#0x64
   0E32 F0                 2169 	movx	@dptr,a
   0E33 90s02rDC           2170 	mov	dptr,#(_dec_exp + 0x005c)
   0E36 74 9A              2171 	mov	a,#0x9A
   0E38 F0                 2172 	movx	@dptr,a
   0E39 90s02rDD           2173 	mov	dptr,#(_dec_exp + 0x005d)
   0E3C 74 BA              2174 	mov	a,#0xBA
   0E3E F0                 2175 	movx	@dptr,a
   0E3F 90s02rDE           2176 	mov	dptr,#(_dec_exp + 0x005e)
   0E42 74 6F              2177 	mov	a,#0x6F
   0E44 F0                 2178 	movx	@dptr,a
   0E45 90s02rDF           2179 	mov	dptr,#(_dec_exp + 0x005f)
   0E48 74 45              2180 	mov	a,#0x45
   0E4A F0                 2181 	movx	@dptr,a
   0E4B 90s02rE0           2182 	mov	dptr,#(_dec_exp + 0x0060)
   0E4E 74 28              2183 	mov	a,#0x28
   0E50 F0                 2184 	movx	@dptr,a
   0E51 90s02rE1           2185 	mov	dptr,#(_dec_exp + 0x0061)
   0E54 74 5D              2186 	mov	a,#0x5D
   0E56 F0                 2187 	movx	@dptr,a
   0E57 90s02rE2           2188 	mov	dptr,#(_dec_exp + 0x0062)
   0E5A 74 D7              2189 	mov	a,#0xD7
   0E5C F0                 2190 	movx	@dptr,a
   0E5D 90s02rE3           2191 	mov	dptr,#(_dec_exp + 0x0063)
   0E60 74 E2              2192 	mov	a,#0xE2
   0E62 F0                 2193 	movx	@dptr,a
   0E63 90s02rE4           2194 	mov	dptr,#(_dec_exp + 0x0064)
   0E66 74 C4              2195 	mov	a,#0xC4
   0E68 F0                 2196 	movx	@dptr,a
   0E69 90s02rE5           2197 	mov	dptr,#(_dec_exp + 0x0065)
   0E6C 74 8E              2198 	mov	a,#0x8E
   0E6E F0                 2199 	movx	@dptr,a
   0E6F 90s02rE6           2200 	mov	dptr,#(_dec_exp + 0x0066)
   0E72 74 9F              2201 	mov	a,#0x9F
   0E74 F0                 2202 	movx	@dptr,a
   0E75 90s02rE7           2203 	mov	dptr,#(_dec_exp + 0x0067)
   0E78 74 6F              2204 	mov	a,#0x6F
   0E7A F0                 2205 	movx	@dptr,a
   0E7B 90s02rE8           2206 	mov	dptr,#(_dec_exp + 0x0068)
   0E7E 74 A8              2207 	mov	a,#0xA8
   0E80 F0                 2208 	movx	@dptr,a
   0E81 90s02rE9           2209 	mov	dptr,#(_dec_exp + 0x0069)
   0E84 74 88              2210 	mov	a,#0x88
   0E86 F0                 2211 	movx	@dptr,a
   0E87 90s02rEA           2212 	mov	dptr,#(_dec_exp + 0x006a)
   0E8A 74 AD              2213 	mov	a,#0xAD
   0E8C F0                 2214 	movx	@dptr,a
   0E8D 90s02rEB           2215 	mov	dptr,#(_dec_exp + 0x006b)
   0E90 74 FD              2216 	mov	a,#0xFD
   0E92 F0                 2217 	movx	@dptr,a
   0E93 90s02rEC           2218 	mov	dptr,#(_dec_exp + 0x006c)
   0E96 74 28              2219 	mov	a,#0x28
   0E98 F0                 2220 	movx	@dptr,a
   0E99 90s02rED           2221 	mov	dptr,#(_dec_exp + 0x006d)
   0E9C 74 92              2222 	mov	a,#0x92
   0E9E F0                 2223 	movx	@dptr,a
   0E9F 90s02rEE           2224 	mov	dptr,#(_dec_exp + 0x006e)
   0EA2 74 4F              2225 	mov	a,#0x4F
   0EA4 F0                 2226 	movx	@dptr,a
   0EA5 90s02rEF           2227 	mov	dptr,#(_dec_exp + 0x006f)
   0EA8 74 63              2228 	mov	a,#0x63
   0EAA F0                 2229 	movx	@dptr,a
   0EAB 90s02rF0           2230 	mov	dptr,#(_dec_exp + 0x0070)
   0EAE 74 41              2231 	mov	a,#0x41
   0EB0 F0                 2232 	movx	@dptr,a
   0EB1 90s02rF1           2233 	mov	dptr,#(_dec_exp + 0x0071)
   0EB4 74 70              2234 	mov	a,#0x70
   0EB6 F0                 2235 	movx	@dptr,a
   0EB7 90s02rF2           2236 	mov	dptr,#(_dec_exp + 0x0072)
   0EBA 74 22              2237 	mov	a,#0x22
   0EBC F0                 2238 	movx	@dptr,a
   0EBD 90s02rF3           2239 	mov	dptr,#(_dec_exp + 0x0073)
   0EC0 74 AD              2240 	mov	a,#0xAD
   0EC2 F0                 2241 	movx	@dptr,a
   0EC3 90s02rF4           2242 	mov	dptr,#(_dec_exp + 0x0074)
   0EC6 74 AB              2243 	mov	a,#0xAB
   0EC8 F0                 2244 	movx	@dptr,a
   0EC9 90s02rF5           2245 	mov	dptr,#(_dec_exp + 0x0075)
   0ECC 74 4E              2246 	mov	a,#0x4E
   0ECE F0                 2247 	movx	@dptr,a
   0ECF 90s02rF6           2248 	mov	dptr,#(_dec_exp + 0x0076)
   0ED2 74 1D              2249 	mov	a,#0x1D
   0ED4 F0                 2250 	movx	@dptr,a
   0ED5 90s02rF7           2251 	mov	dptr,#(_dec_exp + 0x0077)
   0ED8 74 63              2252 	mov	a,#0x63
   0EDA F0                 2253 	movx	@dptr,a
   0EDB 90s02rF8           2254 	mov	dptr,#(_dec_exp + 0x0078)
   0EDE 74 89              2255 	mov	a,#0x89
   0EE0 F0                 2256 	movx	@dptr,a
   0EE1 90s02rF9           2257 	mov	dptr,#(_dec_exp + 0x0079)
   0EE4 74 CC              2258 	mov	a,#0xCC
   0EE6 F0                 2259 	movx	@dptr,a
   0EE7 90s02rFA           2260 	mov	dptr,#(_dec_exp + 0x007a)
   0EEA 74 09              2261 	mov	a,#0x09
   0EEC F0                 2262 	movx	@dptr,a
   0EED 90s02rFB           2263 	mov	dptr,#(_dec_exp + 0x007b)
   0EF0 74 42              2264 	mov	a,#0x42
   0EF2 F0                 2265 	movx	@dptr,a
   0EF3 90s02rFC           2266 	mov	dptr,#(_dec_exp + 0x007c)
   0EF6 74 FE              2267 	mov	a,#0xFE
   0EF8 F0                 2268 	movx	@dptr,a
   0EF9 90s02rFD           2269 	mov	dptr,#(_dec_exp + 0x007d)
   0EFC 74 BC              2270 	mov	a,#0xBC
   0EFE F0                 2271 	movx	@dptr,a
   0EFF 90s02rFE           2272 	mov	dptr,#(_dec_exp + 0x007e)
   0F02 74 CF              2273 	mov	a,#0xCF
   0F04 F0                 2274 	movx	@dptr,a
   0F05 90s02rFF           2275 	mov	dptr,#(_dec_exp + 0x007f)
   0F08 74 3A              2276 	mov	a,#0x3A
   0F0A F0                 2277 	movx	@dptr,a
                           2278 	.area GSFINAL (CODE)
   0000 02s00r03           2279 	ljmp	__sdcc_program_startup
                           2280 ;--------------------------------------------------------
                           2281 ; Home
                           2282 ;--------------------------------------------------------
                           2283 	.area HOME    (CODE)
                           2284 	.area HOME    (CODE)
   0003                    2285 __sdcc_program_startup:
   0003 12s01r87           2286 	lcall	_main
                           2287 ;	return from main will lock up
   0006 80 FE              2288 	sjmp .
                           2289 ;--------------------------------------------------------
                           2290 ; code
                           2291 ;--------------------------------------------------------
                           2292 	.area CSEG    (CODE)
                           2293 ;------------------------------------------------------------
                           2294 ;Allocation info for local variables in function 'write_data'
                           2295 ;------------------------------------------------------------
                           2296 ;r2modm                    Allocated with name '_write_data_PARM_2'
                           2297 ;a                         Allocated with name '_write_data_PARM_3'
                           2298 ;e                         Allocated with name '_write_data_PARM_4'
                           2299 ;m                         Allocated with name '_write_data_PARM_5'
                           2300 ;x                         Allocated to registers r2 r3 r4 
                           2301 ;------------------------------------------------------------
                           2302 ;	main.c:23: void write_data(unsigned char *x, unsigned char *r2modm, unsigned char *a, unsigned char *e, unsigned char *m) {
                           2303 ;	-----------------------------------------
                           2304 ;	 function write_data
                           2305 ;	-----------------------------------------
   0000                    2306 _write_data:
                    0002   2307 	ar2 = 0x02
                    0003   2308 	ar3 = 0x03
                    0004   2309 	ar4 = 0x04
                    0005   2310 	ar5 = 0x05
                    0006   2311 	ar6 = 0x06
                    0007   2312 	ar7 = 0x07
                    0000   2313 	ar0 = 0x00
                    0001   2314 	ar1 = 0x01
   0000 AA 82              2315 	mov	r2,dpl
   0002 AB 83              2316 	mov	r3,dph
   0004 AC F0              2317 	mov	r4,b
                           2318 ;	main.c:24: P1 = 0;
                           2319 ;	main.c:26: for (i = 0; i < SIZE; i++) {
   0006 E4                 2320 	clr	a
   0007 F5 90              2321 	mov	_P1,a
   0009 F5*00              2322 	mov	_i,a
   000B F5*01              2323 	mov	(_i + 1),a
   000D                    2324 00104$:
   000D C3                 2325 	clr	c
   000E E5*00              2326 	mov	a,_i
   0010 94 80              2327 	subb	a,#0x80
   0012 E5*01              2328 	mov	a,(_i + 1)
   0014 94 00              2329 	subb	a,#0x00
   0016 50 32              2330 	jnc	00107$
                           2331 ;	main.c:27: shared_x[i] = x[SIZE-1-i];
   0018 AD*00              2332 	mov	r5,_i
   001A 74 40              2333 	mov	a,#(_shared_x >> 8)
   001C 25*01              2334 	add	a,(_i + 1)
   001E FE                 2335 	mov	r6,a
   001F 74 7F              2336 	mov	a,#0x7F
   0021 C3                 2337 	clr	c
   0022 95*00              2338 	subb	a,_i
   0024 FF                 2339 	mov	r7,a
   0025 E4                 2340 	clr	a
   0026 95*01              2341 	subb	a,(_i + 1)
   0028 F8                 2342 	mov	r0,a
   0029 EF                 2343 	mov	a,r7
   002A 2A                 2344 	add	a,r2
   002B FF                 2345 	mov	r7,a
   002C E8                 2346 	mov	a,r0
   002D 3B                 2347 	addc	a,r3
   002E F8                 2348 	mov	r0,a
   002F 8C 01              2349 	mov	ar1,r4
   0031 8F 82              2350 	mov	dpl,r7
   0033 88 83              2351 	mov	dph,r0
   0035 89 F0              2352 	mov	b,r1
   0037 12s00r00           2353 	lcall	__gptrget
   003A FF                 2354 	mov	r7,a
   003B 8D 82              2355 	mov	dpl,r5
   003D 8E 83              2356 	mov	dph,r6
   003F F0                 2357 	movx	@dptr,a
                           2358 ;	main.c:26: for (i = 0; i < SIZE; i++) {
   0040 05*00              2359 	inc	_i
   0042 E4                 2360 	clr	a
   0043 B5*00 C7           2361 	cjne	a,_i,00104$
   0046 05*01              2362 	inc	(_i + 1)
   0048 80 C3              2363 	sjmp	00104$
   004A                    2364 00107$:
                           2365 ;	main.c:30: for (i = 0; i < SIZE; i++) {
   004A E4                 2366 	clr	a
   004B F5*00              2367 	mov	_i,a
   004D F5*01              2368 	mov	(_i + 1),a
   004F                    2369 00108$:
   004F C3                 2370 	clr	c
   0050 E5*00              2371 	mov	a,_i
   0052 94 80              2372 	subb	a,#0x80
   0054 E5*01              2373 	mov	a,(_i + 1)
   0056 94 00              2374 	subb	a,#0x00
   0058 50 37              2375 	jnc	00111$
                           2376 ;	main.c:31: shared_r2modm[i] = r2modm[SIZE-1-i];
   005A E5*00              2377 	mov	a,_i
   005C 24 80              2378 	add	a,#_shared_r2modm
   005E FA                 2379 	mov	r2,a
   005F E5*01              2380 	mov	a,(_i + 1)
   0061 34 40              2381 	addc	a,#(_shared_r2modm >> 8)
   0063 FB                 2382 	mov	r3,a
   0064 74 7F              2383 	mov	a,#0x7F
   0066 C3                 2384 	clr	c
   0067 95*00              2385 	subb	a,_i
   0069 FC                 2386 	mov	r4,a
   006A E4                 2387 	clr	a
   006B 95*01              2388 	subb	a,(_i + 1)
   006D FD                 2389 	mov	r5,a
   006E EC                 2390 	mov	a,r4
   006F 25*00              2391 	add	a,_write_data_PARM_2
   0071 FC                 2392 	mov	r4,a
   0072 ED                 2393 	mov	a,r5
   0073 35*01              2394 	addc	a,(_write_data_PARM_2 + 1)
   0075 FD                 2395 	mov	r5,a
   0076 AE*02              2396 	mov	r6,(_write_data_PARM_2 + 2)
   0078 8C 82              2397 	mov	dpl,r4
   007A 8D 83              2398 	mov	dph,r5
   007C 8E F0              2399 	mov	b,r6
   007E 12s00r00           2400 	lcall	__gptrget
   0081 FC                 2401 	mov	r4,a
   0082 8A 82              2402 	mov	dpl,r2
   0084 8B 83              2403 	mov	dph,r3
   0086 F0                 2404 	movx	@dptr,a
                           2405 ;	main.c:30: for (i = 0; i < SIZE; i++) {
   0087 05*00              2406 	inc	_i
   0089 E4                 2407 	clr	a
   008A B5*00 C2           2408 	cjne	a,_i,00108$
   008D 05*01              2409 	inc	(_i + 1)
   008F 80 BE              2410 	sjmp	00108$
   0091                    2411 00111$:
                           2412 ;	main.c:34: for (i = 0; i < SIZE; i++) {
   0091 E4                 2413 	clr	a
   0092 F5*00              2414 	mov	_i,a
   0094 F5*01              2415 	mov	(_i + 1),a
   0096                    2416 00112$:
   0096 C3                 2417 	clr	c
   0097 E5*00              2418 	mov	a,_i
   0099 94 80              2419 	subb	a,#0x80
   009B E5*01              2420 	mov	a,(_i + 1)
   009D 94 00              2421 	subb	a,#0x00
   009F 50 34              2422 	jnc	00115$
                           2423 ;	main.c:35: shared_a[i] = a[SIZE-1-i];
   00A1 AA*00              2424 	mov	r2,_i
   00A3 74 41              2425 	mov	a,#(_shared_a >> 8)
   00A5 25*01              2426 	add	a,(_i + 1)
   00A7 FB                 2427 	mov	r3,a
   00A8 74 7F              2428 	mov	a,#0x7F
   00AA C3                 2429 	clr	c
   00AB 95*00              2430 	subb	a,_i
   00AD FC                 2431 	mov	r4,a
   00AE E4                 2432 	clr	a
   00AF 95*01              2433 	subb	a,(_i + 1)
   00B1 FD                 2434 	mov	r5,a
   00B2 EC                 2435 	mov	a,r4
   00B3 25*03              2436 	add	a,_write_data_PARM_3
   00B5 FC                 2437 	mov	r4,a
   00B6 ED                 2438 	mov	a,r5
   00B7 35*04              2439 	addc	a,(_write_data_PARM_3 + 1)
   00B9 FD                 2440 	mov	r5,a
   00BA AE*05              2441 	mov	r6,(_write_data_PARM_3 + 2)
   00BC 8C 82              2442 	mov	dpl,r4
   00BE 8D 83              2443 	mov	dph,r5
   00C0 8E F0              2444 	mov	b,r6
   00C2 12s00r00           2445 	lcall	__gptrget
   00C5 FC                 2446 	mov	r4,a
   00C6 8A 82              2447 	mov	dpl,r2
   00C8 8B 83              2448 	mov	dph,r3
   00CA F0                 2449 	movx	@dptr,a
                           2450 ;	main.c:34: for (i = 0; i < SIZE; i++) {
   00CB 05*00              2451 	inc	_i
   00CD E4                 2452 	clr	a
   00CE B5*00 C5           2453 	cjne	a,_i,00112$
   00D1 05*01              2454 	inc	(_i + 1)
   00D3 80 C1              2455 	sjmp	00112$
   00D5                    2456 00115$:
                           2457 ;	main.c:38: for (i = 0; i < SIZE; i++) {
   00D5 E4                 2458 	clr	a
   00D6 F5*00              2459 	mov	_i,a
   00D8 F5*01              2460 	mov	(_i + 1),a
   00DA                    2461 00116$:
   00DA C3                 2462 	clr	c
   00DB E5*00              2463 	mov	a,_i
   00DD 94 80              2464 	subb	a,#0x80
   00DF E5*01              2465 	mov	a,(_i + 1)
   00E1 94 00              2466 	subb	a,#0x00
   00E3 50 37              2467 	jnc	00119$
                           2468 ;	main.c:39: shared_e[i] = e[SIZE-1-i];
   00E5 E5*00              2469 	mov	a,_i
   00E7 24 80              2470 	add	a,#_shared_e
   00E9 FA                 2471 	mov	r2,a
   00EA E5*01              2472 	mov	a,(_i + 1)
   00EC 34 41              2473 	addc	a,#(_shared_e >> 8)
   00EE FB                 2474 	mov	r3,a
   00EF 74 7F              2475 	mov	a,#0x7F
   00F1 C3                 2476 	clr	c
   00F2 95*00              2477 	subb	a,_i
   00F4 FC                 2478 	mov	r4,a
   00F5 E4                 2479 	clr	a
   00F6 95*01              2480 	subb	a,(_i + 1)
   00F8 FD                 2481 	mov	r5,a
   00F9 EC                 2482 	mov	a,r4
   00FA 25*06              2483 	add	a,_write_data_PARM_4
   00FC FC                 2484 	mov	r4,a
   00FD ED                 2485 	mov	a,r5
   00FE 35*07              2486 	addc	a,(_write_data_PARM_4 + 1)
   0100 FD                 2487 	mov	r5,a
   0101 AE*08              2488 	mov	r6,(_write_data_PARM_4 + 2)
   0103 8C 82              2489 	mov	dpl,r4
   0105 8D 83              2490 	mov	dph,r5
   0107 8E F0              2491 	mov	b,r6
   0109 12s00r00           2492 	lcall	__gptrget
   010C FC                 2493 	mov	r4,a
   010D 8A 82              2494 	mov	dpl,r2
   010F 8B 83              2495 	mov	dph,r3
   0111 F0                 2496 	movx	@dptr,a
                           2497 ;	main.c:38: for (i = 0; i < SIZE; i++) {
   0112 05*00              2498 	inc	_i
   0114 E4                 2499 	clr	a
   0115 B5*00 C2           2500 	cjne	a,_i,00116$
   0118 05*01              2501 	inc	(_i + 1)
   011A 80 BE              2502 	sjmp	00116$
   011C                    2503 00119$:
                           2504 ;	main.c:42: for (i = 0; i < SIZE; i++) {
   011C E4                 2505 	clr	a
   011D F5*00              2506 	mov	_i,a
   011F F5*01              2507 	mov	(_i + 1),a
   0121                    2508 00120$:
   0121 C3                 2509 	clr	c
   0122 E5*00              2510 	mov	a,_i
   0124 94 80              2511 	subb	a,#0x80
   0126 E5*01              2512 	mov	a,(_i + 1)
   0128 94 00              2513 	subb	a,#0x00
   012A 50 34              2514 	jnc	00123$
                           2515 ;	main.c:43: shared_m[i] = m[SIZE-1-i];
   012C AA*00              2516 	mov	r2,_i
   012E 74 42              2517 	mov	a,#(_shared_m >> 8)
   0130 25*01              2518 	add	a,(_i + 1)
   0132 FB                 2519 	mov	r3,a
   0133 74 7F              2520 	mov	a,#0x7F
   0135 C3                 2521 	clr	c
   0136 95*00              2522 	subb	a,_i
   0138 FC                 2523 	mov	r4,a
   0139 E4                 2524 	clr	a
   013A 95*01              2525 	subb	a,(_i + 1)
   013C FD                 2526 	mov	r5,a
   013D EC                 2527 	mov	a,r4
   013E 25*09              2528 	add	a,_write_data_PARM_5
   0140 FC                 2529 	mov	r4,a
   0141 ED                 2530 	mov	a,r5
   0142 35*0A              2531 	addc	a,(_write_data_PARM_5 + 1)
   0144 FD                 2532 	mov	r5,a
   0145 AE*0B              2533 	mov	r6,(_write_data_PARM_5 + 2)
   0147 8C 82              2534 	mov	dpl,r4
   0149 8D 83              2535 	mov	dph,r5
   014B 8E F0              2536 	mov	b,r6
   014D 12s00r00           2537 	lcall	__gptrget
   0150 FC                 2538 	mov	r4,a
   0151 8A 82              2539 	mov	dpl,r2
   0153 8B 83              2540 	mov	dph,r3
   0155 F0                 2541 	movx	@dptr,a
                           2542 ;	main.c:42: for (i = 0; i < SIZE; i++) {
   0156 05*00              2543 	inc	_i
   0158 E4                 2544 	clr	a
   0159 B5*00 C5           2545 	cjne	a,_i,00120$
   015C 05*01              2546 	inc	(_i + 1)
   015E 80 C1              2547 	sjmp	00120$
   0160                    2548 00123$:
                           2549 ;	main.c:46: P0 = ins_write_data;
   0160 75 80 01           2550 	mov	_P0,#0x01
                           2551 ;	main.c:47: P0 = ins_idle;
   0163 75 80 00           2552 	mov	_P0,#0x00
                           2553 ;	main.c:49: while (P1 == 0) {}
   0166                    2554 00101$:
   0166 E5 90              2555 	mov	a,_P1
   0168 60 FC              2556 	jz	00101$
                           2557 ;	main.c:50: P0 = ins_ack;
   016A 75 80 04           2558 	mov	_P0,#0x04
   016D 22                 2559 	ret
                           2560 ;------------------------------------------------------------
                           2561 ;Allocation info for local variables in function 'read_r'
                           2562 ;------------------------------------------------------------
                           2563 ;------------------------------------------------------------
                           2564 ;	main.c:53: void read_r() {
                           2565 ;	-----------------------------------------
                           2566 ;	 function read_r
                           2567 ;	-----------------------------------------
   016E                    2568 _read_r:
                           2569 ;	main.c:54: P0 = ins_read_r;
   016E 75 80 03           2570 	mov	_P0,#0x03
                           2571 ;	main.c:55: while (P1 == 0) {}
   0171                    2572 00101$:
   0171 E5 90              2573 	mov	a,_P1
   0173 60 FC              2574 	jz	00101$
                           2575 ;	main.c:56: P0 = ins_ack;
   0175 75 80 04           2576 	mov	_P0,#0x04
                           2577 ;	main.c:58: P0 = ins_idle;
   0178 75 80 00           2578 	mov	_P0,#0x00
   017B 22                 2579 	ret
                           2580 ;------------------------------------------------------------
                           2581 ;Allocation info for local variables in function 'montgomery_exp'
                           2582 ;------------------------------------------------------------
                           2583 ;------------------------------------------------------------
                           2584 ;	main.c:61: void montgomery_exp() {
                           2585 ;	-----------------------------------------
                           2586 ;	 function montgomery_exp
                           2587 ;	-----------------------------------------
   017C                    2588 _montgomery_exp:
                           2589 ;	main.c:62: P0 = ins_montgomery_exp;
   017C 75 80 02           2590 	mov	_P0,#0x02
                           2591 ;	main.c:63: P0 = ins_idle;
   017F 75 80 00           2592 	mov	_P0,#0x00
   0182 22                 2593 	ret
                           2594 ;------------------------------------------------------------
                           2595 ;Allocation info for local variables in function 'terminate'
                           2596 ;------------------------------------------------------------
                           2597 ;------------------------------------------------------------
                           2598 ;	main.c:66: void terminate() {
                           2599 ;	-----------------------------------------
                           2600 ;	 function terminate
                           2601 ;	-----------------------------------------
   0183                    2602 _terminate:
                           2603 ;	main.c:67: P3 = 0x55;
   0183 75 B0 55           2604 	mov	_P3,#0x55
   0186 22                 2605 	ret
                           2606 ;------------------------------------------------------------
                           2607 ;Allocation info for local variables in function 'main'
                           2608 ;------------------------------------------------------------
                           2609 ;------------------------------------------------------------
                           2610 ;	main.c:70: int main() {
                           2611 ;	-----------------------------------------
                           2612 ;	 function main
                           2613 ;	-----------------------------------------
   0187                    2614 _main:
                           2615 ;	main.c:71: write_data(message, r2modm, rmodm, enc_exp, modulus);
   0187 75*00r80           2616 	mov	_write_data_PARM_2,#_r2modm
   018A 75*01s00           2617 	mov	(_write_data_PARM_2 + 1),#(_r2modm >> 8)
   018D 75*02 00           2618 	mov	(_write_data_PARM_2 + 2),#0x00
   0190 75*03r00           2619 	mov	_write_data_PARM_3,#_rmodm
   0193 75*04s00           2620 	mov	(_write_data_PARM_3 + 1),#(_rmodm >> 8)
   0196 75*05 00           2621 	mov	(_write_data_PARM_3 + 2),#0x00
   0199 75*06r00           2622 	mov	_write_data_PARM_4,#_enc_exp
   019C 75*07s02           2623 	mov	(_write_data_PARM_4 + 1),#(_enc_exp >> 8)
   019F 75*08 00           2624 	mov	(_write_data_PARM_4 + 2),#0x00
   01A2 75*09r00           2625 	mov	_write_data_PARM_5,#_modulus
   01A5 75*0As01           2626 	mov	(_write_data_PARM_5 + 1),#(_modulus >> 8)
   01A8 75*0B 00           2627 	mov	(_write_data_PARM_5 + 2),#0x00
   01AB 90s01r80           2628 	mov	dptr,#_message
   01AE 75 F0 00           2629 	mov	b,#0x00
   01B1 12s00r00           2630 	lcall	_write_data
                           2631 ;	main.c:72: montgomery_exp();
   01B4 12s01r7C           2632 	lcall	_montgomery_exp
                           2633 ;	main.c:73: read_r();
   01B7 12s01r6E           2634 	lcall	_read_r
                           2635 ;	main.c:75: P1 = 0;
                           2636 ;	main.c:77: for (i = 0; i < SIZE; i++) {
   01BA E4                 2637 	clr	a
   01BB F5 90              2638 	mov	_P1,a
   01BD F5*00              2639 	mov	_i,a
   01BF F5*01              2640 	mov	(_i + 1),a
   01C1                    2641 00104$:
   01C1 C3                 2642 	clr	c
   01C2 E5*00              2643 	mov	a,_i
   01C4 94 80              2644 	subb	a,#0x80
   01C6 E5*01              2645 	mov	a,(_i + 1)
   01C8 94 00              2646 	subb	a,#0x00
   01CA 50 21              2647 	jnc	00107$
                           2648 ;	main.c:78: shared_a[i] = r[i];
   01CC AA*00              2649 	mov	r2,_i
   01CE 74 41              2650 	mov	a,#(_shared_a >> 8)
   01D0 25*01              2651 	add	a,(_i + 1)
   01D2 FB                 2652 	mov	r3,a
   01D3 85*00 82           2653 	mov	dpl,_i
   01D6 74 50              2654 	mov	a,#(_r >> 8)
   01D8 25*01              2655 	add	a,(_i + 1)
   01DA F5 83              2656 	mov	dph,a
   01DC E0                 2657 	movx	a,@dptr
   01DD FC                 2658 	mov	r4,a
   01DE 8A 82              2659 	mov	dpl,r2
   01E0 8B 83              2660 	mov	dph,r3
   01E2 F0                 2661 	movx	@dptr,a
                           2662 ;	main.c:77: for (i = 0; i < SIZE; i++) {
   01E3 05*00              2663 	inc	_i
   01E5 E4                 2664 	clr	a
   01E6 B5*00 D8           2665 	cjne	a,_i,00104$
   01E9 05*01              2666 	inc	(_i + 1)
   01EB 80 D4              2667 	sjmp	00104$
   01ED                    2668 00107$:
                           2669 ;	main.c:81: P0 = ins_write_data;
   01ED 75 80 01           2670 	mov	_P0,#0x01
                           2671 ;	main.c:82: P0 = ins_idle;
   01F0 75 80 00           2672 	mov	_P0,#0x00
                           2673 ;	main.c:84: while (P1 == 0) {}
   01F3                    2674 00101$:
   01F3 E5 90              2675 	mov	a,_P1
   01F5 60 FC              2676 	jz	00101$
                           2677 ;	main.c:85: P0 = ins_ack;
   01F7 75 80 04           2678 	mov	_P0,#0x04
                           2679 ;	main.c:87: terminate();
   01FA 12s01r83           2680 	lcall	_terminate
                           2681 ;	main.c:88: return 0;
   01FD 90 00 00           2682 	mov	dptr,#0x0000
   0200 22                 2683 	ret
                           2684 	.area CSEG    (CODE)
                           2685 	.area CONST   (CODE)
                           2686 	.area XINIT   (CODE)
                           2687 	.area CABS    (ABS,CODE)
