                              1 ;--------------------------------------------------------
                              2 ; File Created by SDCC : free open source ANSI-C Compiler
                              3 ; Version 2.9.0 #5416 (Aug  6 2010) (UNIX)
                              4 ; This file was generated Sun Nov  4 13:39:55 2012
                              5 ;--------------------------------------------------------
                              6 	.module main
                              7 	.optsdcc -mmcs51 --model-small
                              8 	
                              9 ;--------------------------------------------------------
                             10 ; Public variables in this module
                             11 ;--------------------------------------------------------
                             12 	.globl _main
                             13 	.globl _CY
                             14 	.globl _AC
                             15 	.globl _F0
                             16 	.globl _RS1
                             17 	.globl _RS0
                             18 	.globl _OV
                             19 	.globl _F1
                             20 	.globl _P
                             21 	.globl _PS
                             22 	.globl _PT1
                             23 	.globl _PX1
                             24 	.globl _PT0
                             25 	.globl _PX0
                             26 	.globl _RD
                             27 	.globl _WR
                             28 	.globl _T1
                             29 	.globl _T0
                             30 	.globl _INT1
                             31 	.globl _INT0
                             32 	.globl _TXD
                             33 	.globl _RXD
                             34 	.globl _P3_7
                             35 	.globl _P3_6
                             36 	.globl _P3_5
                             37 	.globl _P3_4
                             38 	.globl _P3_3
                             39 	.globl _P3_2
                             40 	.globl _P3_1
                             41 	.globl _P3_0
                             42 	.globl _EA
                             43 	.globl _ES
                             44 	.globl _ET1
                             45 	.globl _EX1
                             46 	.globl _ET0
                             47 	.globl _EX0
                             48 	.globl _P2_7
                             49 	.globl _P2_6
                             50 	.globl _P2_5
                             51 	.globl _P2_4
                             52 	.globl _P2_3
                             53 	.globl _P2_2
                             54 	.globl _P2_1
                             55 	.globl _P2_0
                             56 	.globl _SM0
                             57 	.globl _SM1
                             58 	.globl _SM2
                             59 	.globl _REN
                             60 	.globl _TB8
                             61 	.globl _RB8
                             62 	.globl _TI
                             63 	.globl _RI
                             64 	.globl _P1_7
                             65 	.globl _P1_6
                             66 	.globl _P1_5
                             67 	.globl _P1_4
                             68 	.globl _P1_3
                             69 	.globl _P1_2
                             70 	.globl _P1_1
                             71 	.globl _P1_0
                             72 	.globl _TF1
                             73 	.globl _TR1
                             74 	.globl _TF0
                             75 	.globl _TR0
                             76 	.globl _IE1
                             77 	.globl _IT1
                             78 	.globl _IE0
                             79 	.globl _IT0
                             80 	.globl _P0_7
                             81 	.globl _P0_6
                             82 	.globl _P0_5
                             83 	.globl _P0_4
                             84 	.globl _P0_3
                             85 	.globl _P0_2
                             86 	.globl _P0_1
                             87 	.globl _P0_0
                             88 	.globl _B
                             89 	.globl _ACC
                             90 	.globl _PSW
                             91 	.globl _IP
                             92 	.globl _P3
                             93 	.globl _IE
                             94 	.globl _P2
                             95 	.globl _SBUF
                             96 	.globl _SCON
                             97 	.globl _P1
                             98 	.globl _TH1
                             99 	.globl _TH0
                            100 	.globl _TL1
                            101 	.globl _TL0
                            102 	.globl _TMOD
                            103 	.globl _TCON
                            104 	.globl _PCON
                            105 	.globl _DPH
                            106 	.globl _DPL
                            107 	.globl _SP
                            108 	.globl _P0
                            109 	.globl _b
                            110 	.globl _a
                            111 	.globl _n
                            112 	.globl _u
                            113 	.globl _m
                            114 	.globl _endBrk
                            115 	.globl _startBrk
                            116 	.globl _b0
                            117 	.globl _n0
                            118 	.globl _stack
                            119 	.globl _t
                            120 	.globl _c
                            121 	.globl _j
                            122 	.globl _i
                            123 	.globl _tmp
                            124 ;--------------------------------------------------------
                            125 ; special function registers
                            126 ;--------------------------------------------------------
                            127 	.area RSEG    (DATA)
                    0080    128 _P0	=	0x0080
                    0081    129 _SP	=	0x0081
                    0082    130 _DPL	=	0x0082
                    0083    131 _DPH	=	0x0083
                    0087    132 _PCON	=	0x0087
                    0088    133 _TCON	=	0x0088
                    0089    134 _TMOD	=	0x0089
                    008A    135 _TL0	=	0x008a
                    008B    136 _TL1	=	0x008b
                    008C    137 _TH0	=	0x008c
                    008D    138 _TH1	=	0x008d
                    0090    139 _P1	=	0x0090
                    0098    140 _SCON	=	0x0098
                    0099    141 _SBUF	=	0x0099
                    00A0    142 _P2	=	0x00a0
                    00A8    143 _IE	=	0x00a8
                    00B0    144 _P3	=	0x00b0
                    00B8    145 _IP	=	0x00b8
                    00D0    146 _PSW	=	0x00d0
                    00E0    147 _ACC	=	0x00e0
                    00F0    148 _B	=	0x00f0
                            149 ;--------------------------------------------------------
                            150 ; special function bits
                            151 ;--------------------------------------------------------
                            152 	.area RSEG    (DATA)
                    0080    153 _P0_0	=	0x0080
                    0081    154 _P0_1	=	0x0081
                    0082    155 _P0_2	=	0x0082
                    0083    156 _P0_3	=	0x0083
                    0084    157 _P0_4	=	0x0084
                    0085    158 _P0_5	=	0x0085
                    0086    159 _P0_6	=	0x0086
                    0087    160 _P0_7	=	0x0087
                    0088    161 _IT0	=	0x0088
                    0089    162 _IE0	=	0x0089
                    008A    163 _IT1	=	0x008a
                    008B    164 _IE1	=	0x008b
                    008C    165 _TR0	=	0x008c
                    008D    166 _TF0	=	0x008d
                    008E    167 _TR1	=	0x008e
                    008F    168 _TF1	=	0x008f
                    0090    169 _P1_0	=	0x0090
                    0091    170 _P1_1	=	0x0091
                    0092    171 _P1_2	=	0x0092
                    0093    172 _P1_3	=	0x0093
                    0094    173 _P1_4	=	0x0094
                    0095    174 _P1_5	=	0x0095
                    0096    175 _P1_6	=	0x0096
                    0097    176 _P1_7	=	0x0097
                    0098    177 _RI	=	0x0098
                    0099    178 _TI	=	0x0099
                    009A    179 _RB8	=	0x009a
                    009B    180 _TB8	=	0x009b
                    009C    181 _REN	=	0x009c
                    009D    182 _SM2	=	0x009d
                    009E    183 _SM1	=	0x009e
                    009F    184 _SM0	=	0x009f
                    00A0    185 _P2_0	=	0x00a0
                    00A1    186 _P2_1	=	0x00a1
                    00A2    187 _P2_2	=	0x00a2
                    00A3    188 _P2_3	=	0x00a3
                    00A4    189 _P2_4	=	0x00a4
                    00A5    190 _P2_5	=	0x00a5
                    00A6    191 _P2_6	=	0x00a6
                    00A7    192 _P2_7	=	0x00a7
                    00A8    193 _EX0	=	0x00a8
                    00A9    194 _ET0	=	0x00a9
                    00AA    195 _EX1	=	0x00aa
                    00AB    196 _ET1	=	0x00ab
                    00AC    197 _ES	=	0x00ac
                    00AF    198 _EA	=	0x00af
                    00B0    199 _P3_0	=	0x00b0
                    00B1    200 _P3_1	=	0x00b1
                    00B2    201 _P3_2	=	0x00b2
                    00B3    202 _P3_3	=	0x00b3
                    00B4    203 _P3_4	=	0x00b4
                    00B5    204 _P3_5	=	0x00b5
                    00B6    205 _P3_6	=	0x00b6
                    00B7    206 _P3_7	=	0x00b7
                    00B0    207 _RXD	=	0x00b0
                    00B1    208 _TXD	=	0x00b1
                    00B2    209 _INT0	=	0x00b2
                    00B3    210 _INT1	=	0x00b3
                    00B4    211 _T0	=	0x00b4
                    00B5    212 _T1	=	0x00b5
                    00B6    213 _WR	=	0x00b6
                    00B7    214 _RD	=	0x00b7
                    00B8    215 _PX0	=	0x00b8
                    00B9    216 _PT0	=	0x00b9
                    00BA    217 _PX1	=	0x00ba
                    00BB    218 _PT1	=	0x00bb
                    00BC    219 _PS	=	0x00bc
                    00D0    220 _P	=	0x00d0
                    00D1    221 _F1	=	0x00d1
                    00D2    222 _OV	=	0x00d2
                    00D3    223 _RS0	=	0x00d3
                    00D4    224 _RS1	=	0x00d4
                    00D5    225 _F0	=	0x00d5
                    00D6    226 _AC	=	0x00d6
                    00D7    227 _CY	=	0x00d7
                            228 ;--------------------------------------------------------
                            229 ; overlayable register banks
                            230 ;--------------------------------------------------------
                            231 	.area REG_BANK_0	(REL,OVR,DATA)
   0000                     232 	.ds 8
                            233 ;--------------------------------------------------------
                            234 ; internal ram data
                            235 ;--------------------------------------------------------
                            236 	.area DSEG    (DATA)
   0000                     237 _tmp::
   0000                     238 	.ds 2
   0002                     239 _i::
   0002                     240 	.ds 2
   0004                     241 _j::
   0004                     242 	.ds 2
   0006                     243 _c::
   0006                     244 	.ds 1
   0007                     245 _t::
   0007                     246 	.ds 2
   0009                     247 _stack::
   0009                     248 	.ds 1
   000A                     249 _n0::
   000A                     250 	.ds 1
   000B                     251 _b0::
   000B                     252 	.ds 1
                            253 ;--------------------------------------------------------
                            254 ; overlayable items in internal ram 
                            255 ;--------------------------------------------------------
                            256 	.area OSEG    (OVR,DATA)
                            257 ;--------------------------------------------------------
                            258 ; Stack segment in internal ram 
                            259 ;--------------------------------------------------------
                            260 	.area	SSEG	(DATA)
   0000                     261 __start__stack:
   0000                     262 	.ds	1
                            263 
                            264 ;--------------------------------------------------------
                            265 ; indirectly addressable internal ram data
                            266 ;--------------------------------------------------------
                            267 	.area ISEG    (DATA)
                            268 ;--------------------------------------------------------
                            269 ; absolute internal ram data
                            270 ;--------------------------------------------------------
                            271 	.area IABS    (ABS,DATA)
                            272 	.area IABS    (ABS,DATA)
                            273 ;--------------------------------------------------------
                            274 ; bit data
                            275 ;--------------------------------------------------------
                            276 	.area BSEG    (BIT)
                            277 ;--------------------------------------------------------
                            278 ; paged external ram data
                            279 ;--------------------------------------------------------
                            280 	.area PSEG    (PAG,XDATA)
                            281 ;--------------------------------------------------------
                            282 ; external ram data
                            283 ;--------------------------------------------------------
                            284 	.area XSEG    (XDATA)
                    FFFE    285 _startBrk	=	0xfffe
                    FFFF    286 _endBrk	=	0xffff
                    0300    287 _m	=	0x0300
                    0400    288 _u	=	0x0400
                            289 ;--------------------------------------------------------
                            290 ; absolute external ram data
                            291 ;--------------------------------------------------------
                            292 	.area XABS    (ABS,XDATA)
   0000                     293 	.org 0x0000
   0000                     294 _n::
   0000                     295 	.ds 128
   0100                     296 	.org 0x0100
   0100                     297 _a::
   0100                     298 	.ds 128
   0200                     299 	.org 0x0200
   0200                     300 _b::
   0200                     301 	.ds 128
                            302 ;--------------------------------------------------------
                            303 ; external initialized ram data
                            304 ;--------------------------------------------------------
                            305 	.area XISEG   (XDATA)
                            306 	.area HOME    (CODE)
                            307 	.area GSINIT0 (CODE)
                            308 	.area GSINIT1 (CODE)
                            309 	.area GSINIT2 (CODE)
                            310 	.area GSINIT3 (CODE)
                            311 	.area GSINIT4 (CODE)
                            312 	.area GSINIT5 (CODE)
                            313 	.area GSINIT  (CODE)
                            314 	.area GSFINAL (CODE)
                            315 	.area CSEG    (CODE)
                            316 ;--------------------------------------------------------
                            317 ; interrupt vector 
                            318 ;--------------------------------------------------------
                            319 	.area HOME    (CODE)
   0000                     320 __interrupt_vect:
   0000 02s00r00            321 	ljmp	__sdcc_gsinit_startup
                            322 ;--------------------------------------------------------
                            323 ; global & static initialisations
                            324 ;--------------------------------------------------------
                            325 	.area HOME    (CODE)
                            326 	.area GSINIT  (CODE)
                            327 	.area GSFINAL (CODE)
                            328 	.area GSINIT  (CODE)
                            329 	.globl __sdcc_gsinit_startup
                            330 	.globl __sdcc_program_startup
                            331 	.globl __start__stack
                            332 	.globl __mcs51_genXINIT
                            333 	.globl __mcs51_genXRAMCLEAR
                            334 	.globl __mcs51_genRAMCLEAR
                            335 ;	main.c:18: unsigned short tmp  = 0;
   0000 E4                  336 	clr	a
   0001 F5*00               337 	mov	_tmp,a
   0003 F5*01               338 	mov	(_tmp + 1),a
                            339 ;	main.c:19: unsigned short i    = 0;
   0005 E4                  340 	clr	a
   0006 F5*02               341 	mov	_i,a
   0008 F5*03               342 	mov	(_i + 1),a
                            343 ;	main.c:20: unsigned short j    = 0;
   000A E4                  344 	clr	a
   000B F5*04               345 	mov	_j,a
   000D F5*05               346 	mov	(_j + 1),a
                            347 ;	main.c:22: unsigned char  c    = 0;
   000F 75*06 00            348 	mov	_c,#0x00
                            349 ;	main.c:23: unsigned short t    = 0;
   0012 E4                  350 	clr	a
   0013 F5*07               351 	mov	_t,a
   0015 F5*08               352 	mov	(_t + 1),a
                            353 ;	main.c:11: __xdata __at (0x0000) unsigned char n[SIZE] = {0xD3,0x55,0xA4,0x5F,0x57,0xF3,0xF9,0x3E,0xCF,0x84,0x6D,0xFF,0x20,0xC1,0xAE,0x12,0xCF,0xF1,0x00,0x66,0x45,0xE2,0x34,0x61,0x27,0xF2,0x57,0xB3,0x42,0x21,0x80,0x95,0xAB,0x15,0xA2,0x1D,0x53,0xB2,0x27,0xE6,0x56,0x93,0x27,0xAF,0xC2,0xEE,0x2B,0x2F,0x9A,0xAE,0x6A,0x09,0xE5,0x7F,0xAE,0x7D,0x2B,0xDD,0x58,0x2F,0x87,0x70,0x05,0x1F,0xF8,0xBD,0x0B,0xE0,0xFD,0xF1,0x81,0x60,0xBF,0xD2,0xFE,0x8F,0x7B,0xB9,0xA9,0xA4,0x6A,0x0A,0xA3,0xA3,0x70,0x22,0xBF,0x4C,0x1B,0xB0,0x41,0x24,0x4C,0x3A,0x08,0xEC,0xF4,0x91,0xFF,0x93,0x8D,0xFC,0xFA,0x4C,0x26,0x2D,0xD2,0xE9,0xFC,0x76,0xB1,0x67,0x5E,0x24,0x9E,0x31,0x66,0x5D,0x98,0x4C,0x0D,0x79,0x81,0x76,0xAC,0x1D,0xE2,0xCA};
   0017 90s00r00            354 	mov	dptr,#_n
   001A 74 D3               355 	mov	a,#0xD3
   001C F0                  356 	movx	@dptr,a
   001D 90s00r01            357 	mov	dptr,#(_n + 0x0001)
   0020 74 55               358 	mov	a,#0x55
   0022 F0                  359 	movx	@dptr,a
   0023 90s00r02            360 	mov	dptr,#(_n + 0x0002)
   0026 74 A4               361 	mov	a,#0xA4
   0028 F0                  362 	movx	@dptr,a
   0029 90s00r03            363 	mov	dptr,#(_n + 0x0003)
   002C 74 5F               364 	mov	a,#0x5F
   002E F0                  365 	movx	@dptr,a
   002F 90s00r04            366 	mov	dptr,#(_n + 0x0004)
   0032 74 57               367 	mov	a,#0x57
   0034 F0                  368 	movx	@dptr,a
   0035 90s00r05            369 	mov	dptr,#(_n + 0x0005)
   0038 74 F3               370 	mov	a,#0xF3
   003A F0                  371 	movx	@dptr,a
   003B 90s00r06            372 	mov	dptr,#(_n + 0x0006)
   003E 74 F9               373 	mov	a,#0xF9
   0040 F0                  374 	movx	@dptr,a
   0041 90s00r07            375 	mov	dptr,#(_n + 0x0007)
   0044 74 3E               376 	mov	a,#0x3E
   0046 F0                  377 	movx	@dptr,a
   0047 90s00r08            378 	mov	dptr,#(_n + 0x0008)
   004A 74 CF               379 	mov	a,#0xCF
   004C F0                  380 	movx	@dptr,a
   004D 90s00r09            381 	mov	dptr,#(_n + 0x0009)
   0050 74 84               382 	mov	a,#0x84
   0052 F0                  383 	movx	@dptr,a
   0053 90s00r0A            384 	mov	dptr,#(_n + 0x000a)
   0056 74 6D               385 	mov	a,#0x6D
   0058 F0                  386 	movx	@dptr,a
   0059 90s00r0B            387 	mov	dptr,#(_n + 0x000b)
   005C 74 FF               388 	mov	a,#0xFF
   005E F0                  389 	movx	@dptr,a
   005F 90s00r0C            390 	mov	dptr,#(_n + 0x000c)
   0062 74 20               391 	mov	a,#0x20
   0064 F0                  392 	movx	@dptr,a
   0065 90s00r0D            393 	mov	dptr,#(_n + 0x000d)
   0068 74 C1               394 	mov	a,#0xC1
   006A F0                  395 	movx	@dptr,a
   006B 90s00r0E            396 	mov	dptr,#(_n + 0x000e)
   006E 74 AE               397 	mov	a,#0xAE
   0070 F0                  398 	movx	@dptr,a
   0071 90s00r0F            399 	mov	dptr,#(_n + 0x000f)
   0074 74 12               400 	mov	a,#0x12
   0076 F0                  401 	movx	@dptr,a
   0077 90s00r10            402 	mov	dptr,#(_n + 0x0010)
   007A 74 CF               403 	mov	a,#0xCF
   007C F0                  404 	movx	@dptr,a
   007D 90s00r11            405 	mov	dptr,#(_n + 0x0011)
   0080 74 F1               406 	mov	a,#0xF1
   0082 F0                  407 	movx	@dptr,a
   0083 90s00r12            408 	mov	dptr,#(_n + 0x0012)
   0086 E4                  409 	clr	a
   0087 F0                  410 	movx	@dptr,a
   0088 90s00r13            411 	mov	dptr,#(_n + 0x0013)
   008B 74 66               412 	mov	a,#0x66
   008D F0                  413 	movx	@dptr,a
   008E 90s00r14            414 	mov	dptr,#(_n + 0x0014)
   0091 74 45               415 	mov	a,#0x45
   0093 F0                  416 	movx	@dptr,a
   0094 90s00r15            417 	mov	dptr,#(_n + 0x0015)
   0097 74 E2               418 	mov	a,#0xE2
   0099 F0                  419 	movx	@dptr,a
   009A 90s00r16            420 	mov	dptr,#(_n + 0x0016)
   009D 74 34               421 	mov	a,#0x34
   009F F0                  422 	movx	@dptr,a
   00A0 90s00r17            423 	mov	dptr,#(_n + 0x0017)
   00A3 74 61               424 	mov	a,#0x61
   00A5 F0                  425 	movx	@dptr,a
   00A6 90s00r18            426 	mov	dptr,#(_n + 0x0018)
   00A9 74 27               427 	mov	a,#0x27
   00AB F0                  428 	movx	@dptr,a
   00AC 90s00r19            429 	mov	dptr,#(_n + 0x0019)
   00AF 74 F2               430 	mov	a,#0xF2
   00B1 F0                  431 	movx	@dptr,a
   00B2 90s00r1A            432 	mov	dptr,#(_n + 0x001a)
   00B5 74 57               433 	mov	a,#0x57
   00B7 F0                  434 	movx	@dptr,a
   00B8 90s00r1B            435 	mov	dptr,#(_n + 0x001b)
   00BB 74 B3               436 	mov	a,#0xB3
   00BD F0                  437 	movx	@dptr,a
   00BE 90s00r1C            438 	mov	dptr,#(_n + 0x001c)
   00C1 74 42               439 	mov	a,#0x42
   00C3 F0                  440 	movx	@dptr,a
   00C4 90s00r1D            441 	mov	dptr,#(_n + 0x001d)
   00C7 74 21               442 	mov	a,#0x21
   00C9 F0                  443 	movx	@dptr,a
   00CA 90s00r1E            444 	mov	dptr,#(_n + 0x001e)
   00CD 74 80               445 	mov	a,#0x80
   00CF F0                  446 	movx	@dptr,a
   00D0 90s00r1F            447 	mov	dptr,#(_n + 0x001f)
   00D3 74 95               448 	mov	a,#0x95
   00D5 F0                  449 	movx	@dptr,a
   00D6 90s00r20            450 	mov	dptr,#(_n + 0x0020)
   00D9 74 AB               451 	mov	a,#0xAB
   00DB F0                  452 	movx	@dptr,a
   00DC 90s00r21            453 	mov	dptr,#(_n + 0x0021)
   00DF 74 15               454 	mov	a,#0x15
   00E1 F0                  455 	movx	@dptr,a
   00E2 90s00r22            456 	mov	dptr,#(_n + 0x0022)
   00E5 74 A2               457 	mov	a,#0xA2
   00E7 F0                  458 	movx	@dptr,a
   00E8 90s00r23            459 	mov	dptr,#(_n + 0x0023)
   00EB 74 1D               460 	mov	a,#0x1D
   00ED F0                  461 	movx	@dptr,a
   00EE 90s00r24            462 	mov	dptr,#(_n + 0x0024)
   00F1 74 53               463 	mov	a,#0x53
   00F3 F0                  464 	movx	@dptr,a
   00F4 90s00r25            465 	mov	dptr,#(_n + 0x0025)
   00F7 74 B2               466 	mov	a,#0xB2
   00F9 F0                  467 	movx	@dptr,a
   00FA 90s00r26            468 	mov	dptr,#(_n + 0x0026)
   00FD 74 27               469 	mov	a,#0x27
   00FF F0                  470 	movx	@dptr,a
   0100 90s00r27            471 	mov	dptr,#(_n + 0x0027)
   0103 74 E6               472 	mov	a,#0xE6
   0105 F0                  473 	movx	@dptr,a
   0106 90s00r28            474 	mov	dptr,#(_n + 0x0028)
   0109 74 56               475 	mov	a,#0x56
   010B F0                  476 	movx	@dptr,a
   010C 90s00r29            477 	mov	dptr,#(_n + 0x0029)
   010F 74 93               478 	mov	a,#0x93
   0111 F0                  479 	movx	@dptr,a
   0112 90s00r2A            480 	mov	dptr,#(_n + 0x002a)
   0115 74 27               481 	mov	a,#0x27
   0117 F0                  482 	movx	@dptr,a
   0118 90s00r2B            483 	mov	dptr,#(_n + 0x002b)
   011B 74 AF               484 	mov	a,#0xAF
   011D F0                  485 	movx	@dptr,a
   011E 90s00r2C            486 	mov	dptr,#(_n + 0x002c)
   0121 74 C2               487 	mov	a,#0xC2
   0123 F0                  488 	movx	@dptr,a
   0124 90s00r2D            489 	mov	dptr,#(_n + 0x002d)
   0127 74 EE               490 	mov	a,#0xEE
   0129 F0                  491 	movx	@dptr,a
   012A 90s00r2E            492 	mov	dptr,#(_n + 0x002e)
   012D 74 2B               493 	mov	a,#0x2B
   012F F0                  494 	movx	@dptr,a
   0130 90s00r2F            495 	mov	dptr,#(_n + 0x002f)
   0133 74 2F               496 	mov	a,#0x2F
   0135 F0                  497 	movx	@dptr,a
   0136 90s00r30            498 	mov	dptr,#(_n + 0x0030)
   0139 74 9A               499 	mov	a,#0x9A
   013B F0                  500 	movx	@dptr,a
   013C 90s00r31            501 	mov	dptr,#(_n + 0x0031)
   013F 74 AE               502 	mov	a,#0xAE
   0141 F0                  503 	movx	@dptr,a
   0142 90s00r32            504 	mov	dptr,#(_n + 0x0032)
   0145 74 6A               505 	mov	a,#0x6A
   0147 F0                  506 	movx	@dptr,a
   0148 90s00r33            507 	mov	dptr,#(_n + 0x0033)
   014B 74 09               508 	mov	a,#0x09
   014D F0                  509 	movx	@dptr,a
   014E 90s00r34            510 	mov	dptr,#(_n + 0x0034)
   0151 74 E5               511 	mov	a,#0xE5
   0153 F0                  512 	movx	@dptr,a
   0154 90s00r35            513 	mov	dptr,#(_n + 0x0035)
   0157 74 7F               514 	mov	a,#0x7F
   0159 F0                  515 	movx	@dptr,a
   015A 90s00r36            516 	mov	dptr,#(_n + 0x0036)
   015D 74 AE               517 	mov	a,#0xAE
   015F F0                  518 	movx	@dptr,a
   0160 90s00r37            519 	mov	dptr,#(_n + 0x0037)
   0163 74 7D               520 	mov	a,#0x7D
   0165 F0                  521 	movx	@dptr,a
   0166 90s00r38            522 	mov	dptr,#(_n + 0x0038)
   0169 74 2B               523 	mov	a,#0x2B
   016B F0                  524 	movx	@dptr,a
   016C 90s00r39            525 	mov	dptr,#(_n + 0x0039)
   016F 74 DD               526 	mov	a,#0xDD
   0171 F0                  527 	movx	@dptr,a
   0172 90s00r3A            528 	mov	dptr,#(_n + 0x003a)
   0175 74 58               529 	mov	a,#0x58
   0177 F0                  530 	movx	@dptr,a
   0178 90s00r3B            531 	mov	dptr,#(_n + 0x003b)
   017B 74 2F               532 	mov	a,#0x2F
   017D F0                  533 	movx	@dptr,a
   017E 90s00r3C            534 	mov	dptr,#(_n + 0x003c)
   0181 74 87               535 	mov	a,#0x87
   0183 F0                  536 	movx	@dptr,a
   0184 90s00r3D            537 	mov	dptr,#(_n + 0x003d)
   0187 74 70               538 	mov	a,#0x70
   0189 F0                  539 	movx	@dptr,a
   018A 90s00r3E            540 	mov	dptr,#(_n + 0x003e)
   018D 74 05               541 	mov	a,#0x05
   018F F0                  542 	movx	@dptr,a
   0190 90s00r3F            543 	mov	dptr,#(_n + 0x003f)
   0193 74 1F               544 	mov	a,#0x1F
   0195 F0                  545 	movx	@dptr,a
   0196 90s00r40            546 	mov	dptr,#(_n + 0x0040)
   0199 74 F8               547 	mov	a,#0xF8
   019B F0                  548 	movx	@dptr,a
   019C 90s00r41            549 	mov	dptr,#(_n + 0x0041)
   019F 74 BD               550 	mov	a,#0xBD
   01A1 F0                  551 	movx	@dptr,a
   01A2 90s00r42            552 	mov	dptr,#(_n + 0x0042)
   01A5 74 0B               553 	mov	a,#0x0B
   01A7 F0                  554 	movx	@dptr,a
   01A8 90s00r43            555 	mov	dptr,#(_n + 0x0043)
   01AB 74 E0               556 	mov	a,#0xE0
   01AD F0                  557 	movx	@dptr,a
   01AE 90s00r44            558 	mov	dptr,#(_n + 0x0044)
   01B1 74 FD               559 	mov	a,#0xFD
   01B3 F0                  560 	movx	@dptr,a
   01B4 90s00r45            561 	mov	dptr,#(_n + 0x0045)
   01B7 74 F1               562 	mov	a,#0xF1
   01B9 F0                  563 	movx	@dptr,a
   01BA 90s00r46            564 	mov	dptr,#(_n + 0x0046)
   01BD 74 81               565 	mov	a,#0x81
   01BF F0                  566 	movx	@dptr,a
   01C0 90s00r47            567 	mov	dptr,#(_n + 0x0047)
   01C3 74 60               568 	mov	a,#0x60
   01C5 F0                  569 	movx	@dptr,a
   01C6 90s00r48            570 	mov	dptr,#(_n + 0x0048)
   01C9 74 BF               571 	mov	a,#0xBF
   01CB F0                  572 	movx	@dptr,a
   01CC 90s00r49            573 	mov	dptr,#(_n + 0x0049)
   01CF 74 D2               574 	mov	a,#0xD2
   01D1 F0                  575 	movx	@dptr,a
   01D2 90s00r4A            576 	mov	dptr,#(_n + 0x004a)
   01D5 74 FE               577 	mov	a,#0xFE
   01D7 F0                  578 	movx	@dptr,a
   01D8 90s00r4B            579 	mov	dptr,#(_n + 0x004b)
   01DB 74 8F               580 	mov	a,#0x8F
   01DD F0                  581 	movx	@dptr,a
   01DE 90s00r4C            582 	mov	dptr,#(_n + 0x004c)
   01E1 74 7B               583 	mov	a,#0x7B
   01E3 F0                  584 	movx	@dptr,a
   01E4 90s00r4D            585 	mov	dptr,#(_n + 0x004d)
   01E7 74 B9               586 	mov	a,#0xB9
   01E9 F0                  587 	movx	@dptr,a
   01EA 90s00r4E            588 	mov	dptr,#(_n + 0x004e)
   01ED 74 A9               589 	mov	a,#0xA9
   01EF F0                  590 	movx	@dptr,a
   01F0 90s00r4F            591 	mov	dptr,#(_n + 0x004f)
   01F3 74 A4               592 	mov	a,#0xA4
   01F5 F0                  593 	movx	@dptr,a
   01F6 90s00r50            594 	mov	dptr,#(_n + 0x0050)
   01F9 74 6A               595 	mov	a,#0x6A
   01FB F0                  596 	movx	@dptr,a
   01FC 90s00r51            597 	mov	dptr,#(_n + 0x0051)
   01FF 74 0A               598 	mov	a,#0x0A
   0201 F0                  599 	movx	@dptr,a
   0202 90s00r52            600 	mov	dptr,#(_n + 0x0052)
   0205 74 A3               601 	mov	a,#0xA3
   0207 F0                  602 	movx	@dptr,a
   0208 90s00r53            603 	mov	dptr,#(_n + 0x0053)
   020B 74 A3               604 	mov	a,#0xA3
   020D F0                  605 	movx	@dptr,a
   020E 90s00r54            606 	mov	dptr,#(_n + 0x0054)
   0211 74 70               607 	mov	a,#0x70
   0213 F0                  608 	movx	@dptr,a
   0214 90s00r55            609 	mov	dptr,#(_n + 0x0055)
   0217 74 22               610 	mov	a,#0x22
   0219 F0                  611 	movx	@dptr,a
   021A 90s00r56            612 	mov	dptr,#(_n + 0x0056)
   021D 74 BF               613 	mov	a,#0xBF
   021F F0                  614 	movx	@dptr,a
   0220 90s00r57            615 	mov	dptr,#(_n + 0x0057)
   0223 74 4C               616 	mov	a,#0x4C
   0225 F0                  617 	movx	@dptr,a
   0226 90s00r58            618 	mov	dptr,#(_n + 0x0058)
   0229 74 1B               619 	mov	a,#0x1B
   022B F0                  620 	movx	@dptr,a
   022C 90s00r59            621 	mov	dptr,#(_n + 0x0059)
   022F 74 B0               622 	mov	a,#0xB0
   0231 F0                  623 	movx	@dptr,a
   0232 90s00r5A            624 	mov	dptr,#(_n + 0x005a)
   0235 74 41               625 	mov	a,#0x41
   0237 F0                  626 	movx	@dptr,a
   0238 90s00r5B            627 	mov	dptr,#(_n + 0x005b)
   023B 74 24               628 	mov	a,#0x24
   023D F0                  629 	movx	@dptr,a
   023E 90s00r5C            630 	mov	dptr,#(_n + 0x005c)
   0241 74 4C               631 	mov	a,#0x4C
   0243 F0                  632 	movx	@dptr,a
   0244 90s00r5D            633 	mov	dptr,#(_n + 0x005d)
   0247 74 3A               634 	mov	a,#0x3A
   0249 F0                  635 	movx	@dptr,a
   024A 90s00r5E            636 	mov	dptr,#(_n + 0x005e)
   024D 74 08               637 	mov	a,#0x08
   024F F0                  638 	movx	@dptr,a
   0250 90s00r5F            639 	mov	dptr,#(_n + 0x005f)
   0253 74 EC               640 	mov	a,#0xEC
   0255 F0                  641 	movx	@dptr,a
   0256 90s00r60            642 	mov	dptr,#(_n + 0x0060)
   0259 74 F4               643 	mov	a,#0xF4
   025B F0                  644 	movx	@dptr,a
   025C 90s00r61            645 	mov	dptr,#(_n + 0x0061)
   025F 74 91               646 	mov	a,#0x91
   0261 F0                  647 	movx	@dptr,a
   0262 90s00r62            648 	mov	dptr,#(_n + 0x0062)
   0265 74 FF               649 	mov	a,#0xFF
   0267 F0                  650 	movx	@dptr,a
   0268 90s00r63            651 	mov	dptr,#(_n + 0x0063)
   026B 74 93               652 	mov	a,#0x93
   026D F0                  653 	movx	@dptr,a
   026E 90s00r64            654 	mov	dptr,#(_n + 0x0064)
   0271 74 8D               655 	mov	a,#0x8D
   0273 F0                  656 	movx	@dptr,a
   0274 90s00r65            657 	mov	dptr,#(_n + 0x0065)
   0277 74 FC               658 	mov	a,#0xFC
   0279 F0                  659 	movx	@dptr,a
   027A 90s00r66            660 	mov	dptr,#(_n + 0x0066)
   027D 74 FA               661 	mov	a,#0xFA
   027F F0                  662 	movx	@dptr,a
   0280 90s00r67            663 	mov	dptr,#(_n + 0x0067)
   0283 74 4C               664 	mov	a,#0x4C
   0285 F0                  665 	movx	@dptr,a
   0286 90s00r68            666 	mov	dptr,#(_n + 0x0068)
   0289 74 26               667 	mov	a,#0x26
   028B F0                  668 	movx	@dptr,a
   028C 90s00r69            669 	mov	dptr,#(_n + 0x0069)
   028F 74 2D               670 	mov	a,#0x2D
   0291 F0                  671 	movx	@dptr,a
   0292 90s00r6A            672 	mov	dptr,#(_n + 0x006a)
   0295 74 D2               673 	mov	a,#0xD2
   0297 F0                  674 	movx	@dptr,a
   0298 90s00r6B            675 	mov	dptr,#(_n + 0x006b)
   029B 74 E9               676 	mov	a,#0xE9
   029D F0                  677 	movx	@dptr,a
   029E 90s00r6C            678 	mov	dptr,#(_n + 0x006c)
   02A1 74 FC               679 	mov	a,#0xFC
   02A3 F0                  680 	movx	@dptr,a
   02A4 90s00r6D            681 	mov	dptr,#(_n + 0x006d)
   02A7 74 76               682 	mov	a,#0x76
   02A9 F0                  683 	movx	@dptr,a
   02AA 90s00r6E            684 	mov	dptr,#(_n + 0x006e)
   02AD 74 B1               685 	mov	a,#0xB1
   02AF F0                  686 	movx	@dptr,a
   02B0 90s00r6F            687 	mov	dptr,#(_n + 0x006f)
   02B3 74 67               688 	mov	a,#0x67
   02B5 F0                  689 	movx	@dptr,a
   02B6 90s00r70            690 	mov	dptr,#(_n + 0x0070)
   02B9 74 5E               691 	mov	a,#0x5E
   02BB F0                  692 	movx	@dptr,a
   02BC 90s00r71            693 	mov	dptr,#(_n + 0x0071)
   02BF 74 24               694 	mov	a,#0x24
   02C1 F0                  695 	movx	@dptr,a
   02C2 90s00r72            696 	mov	dptr,#(_n + 0x0072)
   02C5 74 9E               697 	mov	a,#0x9E
   02C7 F0                  698 	movx	@dptr,a
   02C8 90s00r73            699 	mov	dptr,#(_n + 0x0073)
   02CB 74 31               700 	mov	a,#0x31
   02CD F0                  701 	movx	@dptr,a
   02CE 90s00r74            702 	mov	dptr,#(_n + 0x0074)
   02D1 74 66               703 	mov	a,#0x66
   02D3 F0                  704 	movx	@dptr,a
   02D4 90s00r75            705 	mov	dptr,#(_n + 0x0075)
   02D7 74 5D               706 	mov	a,#0x5D
   02D9 F0                  707 	movx	@dptr,a
   02DA 90s00r76            708 	mov	dptr,#(_n + 0x0076)
   02DD 74 98               709 	mov	a,#0x98
   02DF F0                  710 	movx	@dptr,a
   02E0 90s00r77            711 	mov	dptr,#(_n + 0x0077)
   02E3 74 4C               712 	mov	a,#0x4C
   02E5 F0                  713 	movx	@dptr,a
   02E6 90s00r78            714 	mov	dptr,#(_n + 0x0078)
   02E9 74 0D               715 	mov	a,#0x0D
   02EB F0                  716 	movx	@dptr,a
   02EC 90s00r79            717 	mov	dptr,#(_n + 0x0079)
   02EF 74 79               718 	mov	a,#0x79
   02F1 F0                  719 	movx	@dptr,a
   02F2 90s00r7A            720 	mov	dptr,#(_n + 0x007a)
   02F5 74 81               721 	mov	a,#0x81
   02F7 F0                  722 	movx	@dptr,a
   02F8 90s00r7B            723 	mov	dptr,#(_n + 0x007b)
   02FB 74 76               724 	mov	a,#0x76
   02FD F0                  725 	movx	@dptr,a
   02FE 90s00r7C            726 	mov	dptr,#(_n + 0x007c)
   0301 74 AC               727 	mov	a,#0xAC
   0303 F0                  728 	movx	@dptr,a
   0304 90s00r7D            729 	mov	dptr,#(_n + 0x007d)
   0307 74 1D               730 	mov	a,#0x1D
   0309 F0                  731 	movx	@dptr,a
   030A 90s00r7E            732 	mov	dptr,#(_n + 0x007e)
   030D 74 E2               733 	mov	a,#0xE2
   030F F0                  734 	movx	@dptr,a
   0310 90s00r7F            735 	mov	dptr,#(_n + 0x007f)
   0313 74 CA               736 	mov	a,#0xCA
   0315 F0                  737 	movx	@dptr,a
                            738 ;	main.c:12: __xdata __at (0x0100) unsigned char a[SIZE] = {0xFF,0x7F,0x14,0x64,0x47,0x68,0xC2,0xB6,0x27,0x32,0x63,0x2C,0xB0,0xC3,0x95,0x13,0xC5,0x7E,0x17,0x22,0xF3,0x7C,0x2D,0xE8,0x13,0x47,0x5E,0x15,0x4E,0xEF,0x83,0x81,0xDF,0xC3,0x47,0xD3,0x60,0xBB,0x8B,0x3E,0xB6,0x35,0xB1,0x6E,0xD1,0xD5,0xDA,0x6F,0x28,0x16,0x2C,0x74,0x36,0xF9,0x04,0x79,0xF9,0x76,0xE2,0xCC,0xA4,0x82,0xA7,0xA4,0x68,0x4E,0x24,0xA6,0xC1,0x58,0x68,0x24,0x58,0xDC,0x14,0xF9,0xFF,0x4D,0xA1,0xEF,0x53,0xA3,0xC2,0x84,0x1B,0x81,0x16,0x6C,0xDD,0xE3,0xDB,0xA8,0x03,0x8F,0xF2,0x31,0xFD,0x94,0x5D,0x26,0x13,0xC6,0x68,0xB4,0x0D,0xCD,0xF1,0xB8,0x66,0x0D,0x5D,0x3B,0x2F,0xC4,0x4A,0xD1,0x0B,0x36,0xC6,0x10,0x1A,0x2F,0x72,0xD1,0xBB,0x15,0x29,0xCA};
   0316 90s01r00            739 	mov	dptr,#_a
   0319 74 FF               740 	mov	a,#0xFF
   031B F0                  741 	movx	@dptr,a
   031C 90s01r01            742 	mov	dptr,#(_a + 0x0001)
   031F 74 7F               743 	mov	a,#0x7F
   0321 F0                  744 	movx	@dptr,a
   0322 90s01r02            745 	mov	dptr,#(_a + 0x0002)
   0325 74 14               746 	mov	a,#0x14
   0327 F0                  747 	movx	@dptr,a
   0328 90s01r03            748 	mov	dptr,#(_a + 0x0003)
   032B 74 64               749 	mov	a,#0x64
   032D F0                  750 	movx	@dptr,a
   032E 90s01r04            751 	mov	dptr,#(_a + 0x0004)
   0331 74 47               752 	mov	a,#0x47
   0333 F0                  753 	movx	@dptr,a
   0334 90s01r05            754 	mov	dptr,#(_a + 0x0005)
   0337 74 68               755 	mov	a,#0x68
   0339 F0                  756 	movx	@dptr,a
   033A 90s01r06            757 	mov	dptr,#(_a + 0x0006)
   033D 74 C2               758 	mov	a,#0xC2
   033F F0                  759 	movx	@dptr,a
   0340 90s01r07            760 	mov	dptr,#(_a + 0x0007)
   0343 74 B6               761 	mov	a,#0xB6
   0345 F0                  762 	movx	@dptr,a
   0346 90s01r08            763 	mov	dptr,#(_a + 0x0008)
   0349 74 27               764 	mov	a,#0x27
   034B F0                  765 	movx	@dptr,a
   034C 90s01r09            766 	mov	dptr,#(_a + 0x0009)
   034F 74 32               767 	mov	a,#0x32
   0351 F0                  768 	movx	@dptr,a
   0352 90s01r0A            769 	mov	dptr,#(_a + 0x000a)
   0355 74 63               770 	mov	a,#0x63
   0357 F0                  771 	movx	@dptr,a
   0358 90s01r0B            772 	mov	dptr,#(_a + 0x000b)
   035B 74 2C               773 	mov	a,#0x2C
   035D F0                  774 	movx	@dptr,a
   035E 90s01r0C            775 	mov	dptr,#(_a + 0x000c)
   0361 74 B0               776 	mov	a,#0xB0
   0363 F0                  777 	movx	@dptr,a
   0364 90s01r0D            778 	mov	dptr,#(_a + 0x000d)
   0367 74 C3               779 	mov	a,#0xC3
   0369 F0                  780 	movx	@dptr,a
   036A 90s01r0E            781 	mov	dptr,#(_a + 0x000e)
   036D 74 95               782 	mov	a,#0x95
   036F F0                  783 	movx	@dptr,a
   0370 90s01r0F            784 	mov	dptr,#(_a + 0x000f)
   0373 74 13               785 	mov	a,#0x13
   0375 F0                  786 	movx	@dptr,a
   0376 90s01r10            787 	mov	dptr,#(_a + 0x0010)
   0379 74 C5               788 	mov	a,#0xC5
   037B F0                  789 	movx	@dptr,a
   037C 90s01r11            790 	mov	dptr,#(_a + 0x0011)
   037F 74 7E               791 	mov	a,#0x7E
   0381 F0                  792 	movx	@dptr,a
   0382 90s01r12            793 	mov	dptr,#(_a + 0x0012)
   0385 74 17               794 	mov	a,#0x17
   0387 F0                  795 	movx	@dptr,a
   0388 90s01r13            796 	mov	dptr,#(_a + 0x0013)
   038B 74 22               797 	mov	a,#0x22
   038D F0                  798 	movx	@dptr,a
   038E 90s01r14            799 	mov	dptr,#(_a + 0x0014)
   0391 74 F3               800 	mov	a,#0xF3
   0393 F0                  801 	movx	@dptr,a
   0394 90s01r15            802 	mov	dptr,#(_a + 0x0015)
   0397 74 7C               803 	mov	a,#0x7C
   0399 F0                  804 	movx	@dptr,a
   039A 90s01r16            805 	mov	dptr,#(_a + 0x0016)
   039D 74 2D               806 	mov	a,#0x2D
   039F F0                  807 	movx	@dptr,a
   03A0 90s01r17            808 	mov	dptr,#(_a + 0x0017)
   03A3 74 E8               809 	mov	a,#0xE8
   03A5 F0                  810 	movx	@dptr,a
   03A6 90s01r18            811 	mov	dptr,#(_a + 0x0018)
   03A9 74 13               812 	mov	a,#0x13
   03AB F0                  813 	movx	@dptr,a
   03AC 90s01r19            814 	mov	dptr,#(_a + 0x0019)
   03AF 74 47               815 	mov	a,#0x47
   03B1 F0                  816 	movx	@dptr,a
   03B2 90s01r1A            817 	mov	dptr,#(_a + 0x001a)
   03B5 74 5E               818 	mov	a,#0x5E
   03B7 F0                  819 	movx	@dptr,a
   03B8 90s01r1B            820 	mov	dptr,#(_a + 0x001b)
   03BB 74 15               821 	mov	a,#0x15
   03BD F0                  822 	movx	@dptr,a
   03BE 90s01r1C            823 	mov	dptr,#(_a + 0x001c)
   03C1 74 4E               824 	mov	a,#0x4E
   03C3 F0                  825 	movx	@dptr,a
   03C4 90s01r1D            826 	mov	dptr,#(_a + 0x001d)
   03C7 74 EF               827 	mov	a,#0xEF
   03C9 F0                  828 	movx	@dptr,a
   03CA 90s01r1E            829 	mov	dptr,#(_a + 0x001e)
   03CD 74 83               830 	mov	a,#0x83
   03CF F0                  831 	movx	@dptr,a
   03D0 90s01r1F            832 	mov	dptr,#(_a + 0x001f)
   03D3 74 81               833 	mov	a,#0x81
   03D5 F0                  834 	movx	@dptr,a
   03D6 90s01r20            835 	mov	dptr,#(_a + 0x0020)
   03D9 74 DF               836 	mov	a,#0xDF
   03DB F0                  837 	movx	@dptr,a
   03DC 90s01r21            838 	mov	dptr,#(_a + 0x0021)
   03DF 74 C3               839 	mov	a,#0xC3
   03E1 F0                  840 	movx	@dptr,a
   03E2 90s01r22            841 	mov	dptr,#(_a + 0x0022)
   03E5 74 47               842 	mov	a,#0x47
   03E7 F0                  843 	movx	@dptr,a
   03E8 90s01r23            844 	mov	dptr,#(_a + 0x0023)
   03EB 74 D3               845 	mov	a,#0xD3
   03ED F0                  846 	movx	@dptr,a
   03EE 90s01r24            847 	mov	dptr,#(_a + 0x0024)
   03F1 74 60               848 	mov	a,#0x60
   03F3 F0                  849 	movx	@dptr,a
   03F4 90s01r25            850 	mov	dptr,#(_a + 0x0025)
   03F7 74 BB               851 	mov	a,#0xBB
   03F9 F0                  852 	movx	@dptr,a
   03FA 90s01r26            853 	mov	dptr,#(_a + 0x0026)
   03FD 74 8B               854 	mov	a,#0x8B
   03FF F0                  855 	movx	@dptr,a
   0400 90s01r27            856 	mov	dptr,#(_a + 0x0027)
   0403 74 3E               857 	mov	a,#0x3E
   0405 F0                  858 	movx	@dptr,a
   0406 90s01r28            859 	mov	dptr,#(_a + 0x0028)
   0409 74 B6               860 	mov	a,#0xB6
   040B F0                  861 	movx	@dptr,a
   040C 90s01r29            862 	mov	dptr,#(_a + 0x0029)
   040F 74 35               863 	mov	a,#0x35
   0411 F0                  864 	movx	@dptr,a
   0412 90s01r2A            865 	mov	dptr,#(_a + 0x002a)
   0415 74 B1               866 	mov	a,#0xB1
   0417 F0                  867 	movx	@dptr,a
   0418 90s01r2B            868 	mov	dptr,#(_a + 0x002b)
   041B 74 6E               869 	mov	a,#0x6E
   041D F0                  870 	movx	@dptr,a
   041E 90s01r2C            871 	mov	dptr,#(_a + 0x002c)
   0421 74 D1               872 	mov	a,#0xD1
   0423 F0                  873 	movx	@dptr,a
   0424 90s01r2D            874 	mov	dptr,#(_a + 0x002d)
   0427 74 D5               875 	mov	a,#0xD5
   0429 F0                  876 	movx	@dptr,a
   042A 90s01r2E            877 	mov	dptr,#(_a + 0x002e)
   042D 74 DA               878 	mov	a,#0xDA
   042F F0                  879 	movx	@dptr,a
   0430 90s01r2F            880 	mov	dptr,#(_a + 0x002f)
   0433 74 6F               881 	mov	a,#0x6F
   0435 F0                  882 	movx	@dptr,a
   0436 90s01r30            883 	mov	dptr,#(_a + 0x0030)
   0439 74 28               884 	mov	a,#0x28
   043B F0                  885 	movx	@dptr,a
   043C 90s01r31            886 	mov	dptr,#(_a + 0x0031)
   043F 74 16               887 	mov	a,#0x16
   0441 F0                  888 	movx	@dptr,a
   0442 90s01r32            889 	mov	dptr,#(_a + 0x0032)
   0445 74 2C               890 	mov	a,#0x2C
   0447 F0                  891 	movx	@dptr,a
   0448 90s01r33            892 	mov	dptr,#(_a + 0x0033)
   044B 74 74               893 	mov	a,#0x74
   044D F0                  894 	movx	@dptr,a
   044E 90s01r34            895 	mov	dptr,#(_a + 0x0034)
   0451 74 36               896 	mov	a,#0x36
   0453 F0                  897 	movx	@dptr,a
   0454 90s01r35            898 	mov	dptr,#(_a + 0x0035)
   0457 74 F9               899 	mov	a,#0xF9
   0459 F0                  900 	movx	@dptr,a
   045A 90s01r36            901 	mov	dptr,#(_a + 0x0036)
   045D 74 04               902 	mov	a,#0x04
   045F F0                  903 	movx	@dptr,a
   0460 90s01r37            904 	mov	dptr,#(_a + 0x0037)
   0463 74 79               905 	mov	a,#0x79
   0465 F0                  906 	movx	@dptr,a
   0466 90s01r38            907 	mov	dptr,#(_a + 0x0038)
   0469 74 F9               908 	mov	a,#0xF9
   046B F0                  909 	movx	@dptr,a
   046C 90s01r39            910 	mov	dptr,#(_a + 0x0039)
   046F 74 76               911 	mov	a,#0x76
   0471 F0                  912 	movx	@dptr,a
   0472 90s01r3A            913 	mov	dptr,#(_a + 0x003a)
   0475 74 E2               914 	mov	a,#0xE2
   0477 F0                  915 	movx	@dptr,a
   0478 90s01r3B            916 	mov	dptr,#(_a + 0x003b)
   047B 74 CC               917 	mov	a,#0xCC
   047D F0                  918 	movx	@dptr,a
   047E 90s01r3C            919 	mov	dptr,#(_a + 0x003c)
   0481 74 A4               920 	mov	a,#0xA4
   0483 F0                  921 	movx	@dptr,a
   0484 90s01r3D            922 	mov	dptr,#(_a + 0x003d)
   0487 74 82               923 	mov	a,#0x82
   0489 F0                  924 	movx	@dptr,a
   048A 90s01r3E            925 	mov	dptr,#(_a + 0x003e)
   048D 74 A7               926 	mov	a,#0xA7
   048F F0                  927 	movx	@dptr,a
   0490 90s01r3F            928 	mov	dptr,#(_a + 0x003f)
   0493 74 A4               929 	mov	a,#0xA4
   0495 F0                  930 	movx	@dptr,a
   0496 90s01r40            931 	mov	dptr,#(_a + 0x0040)
   0499 74 68               932 	mov	a,#0x68
   049B F0                  933 	movx	@dptr,a
   049C 90s01r41            934 	mov	dptr,#(_a + 0x0041)
   049F 74 4E               935 	mov	a,#0x4E
   04A1 F0                  936 	movx	@dptr,a
   04A2 90s01r42            937 	mov	dptr,#(_a + 0x0042)
   04A5 74 24               938 	mov	a,#0x24
   04A7 F0                  939 	movx	@dptr,a
   04A8 90s01r43            940 	mov	dptr,#(_a + 0x0043)
   04AB 74 A6               941 	mov	a,#0xA6
   04AD F0                  942 	movx	@dptr,a
   04AE 90s01r44            943 	mov	dptr,#(_a + 0x0044)
   04B1 74 C1               944 	mov	a,#0xC1
   04B3 F0                  945 	movx	@dptr,a
   04B4 90s01r45            946 	mov	dptr,#(_a + 0x0045)
   04B7 74 58               947 	mov	a,#0x58
   04B9 F0                  948 	movx	@dptr,a
   04BA 90s01r46            949 	mov	dptr,#(_a + 0x0046)
   04BD 74 68               950 	mov	a,#0x68
   04BF F0                  951 	movx	@dptr,a
   04C0 90s01r47            952 	mov	dptr,#(_a + 0x0047)
   04C3 74 24               953 	mov	a,#0x24
   04C5 F0                  954 	movx	@dptr,a
   04C6 90s01r48            955 	mov	dptr,#(_a + 0x0048)
   04C9 74 58               956 	mov	a,#0x58
   04CB F0                  957 	movx	@dptr,a
   04CC 90s01r49            958 	mov	dptr,#(_a + 0x0049)
   04CF 74 DC               959 	mov	a,#0xDC
   04D1 F0                  960 	movx	@dptr,a
   04D2 90s01r4A            961 	mov	dptr,#(_a + 0x004a)
   04D5 74 14               962 	mov	a,#0x14
   04D7 F0                  963 	movx	@dptr,a
   04D8 90s01r4B            964 	mov	dptr,#(_a + 0x004b)
   04DB 74 F9               965 	mov	a,#0xF9
   04DD F0                  966 	movx	@dptr,a
   04DE 90s01r4C            967 	mov	dptr,#(_a + 0x004c)
   04E1 74 FF               968 	mov	a,#0xFF
   04E3 F0                  969 	movx	@dptr,a
   04E4 90s01r4D            970 	mov	dptr,#(_a + 0x004d)
   04E7 74 4D               971 	mov	a,#0x4D
   04E9 F0                  972 	movx	@dptr,a
   04EA 90s01r4E            973 	mov	dptr,#(_a + 0x004e)
   04ED 74 A1               974 	mov	a,#0xA1
   04EF F0                  975 	movx	@dptr,a
   04F0 90s01r4F            976 	mov	dptr,#(_a + 0x004f)
   04F3 74 EF               977 	mov	a,#0xEF
   04F5 F0                  978 	movx	@dptr,a
   04F6 90s01r50            979 	mov	dptr,#(_a + 0x0050)
   04F9 74 53               980 	mov	a,#0x53
   04FB F0                  981 	movx	@dptr,a
   04FC 90s01r51            982 	mov	dptr,#(_a + 0x0051)
   04FF 74 A3               983 	mov	a,#0xA3
   0501 F0                  984 	movx	@dptr,a
   0502 90s01r52            985 	mov	dptr,#(_a + 0x0052)
   0505 74 C2               986 	mov	a,#0xC2
   0507 F0                  987 	movx	@dptr,a
   0508 90s01r53            988 	mov	dptr,#(_a + 0x0053)
   050B 74 84               989 	mov	a,#0x84
   050D F0                  990 	movx	@dptr,a
   050E 90s01r54            991 	mov	dptr,#(_a + 0x0054)
   0511 74 1B               992 	mov	a,#0x1B
   0513 F0                  993 	movx	@dptr,a
   0514 90s01r55            994 	mov	dptr,#(_a + 0x0055)
   0517 74 81               995 	mov	a,#0x81
   0519 F0                  996 	movx	@dptr,a
   051A 90s01r56            997 	mov	dptr,#(_a + 0x0056)
   051D 74 16               998 	mov	a,#0x16
   051F F0                  999 	movx	@dptr,a
   0520 90s01r57           1000 	mov	dptr,#(_a + 0x0057)
   0523 74 6C              1001 	mov	a,#0x6C
   0525 F0                 1002 	movx	@dptr,a
   0526 90s01r58           1003 	mov	dptr,#(_a + 0x0058)
   0529 74 DD              1004 	mov	a,#0xDD
   052B F0                 1005 	movx	@dptr,a
   052C 90s01r59           1006 	mov	dptr,#(_a + 0x0059)
   052F 74 E3              1007 	mov	a,#0xE3
   0531 F0                 1008 	movx	@dptr,a
   0532 90s01r5A           1009 	mov	dptr,#(_a + 0x005a)
   0535 74 DB              1010 	mov	a,#0xDB
   0537 F0                 1011 	movx	@dptr,a
   0538 90s01r5B           1012 	mov	dptr,#(_a + 0x005b)
   053B 74 A8              1013 	mov	a,#0xA8
   053D F0                 1014 	movx	@dptr,a
   053E 90s01r5C           1015 	mov	dptr,#(_a + 0x005c)
   0541 74 03              1016 	mov	a,#0x03
   0543 F0                 1017 	movx	@dptr,a
   0544 90s01r5D           1018 	mov	dptr,#(_a + 0x005d)
   0547 74 8F              1019 	mov	a,#0x8F
   0549 F0                 1020 	movx	@dptr,a
   054A 90s01r5E           1021 	mov	dptr,#(_a + 0x005e)
   054D 74 F2              1022 	mov	a,#0xF2
   054F F0                 1023 	movx	@dptr,a
   0550 90s01r5F           1024 	mov	dptr,#(_a + 0x005f)
   0553 74 31              1025 	mov	a,#0x31
   0555 F0                 1026 	movx	@dptr,a
   0556 90s01r60           1027 	mov	dptr,#(_a + 0x0060)
   0559 74 FD              1028 	mov	a,#0xFD
   055B F0                 1029 	movx	@dptr,a
   055C 90s01r61           1030 	mov	dptr,#(_a + 0x0061)
   055F 74 94              1031 	mov	a,#0x94
   0561 F0                 1032 	movx	@dptr,a
   0562 90s01r62           1033 	mov	dptr,#(_a + 0x0062)
   0565 74 5D              1034 	mov	a,#0x5D
   0567 F0                 1035 	movx	@dptr,a
   0568 90s01r63           1036 	mov	dptr,#(_a + 0x0063)
   056B 74 26              1037 	mov	a,#0x26
   056D F0                 1038 	movx	@dptr,a
   056E 90s01r64           1039 	mov	dptr,#(_a + 0x0064)
   0571 74 13              1040 	mov	a,#0x13
   0573 F0                 1041 	movx	@dptr,a
   0574 90s01r65           1042 	mov	dptr,#(_a + 0x0065)
   0577 74 C6              1043 	mov	a,#0xC6
   0579 F0                 1044 	movx	@dptr,a
   057A 90s01r66           1045 	mov	dptr,#(_a + 0x0066)
   057D 74 68              1046 	mov	a,#0x68
   057F F0                 1047 	movx	@dptr,a
   0580 90s01r67           1048 	mov	dptr,#(_a + 0x0067)
   0583 74 B4              1049 	mov	a,#0xB4
   0585 F0                 1050 	movx	@dptr,a
   0586 90s01r68           1051 	mov	dptr,#(_a + 0x0068)
   0589 74 0D              1052 	mov	a,#0x0D
   058B F0                 1053 	movx	@dptr,a
   058C 90s01r69           1054 	mov	dptr,#(_a + 0x0069)
   058F 74 CD              1055 	mov	a,#0xCD
   0591 F0                 1056 	movx	@dptr,a
   0592 90s01r6A           1057 	mov	dptr,#(_a + 0x006a)
   0595 74 F1              1058 	mov	a,#0xF1
   0597 F0                 1059 	movx	@dptr,a
   0598 90s01r6B           1060 	mov	dptr,#(_a + 0x006b)
   059B 74 B8              1061 	mov	a,#0xB8
   059D F0                 1062 	movx	@dptr,a
   059E 90s01r6C           1063 	mov	dptr,#(_a + 0x006c)
   05A1 74 66              1064 	mov	a,#0x66
   05A3 F0                 1065 	movx	@dptr,a
   05A4 90s01r6D           1066 	mov	dptr,#(_a + 0x006d)
   05A7 74 0D              1067 	mov	a,#0x0D
   05A9 F0                 1068 	movx	@dptr,a
   05AA 90s01r6E           1069 	mov	dptr,#(_a + 0x006e)
   05AD 74 5D              1070 	mov	a,#0x5D
   05AF F0                 1071 	movx	@dptr,a
   05B0 90s01r6F           1072 	mov	dptr,#(_a + 0x006f)
   05B3 74 3B              1073 	mov	a,#0x3B
   05B5 F0                 1074 	movx	@dptr,a
   05B6 90s01r70           1075 	mov	dptr,#(_a + 0x0070)
   05B9 74 2F              1076 	mov	a,#0x2F
   05BB F0                 1077 	movx	@dptr,a
   05BC 90s01r71           1078 	mov	dptr,#(_a + 0x0071)
   05BF 74 C4              1079 	mov	a,#0xC4
   05C1 F0                 1080 	movx	@dptr,a
   05C2 90s01r72           1081 	mov	dptr,#(_a + 0x0072)
   05C5 74 4A              1082 	mov	a,#0x4A
   05C7 F0                 1083 	movx	@dptr,a
   05C8 90s01r73           1084 	mov	dptr,#(_a + 0x0073)
   05CB 74 D1              1085 	mov	a,#0xD1
   05CD F0                 1086 	movx	@dptr,a
   05CE 90s01r74           1087 	mov	dptr,#(_a + 0x0074)
   05D1 74 0B              1088 	mov	a,#0x0B
   05D3 F0                 1089 	movx	@dptr,a
   05D4 90s01r75           1090 	mov	dptr,#(_a + 0x0075)
   05D7 74 36              1091 	mov	a,#0x36
   05D9 F0                 1092 	movx	@dptr,a
   05DA 90s01r76           1093 	mov	dptr,#(_a + 0x0076)
   05DD 74 C6              1094 	mov	a,#0xC6
   05DF F0                 1095 	movx	@dptr,a
   05E0 90s01r77           1096 	mov	dptr,#(_a + 0x0077)
   05E3 74 10              1097 	mov	a,#0x10
   05E5 F0                 1098 	movx	@dptr,a
   05E6 90s01r78           1099 	mov	dptr,#(_a + 0x0078)
   05E9 74 1A              1100 	mov	a,#0x1A
   05EB F0                 1101 	movx	@dptr,a
   05EC 90s01r79           1102 	mov	dptr,#(_a + 0x0079)
   05EF 74 2F              1103 	mov	a,#0x2F
   05F1 F0                 1104 	movx	@dptr,a
   05F2 90s01r7A           1105 	mov	dptr,#(_a + 0x007a)
   05F5 74 72              1106 	mov	a,#0x72
   05F7 F0                 1107 	movx	@dptr,a
   05F8 90s01r7B           1108 	mov	dptr,#(_a + 0x007b)
   05FB 74 D1              1109 	mov	a,#0xD1
   05FD F0                 1110 	movx	@dptr,a
   05FE 90s01r7C           1111 	mov	dptr,#(_a + 0x007c)
   0601 74 BB              1112 	mov	a,#0xBB
   0603 F0                 1113 	movx	@dptr,a
   0604 90s01r7D           1114 	mov	dptr,#(_a + 0x007d)
   0607 74 15              1115 	mov	a,#0x15
   0609 F0                 1116 	movx	@dptr,a
   060A 90s01r7E           1117 	mov	dptr,#(_a + 0x007e)
   060D 74 29              1118 	mov	a,#0x29
   060F F0                 1119 	movx	@dptr,a
   0610 90s01r7F           1120 	mov	dptr,#(_a + 0x007f)
   0613 74 CA              1121 	mov	a,#0xCA
   0615 F0                 1122 	movx	@dptr,a
                           1123 ;	main.c:13: __xdata __at (0x0200) unsigned char b[SIZE] = {0xE1,0x8A,0x03,0xDB,0xE0,0xD9,0xF6,0x55,0xB6,0x27,0x0A,0x28,0xF0,0x5E,0x74,0x7F,0xE6,0x9F,0x4C,0xFB,0x26,0x8C,0x9E,0x87,0x83,0x22,0xF2,0x75,0xD2,0xB3,0x61,0xA2,0x9D,0x50,0x71,0x5E,0xC9,0xDD,0xDD,0x74,0x0A,0x3C,0xC0,0x30,0x3E,0xE5,0x20,0x02,0xB3,0x12,0x4F,0xAB,0x60,0x27,0x07,0x17,0xDD,0x00,0xC2,0xE1,0xBC,0x04,0xAE,0x21,0x38,0xCA,0xAA,0x8F,0x74,0xD5,0x02,0x10,0x15,0x87,0x58,0x08,0xCC,0x9A,0x42,0xBD,0x02,0x97,0xCE,0x2B,0x39,0x38,0x99,0xAC,0x81,0xBB,0xC3,0xFF,0xBC,0xC1,0xB8,0xE1,0x24,0x8D,0xC5,0x20,0x89,0x98,0x0B,0x50,0xB1,0x16,0x9A,0x2D,0x6E,0x5A,0x7B,0x2F,0xD4,0x92,0xA1,0xAA,0xA6,0xE5,0xA6,0xD2,0x0D,0x0B,0xB7,0xB2,0x25,0x23,0x23,0xBE};
   0616 90s02r00           1124 	mov	dptr,#_b
   0619 74 E1              1125 	mov	a,#0xE1
   061B F0                 1126 	movx	@dptr,a
   061C 90s02r01           1127 	mov	dptr,#(_b + 0x0001)
   061F 74 8A              1128 	mov	a,#0x8A
   0621 F0                 1129 	movx	@dptr,a
   0622 90s02r02           1130 	mov	dptr,#(_b + 0x0002)
   0625 74 03              1131 	mov	a,#0x03
   0627 F0                 1132 	movx	@dptr,a
   0628 90s02r03           1133 	mov	dptr,#(_b + 0x0003)
   062B 74 DB              1134 	mov	a,#0xDB
   062D F0                 1135 	movx	@dptr,a
   062E 90s02r04           1136 	mov	dptr,#(_b + 0x0004)
   0631 74 E0              1137 	mov	a,#0xE0
   0633 F0                 1138 	movx	@dptr,a
   0634 90s02r05           1139 	mov	dptr,#(_b + 0x0005)
   0637 74 D9              1140 	mov	a,#0xD9
   0639 F0                 1141 	movx	@dptr,a
   063A 90s02r06           1142 	mov	dptr,#(_b + 0x0006)
   063D 74 F6              1143 	mov	a,#0xF6
   063F F0                 1144 	movx	@dptr,a
   0640 90s02r07           1145 	mov	dptr,#(_b + 0x0007)
   0643 74 55              1146 	mov	a,#0x55
   0645 F0                 1147 	movx	@dptr,a
   0646 90s02r08           1148 	mov	dptr,#(_b + 0x0008)
   0649 74 B6              1149 	mov	a,#0xB6
   064B F0                 1150 	movx	@dptr,a
   064C 90s02r09           1151 	mov	dptr,#(_b + 0x0009)
   064F 74 27              1152 	mov	a,#0x27
   0651 F0                 1153 	movx	@dptr,a
   0652 90s02r0A           1154 	mov	dptr,#(_b + 0x000a)
   0655 74 0A              1155 	mov	a,#0x0A
   0657 F0                 1156 	movx	@dptr,a
   0658 90s02r0B           1157 	mov	dptr,#(_b + 0x000b)
   065B 74 28              1158 	mov	a,#0x28
   065D F0                 1159 	movx	@dptr,a
   065E 90s02r0C           1160 	mov	dptr,#(_b + 0x000c)
   0661 74 F0              1161 	mov	a,#0xF0
   0663 F0                 1162 	movx	@dptr,a
   0664 90s02r0D           1163 	mov	dptr,#(_b + 0x000d)
   0667 74 5E              1164 	mov	a,#0x5E
   0669 F0                 1165 	movx	@dptr,a
   066A 90s02r0E           1166 	mov	dptr,#(_b + 0x000e)
   066D 74 74              1167 	mov	a,#0x74
   066F F0                 1168 	movx	@dptr,a
   0670 90s02r0F           1169 	mov	dptr,#(_b + 0x000f)
   0673 74 7F              1170 	mov	a,#0x7F
   0675 F0                 1171 	movx	@dptr,a
   0676 90s02r10           1172 	mov	dptr,#(_b + 0x0010)
   0679 74 E6              1173 	mov	a,#0xE6
   067B F0                 1174 	movx	@dptr,a
   067C 90s02r11           1175 	mov	dptr,#(_b + 0x0011)
   067F 74 9F              1176 	mov	a,#0x9F
   0681 F0                 1177 	movx	@dptr,a
   0682 90s02r12           1178 	mov	dptr,#(_b + 0x0012)
   0685 74 4C              1179 	mov	a,#0x4C
   0687 F0                 1180 	movx	@dptr,a
   0688 90s02r13           1181 	mov	dptr,#(_b + 0x0013)
   068B 74 FB              1182 	mov	a,#0xFB
   068D F0                 1183 	movx	@dptr,a
   068E 90s02r14           1184 	mov	dptr,#(_b + 0x0014)
   0691 74 26              1185 	mov	a,#0x26
   0693 F0                 1186 	movx	@dptr,a
   0694 90s02r15           1187 	mov	dptr,#(_b + 0x0015)
   0697 74 8C              1188 	mov	a,#0x8C
   0699 F0                 1189 	movx	@dptr,a
   069A 90s02r16           1190 	mov	dptr,#(_b + 0x0016)
   069D 74 9E              1191 	mov	a,#0x9E
   069F F0                 1192 	movx	@dptr,a
   06A0 90s02r17           1193 	mov	dptr,#(_b + 0x0017)
   06A3 74 87              1194 	mov	a,#0x87
   06A5 F0                 1195 	movx	@dptr,a
   06A6 90s02r18           1196 	mov	dptr,#(_b + 0x0018)
   06A9 74 83              1197 	mov	a,#0x83
   06AB F0                 1198 	movx	@dptr,a
   06AC 90s02r19           1199 	mov	dptr,#(_b + 0x0019)
   06AF 74 22              1200 	mov	a,#0x22
   06B1 F0                 1201 	movx	@dptr,a
   06B2 90s02r1A           1202 	mov	dptr,#(_b + 0x001a)
   06B5 74 F2              1203 	mov	a,#0xF2
   06B7 F0                 1204 	movx	@dptr,a
   06B8 90s02r1B           1205 	mov	dptr,#(_b + 0x001b)
   06BB 74 75              1206 	mov	a,#0x75
   06BD F0                 1207 	movx	@dptr,a
   06BE 90s02r1C           1208 	mov	dptr,#(_b + 0x001c)
   06C1 74 D2              1209 	mov	a,#0xD2
   06C3 F0                 1210 	movx	@dptr,a
   06C4 90s02r1D           1211 	mov	dptr,#(_b + 0x001d)
   06C7 74 B3              1212 	mov	a,#0xB3
   06C9 F0                 1213 	movx	@dptr,a
   06CA 90s02r1E           1214 	mov	dptr,#(_b + 0x001e)
   06CD 74 61              1215 	mov	a,#0x61
   06CF F0                 1216 	movx	@dptr,a
   06D0 90s02r1F           1217 	mov	dptr,#(_b + 0x001f)
   06D3 74 A2              1218 	mov	a,#0xA2
   06D5 F0                 1219 	movx	@dptr,a
   06D6 90s02r20           1220 	mov	dptr,#(_b + 0x0020)
   06D9 74 9D              1221 	mov	a,#0x9D
   06DB F0                 1222 	movx	@dptr,a
   06DC 90s02r21           1223 	mov	dptr,#(_b + 0x0021)
   06DF 74 50              1224 	mov	a,#0x50
   06E1 F0                 1225 	movx	@dptr,a
   06E2 90s02r22           1226 	mov	dptr,#(_b + 0x0022)
   06E5 74 71              1227 	mov	a,#0x71
   06E7 F0                 1228 	movx	@dptr,a
   06E8 90s02r23           1229 	mov	dptr,#(_b + 0x0023)
   06EB 74 5E              1230 	mov	a,#0x5E
   06ED F0                 1231 	movx	@dptr,a
   06EE 90s02r24           1232 	mov	dptr,#(_b + 0x0024)
   06F1 74 C9              1233 	mov	a,#0xC9
   06F3 F0                 1234 	movx	@dptr,a
   06F4 90s02r25           1235 	mov	dptr,#(_b + 0x0025)
   06F7 74 DD              1236 	mov	a,#0xDD
   06F9 F0                 1237 	movx	@dptr,a
   06FA 90s02r26           1238 	mov	dptr,#(_b + 0x0026)
   06FD 74 DD              1239 	mov	a,#0xDD
   06FF F0                 1240 	movx	@dptr,a
   0700 90s02r27           1241 	mov	dptr,#(_b + 0x0027)
   0703 74 74              1242 	mov	a,#0x74
   0705 F0                 1243 	movx	@dptr,a
   0706 90s02r28           1244 	mov	dptr,#(_b + 0x0028)
   0709 74 0A              1245 	mov	a,#0x0A
   070B F0                 1246 	movx	@dptr,a
   070C 90s02r29           1247 	mov	dptr,#(_b + 0x0029)
   070F 74 3C              1248 	mov	a,#0x3C
   0711 F0                 1249 	movx	@dptr,a
   0712 90s02r2A           1250 	mov	dptr,#(_b + 0x002a)
   0715 74 C0              1251 	mov	a,#0xC0
   0717 F0                 1252 	movx	@dptr,a
   0718 90s02r2B           1253 	mov	dptr,#(_b + 0x002b)
   071B 74 30              1254 	mov	a,#0x30
   071D F0                 1255 	movx	@dptr,a
   071E 90s02r2C           1256 	mov	dptr,#(_b + 0x002c)
   0721 74 3E              1257 	mov	a,#0x3E
   0723 F0                 1258 	movx	@dptr,a
   0724 90s02r2D           1259 	mov	dptr,#(_b + 0x002d)
   0727 74 E5              1260 	mov	a,#0xE5
   0729 F0                 1261 	movx	@dptr,a
   072A 90s02r2E           1262 	mov	dptr,#(_b + 0x002e)
   072D 74 20              1263 	mov	a,#0x20
   072F F0                 1264 	movx	@dptr,a
   0730 90s02r2F           1265 	mov	dptr,#(_b + 0x002f)
   0733 74 02              1266 	mov	a,#0x02
   0735 F0                 1267 	movx	@dptr,a
   0736 90s02r30           1268 	mov	dptr,#(_b + 0x0030)
   0739 74 B3              1269 	mov	a,#0xB3
   073B F0                 1270 	movx	@dptr,a
   073C 90s02r31           1271 	mov	dptr,#(_b + 0x0031)
   073F 74 12              1272 	mov	a,#0x12
   0741 F0                 1273 	movx	@dptr,a
   0742 90s02r32           1274 	mov	dptr,#(_b + 0x0032)
   0745 74 4F              1275 	mov	a,#0x4F
   0747 F0                 1276 	movx	@dptr,a
   0748 90s02r33           1277 	mov	dptr,#(_b + 0x0033)
   074B 74 AB              1278 	mov	a,#0xAB
   074D F0                 1279 	movx	@dptr,a
   074E 90s02r34           1280 	mov	dptr,#(_b + 0x0034)
   0751 74 60              1281 	mov	a,#0x60
   0753 F0                 1282 	movx	@dptr,a
   0754 90s02r35           1283 	mov	dptr,#(_b + 0x0035)
   0757 74 27              1284 	mov	a,#0x27
   0759 F0                 1285 	movx	@dptr,a
   075A 90s02r36           1286 	mov	dptr,#(_b + 0x0036)
   075D 74 07              1287 	mov	a,#0x07
   075F F0                 1288 	movx	@dptr,a
   0760 90s02r37           1289 	mov	dptr,#(_b + 0x0037)
   0763 74 17              1290 	mov	a,#0x17
   0765 F0                 1291 	movx	@dptr,a
   0766 90s02r38           1292 	mov	dptr,#(_b + 0x0038)
   0769 74 DD              1293 	mov	a,#0xDD
   076B F0                 1294 	movx	@dptr,a
   076C 90s02r39           1295 	mov	dptr,#(_b + 0x0039)
   076F E4                 1296 	clr	a
   0770 F0                 1297 	movx	@dptr,a
   0771 90s02r3A           1298 	mov	dptr,#(_b + 0x003a)
   0774 74 C2              1299 	mov	a,#0xC2
   0776 F0                 1300 	movx	@dptr,a
   0777 90s02r3B           1301 	mov	dptr,#(_b + 0x003b)
   077A 74 E1              1302 	mov	a,#0xE1
   077C F0                 1303 	movx	@dptr,a
   077D 90s02r3C           1304 	mov	dptr,#(_b + 0x003c)
   0780 74 BC              1305 	mov	a,#0xBC
   0782 F0                 1306 	movx	@dptr,a
   0783 90s02r3D           1307 	mov	dptr,#(_b + 0x003d)
   0786 74 04              1308 	mov	a,#0x04
   0788 F0                 1309 	movx	@dptr,a
   0789 90s02r3E           1310 	mov	dptr,#(_b + 0x003e)
   078C 74 AE              1311 	mov	a,#0xAE
   078E F0                 1312 	movx	@dptr,a
   078F 90s02r3F           1313 	mov	dptr,#(_b + 0x003f)
   0792 74 21              1314 	mov	a,#0x21
   0794 F0                 1315 	movx	@dptr,a
   0795 90s02r40           1316 	mov	dptr,#(_b + 0x0040)
   0798 74 38              1317 	mov	a,#0x38
   079A F0                 1318 	movx	@dptr,a
   079B 90s02r41           1319 	mov	dptr,#(_b + 0x0041)
   079E 74 CA              1320 	mov	a,#0xCA
   07A0 F0                 1321 	movx	@dptr,a
   07A1 90s02r42           1322 	mov	dptr,#(_b + 0x0042)
   07A4 74 AA              1323 	mov	a,#0xAA
   07A6 F0                 1324 	movx	@dptr,a
   07A7 90s02r43           1325 	mov	dptr,#(_b + 0x0043)
   07AA 74 8F              1326 	mov	a,#0x8F
   07AC F0                 1327 	movx	@dptr,a
   07AD 90s02r44           1328 	mov	dptr,#(_b + 0x0044)
   07B0 74 74              1329 	mov	a,#0x74
   07B2 F0                 1330 	movx	@dptr,a
   07B3 90s02r45           1331 	mov	dptr,#(_b + 0x0045)
   07B6 74 D5              1332 	mov	a,#0xD5
   07B8 F0                 1333 	movx	@dptr,a
   07B9 90s02r46           1334 	mov	dptr,#(_b + 0x0046)
   07BC 74 02              1335 	mov	a,#0x02
   07BE F0                 1336 	movx	@dptr,a
   07BF 90s02r47           1337 	mov	dptr,#(_b + 0x0047)
   07C2 74 10              1338 	mov	a,#0x10
   07C4 F0                 1339 	movx	@dptr,a
   07C5 90s02r48           1340 	mov	dptr,#(_b + 0x0048)
   07C8 74 15              1341 	mov	a,#0x15
   07CA F0                 1342 	movx	@dptr,a
   07CB 90s02r49           1343 	mov	dptr,#(_b + 0x0049)
   07CE 74 87              1344 	mov	a,#0x87
   07D0 F0                 1345 	movx	@dptr,a
   07D1 90s02r4A           1346 	mov	dptr,#(_b + 0x004a)
   07D4 74 58              1347 	mov	a,#0x58
   07D6 F0                 1348 	movx	@dptr,a
   07D7 90s02r4B           1349 	mov	dptr,#(_b + 0x004b)
   07DA 74 08              1350 	mov	a,#0x08
   07DC F0                 1351 	movx	@dptr,a
   07DD 90s02r4C           1352 	mov	dptr,#(_b + 0x004c)
   07E0 74 CC              1353 	mov	a,#0xCC
   07E2 F0                 1354 	movx	@dptr,a
   07E3 90s02r4D           1355 	mov	dptr,#(_b + 0x004d)
   07E6 74 9A              1356 	mov	a,#0x9A
   07E8 F0                 1357 	movx	@dptr,a
   07E9 90s02r4E           1358 	mov	dptr,#(_b + 0x004e)
   07EC 74 42              1359 	mov	a,#0x42
   07EE F0                 1360 	movx	@dptr,a
   07EF 90s02r4F           1361 	mov	dptr,#(_b + 0x004f)
   07F2 74 BD              1362 	mov	a,#0xBD
   07F4 F0                 1363 	movx	@dptr,a
   07F5 90s02r50           1364 	mov	dptr,#(_b + 0x0050)
   07F8 74 02              1365 	mov	a,#0x02
   07FA F0                 1366 	movx	@dptr,a
   07FB 90s02r51           1367 	mov	dptr,#(_b + 0x0051)
   07FE 74 97              1368 	mov	a,#0x97
   0800 F0                 1369 	movx	@dptr,a
   0801 90s02r52           1370 	mov	dptr,#(_b + 0x0052)
   0804 74 CE              1371 	mov	a,#0xCE
   0806 F0                 1372 	movx	@dptr,a
   0807 90s02r53           1373 	mov	dptr,#(_b + 0x0053)
   080A 74 2B              1374 	mov	a,#0x2B
   080C F0                 1375 	movx	@dptr,a
   080D 90s02r54           1376 	mov	dptr,#(_b + 0x0054)
   0810 74 39              1377 	mov	a,#0x39
   0812 F0                 1378 	movx	@dptr,a
   0813 90s02r55           1379 	mov	dptr,#(_b + 0x0055)
   0816 74 38              1380 	mov	a,#0x38
   0818 F0                 1381 	movx	@dptr,a
   0819 90s02r56           1382 	mov	dptr,#(_b + 0x0056)
   081C 74 99              1383 	mov	a,#0x99
   081E F0                 1384 	movx	@dptr,a
   081F 90s02r57           1385 	mov	dptr,#(_b + 0x0057)
   0822 74 AC              1386 	mov	a,#0xAC
   0824 F0                 1387 	movx	@dptr,a
   0825 90s02r58           1388 	mov	dptr,#(_b + 0x0058)
   0828 74 81              1389 	mov	a,#0x81
   082A F0                 1390 	movx	@dptr,a
   082B 90s02r59           1391 	mov	dptr,#(_b + 0x0059)
   082E 74 BB              1392 	mov	a,#0xBB
   0830 F0                 1393 	movx	@dptr,a
   0831 90s02r5A           1394 	mov	dptr,#(_b + 0x005a)
   0834 74 C3              1395 	mov	a,#0xC3
   0836 F0                 1396 	movx	@dptr,a
   0837 90s02r5B           1397 	mov	dptr,#(_b + 0x005b)
   083A 74 FF              1398 	mov	a,#0xFF
   083C F0                 1399 	movx	@dptr,a
   083D 90s02r5C           1400 	mov	dptr,#(_b + 0x005c)
   0840 74 BC              1401 	mov	a,#0xBC
   0842 F0                 1402 	movx	@dptr,a
   0843 90s02r5D           1403 	mov	dptr,#(_b + 0x005d)
   0846 74 C1              1404 	mov	a,#0xC1
   0848 F0                 1405 	movx	@dptr,a
   0849 90s02r5E           1406 	mov	dptr,#(_b + 0x005e)
   084C 74 B8              1407 	mov	a,#0xB8
   084E F0                 1408 	movx	@dptr,a
   084F 90s02r5F           1409 	mov	dptr,#(_b + 0x005f)
   0852 74 E1              1410 	mov	a,#0xE1
   0854 F0                 1411 	movx	@dptr,a
   0855 90s02r60           1412 	mov	dptr,#(_b + 0x0060)
   0858 74 24              1413 	mov	a,#0x24
   085A F0                 1414 	movx	@dptr,a
   085B 90s02r61           1415 	mov	dptr,#(_b + 0x0061)
   085E 74 8D              1416 	mov	a,#0x8D
   0860 F0                 1417 	movx	@dptr,a
   0861 90s02r62           1418 	mov	dptr,#(_b + 0x0062)
   0864 74 C5              1419 	mov	a,#0xC5
   0866 F0                 1420 	movx	@dptr,a
   0867 90s02r63           1421 	mov	dptr,#(_b + 0x0063)
   086A 74 20              1422 	mov	a,#0x20
   086C F0                 1423 	movx	@dptr,a
   086D 90s02r64           1424 	mov	dptr,#(_b + 0x0064)
   0870 74 89              1425 	mov	a,#0x89
   0872 F0                 1426 	movx	@dptr,a
   0873 90s02r65           1427 	mov	dptr,#(_b + 0x0065)
   0876 74 98              1428 	mov	a,#0x98
   0878 F0                 1429 	movx	@dptr,a
   0879 90s02r66           1430 	mov	dptr,#(_b + 0x0066)
   087C 74 0B              1431 	mov	a,#0x0B
   087E F0                 1432 	movx	@dptr,a
   087F 90s02r67           1433 	mov	dptr,#(_b + 0x0067)
   0882 74 50              1434 	mov	a,#0x50
   0884 F0                 1435 	movx	@dptr,a
   0885 90s02r68           1436 	mov	dptr,#(_b + 0x0068)
   0888 74 B1              1437 	mov	a,#0xB1
   088A F0                 1438 	movx	@dptr,a
   088B 90s02r69           1439 	mov	dptr,#(_b + 0x0069)
   088E 74 16              1440 	mov	a,#0x16
   0890 F0                 1441 	movx	@dptr,a
   0891 90s02r6A           1442 	mov	dptr,#(_b + 0x006a)
   0894 74 9A              1443 	mov	a,#0x9A
   0896 F0                 1444 	movx	@dptr,a
   0897 90s02r6B           1445 	mov	dptr,#(_b + 0x006b)
   089A 74 2D              1446 	mov	a,#0x2D
   089C F0                 1447 	movx	@dptr,a
   089D 90s02r6C           1448 	mov	dptr,#(_b + 0x006c)
   08A0 74 6E              1449 	mov	a,#0x6E
   08A2 F0                 1450 	movx	@dptr,a
   08A3 90s02r6D           1451 	mov	dptr,#(_b + 0x006d)
   08A6 74 5A              1452 	mov	a,#0x5A
   08A8 F0                 1453 	movx	@dptr,a
   08A9 90s02r6E           1454 	mov	dptr,#(_b + 0x006e)
   08AC 74 7B              1455 	mov	a,#0x7B
   08AE F0                 1456 	movx	@dptr,a
   08AF 90s02r6F           1457 	mov	dptr,#(_b + 0x006f)
   08B2 74 2F              1458 	mov	a,#0x2F
   08B4 F0                 1459 	movx	@dptr,a
   08B5 90s02r70           1460 	mov	dptr,#(_b + 0x0070)
   08B8 74 D4              1461 	mov	a,#0xD4
   08BA F0                 1462 	movx	@dptr,a
   08BB 90s02r71           1463 	mov	dptr,#(_b + 0x0071)
   08BE 74 92              1464 	mov	a,#0x92
   08C0 F0                 1465 	movx	@dptr,a
   08C1 90s02r72           1466 	mov	dptr,#(_b + 0x0072)
   08C4 74 A1              1467 	mov	a,#0xA1
   08C6 F0                 1468 	movx	@dptr,a
   08C7 90s02r73           1469 	mov	dptr,#(_b + 0x0073)
   08CA 74 AA              1470 	mov	a,#0xAA
   08CC F0                 1471 	movx	@dptr,a
   08CD 90s02r74           1472 	mov	dptr,#(_b + 0x0074)
   08D0 74 A6              1473 	mov	a,#0xA6
   08D2 F0                 1474 	movx	@dptr,a
   08D3 90s02r75           1475 	mov	dptr,#(_b + 0x0075)
   08D6 74 E5              1476 	mov	a,#0xE5
   08D8 F0                 1477 	movx	@dptr,a
   08D9 90s02r76           1478 	mov	dptr,#(_b + 0x0076)
   08DC 74 A6              1479 	mov	a,#0xA6
   08DE F0                 1480 	movx	@dptr,a
   08DF 90s02r77           1481 	mov	dptr,#(_b + 0x0077)
   08E2 74 D2              1482 	mov	a,#0xD2
   08E4 F0                 1483 	movx	@dptr,a
   08E5 90s02r78           1484 	mov	dptr,#(_b + 0x0078)
   08E8 74 0D              1485 	mov	a,#0x0D
   08EA F0                 1486 	movx	@dptr,a
   08EB 90s02r79           1487 	mov	dptr,#(_b + 0x0079)
   08EE 74 0B              1488 	mov	a,#0x0B
   08F0 F0                 1489 	movx	@dptr,a
   08F1 90s02r7A           1490 	mov	dptr,#(_b + 0x007a)
   08F4 74 B7              1491 	mov	a,#0xB7
   08F6 F0                 1492 	movx	@dptr,a
   08F7 90s02r7B           1493 	mov	dptr,#(_b + 0x007b)
   08FA 74 B2              1494 	mov	a,#0xB2
   08FC F0                 1495 	movx	@dptr,a
   08FD 90s02r7C           1496 	mov	dptr,#(_b + 0x007c)
   0900 74 25              1497 	mov	a,#0x25
   0902 F0                 1498 	movx	@dptr,a
   0903 90s02r7D           1499 	mov	dptr,#(_b + 0x007d)
   0906 74 23              1500 	mov	a,#0x23
   0908 F0                 1501 	movx	@dptr,a
   0909 90s02r7E           1502 	mov	dptr,#(_b + 0x007e)
   090C 74 23              1503 	mov	a,#0x23
   090E F0                 1504 	movx	@dptr,a
   090F 90s02r7F           1505 	mov	dptr,#(_b + 0x007f)
   0912 74 BE              1506 	mov	a,#0xBE
   0914 F0                 1507 	movx	@dptr,a
                           1508 	.area GSFINAL (CODE)
   0000 02s00r03           1509 	ljmp	__sdcc_program_startup
                           1510 ;--------------------------------------------------------
                           1511 ; Home
                           1512 ;--------------------------------------------------------
                           1513 	.area HOME    (CODE)
                           1514 	.area HOME    (CODE)
   0003                    1515 __sdcc_program_startup:
   0003 12s00r00           1516 	lcall	_main
                           1517 ;	return from main will lock up
   0006 80 FE              1518 	sjmp .
                           1519 ;--------------------------------------------------------
                           1520 ; code
                           1521 ;--------------------------------------------------------
                           1522 	.area CSEG    (CODE)
                           1523 ;------------------------------------------------------------
                           1524 ;Allocation info for local variables in function 'main'
                           1525 ;------------------------------------------------------------
                           1526 ;------------------------------------------------------------
                           1527 ;	main.c:29: int main() {
                           1528 ;	-----------------------------------------
                           1529 ;	 function main
                           1530 ;	-----------------------------------------
   0000                    1531 _main:
                    0002   1532 	ar2 = 0x02
                    0003   1533 	ar3 = 0x03
                    0004   1534 	ar4 = 0x04
                    0005   1535 	ar5 = 0x05
                    0006   1536 	ar6 = 0x06
                    0007   1537 	ar7 = 0x07
                    0000   1538 	ar0 = 0x00
                    0001   1539 	ar1 = 0x01
                           1540 ;	main.c:30: startBrk=1;
   0000 90 FF FE           1541 	mov	dptr,#_startBrk
   0003 74 01              1542 	mov	a,#0x01
   0005 F0                 1543 	movx	@dptr,a
                           1544 ;	main.c:38: __endasm;
                           1545 	
   0006 85 00 82           1546 	        mov dpl, 0x00
   0009 75 83s00           1547 	        mov dph,#(_n >> 8)
   000C E0                 1548 	        movx a,@dptr
   000D FA                 1549 	        mov r2, a
                           1550 	    
                           1551 ;	main.c:46: __endasm;
                           1552 	
   000E 85 00 82           1553 	        mov dpl, 0x00
   0011 75 83s02           1554 	        mov dph,#(_b >> 8)
   0014 E0                 1555 	        movx a,@dptr
   0015 FB                 1556 	        mov r3, a
                           1557 	    
                           1558 ;	main.c:112: __endasm;
                           1559 	
   0016 89*09              1560 	        mov _stack, r1
   0018 C0*09              1561 	        push _stack
                           1562 	
                           1563         ; load a[0]
   001A 75 82 00           1564 	        mov dpl, #0x00
   001D 75 83s01           1565 	        mov dph, #(_a >> 8)
   0020 E0                 1566 	        movx a, @dptr
   0021 F5 F0              1567 	        mov b, a
                           1568 	
                           1569         ; load b0
   0023 EB                 1570 	        mov a, r3
                           1571 	
                           1572         ; a[0]*b0
   0024 A4                 1573 	        mul ab
                           1574 	
                           1575         ; tmp = (unsigned char)(tmp) + a[0]*b0
   0025 25*00              1576 	        add a, _tmp
   0027 F5*00              1577 	        mov _tmp, a
                           1578 	
                           1579         ; t = t + (tmp >> 8)
   0029 E5 F0              1580 	        mov a, b
   002B 35*07              1581 	        addc a, _t
   002D F5*07              1582 	        mov _t, a
   002F E4                 1583 	        clr a
   0030 35*08              1584 	        addc a, (_t + 1)
   0032 F5*08              1585 	        mov (_t + 1), a
                           1586 	
                           1587         ; c = (unsigned char)(tmp)*0xA5
   0034 74 A5              1588 	        mov a, #0xA5
   0036 85*00 F0           1589 	        mov b, _tmp
   0039 A4                 1590 	        mul ab
   003A F9                 1591 	        mov r1, a
                           1592 	
                           1593         ; m[0] = c
   003B 75 82 00           1594 	        mov dpl, #0x00
   003E 75 83 03           1595 	        mov dph, #(_m >> 8)
   0041 E9                 1596 	        mov a, r1
   0042 F0                 1597 	        movx @dptr, a
                           1598 	
                           1599         ; c*n0
   0043 8A F0              1600 	        mov b, r2
   0045 EB                 1601 	        mov a, r3
   0046 A4                 1602 	        mul ab
                           1603 	
                           1604         ; tmp = (unsigned char)(tmp) + c*n0
   0047 25*00              1605 	        add a, _tmp
   0049 F5*00              1606 	        mov _tmp, a
                           1607 	
                           1608         ; tmp = t + (tmp >> 8)
   004B E5 F0              1609 	        mov a, b
   004D 35*00              1610 	        addc a, _tmp
   004F F5*00              1611 	        mov _tmp, a
   0051 E4                 1612 	        clr a
   0052 35*01              1613 	        addc a, (_tmp + 1)
   0054 F5*01              1614 	        mov (_tmp + 1), a
                           1615 	
                           1616         ; t = tmp >> 8;
   0056 85*01*07           1617 	        mov _t, (_tmp + 1)
   0059 75*08 00           1618 	        mov (_t + 1), #0x00
                           1619 	
   005C D0*09              1620 	        pop _stack
   005E A9*09              1621 	        mov r1, _stack
                           1622 	    
                           1623 ;	main.c:114: for (i = 1; i < SIZE; i++) {
   0060 75*02 7F           1624 	mov	_i,#0x7F
   0063 E4                 1625 	clr	a
   0064 F5*03              1626 	mov	(_i + 1),a
   0066                    1627 00105$:
                           1628 ;	main.c:245: __endasm;
                           1629 	
   0066 89*09              1630 	            mov _stack, r1
   0068 C0*09              1631 	            push _stack
                           1632 	
   006A 75*04 00           1633 	            mov _j, #0x00
                           1634 	
   006D                    1635 	            00001$:
                           1636                 ; load a[j]
   006D 85*04 82           1637 	                mov dpl, _j
   0070 75 83s01           1638 	                mov dph, #(_a >> 8)
   0073 E0                 1639 	                movx a, @dptr
   0074 F5 F0              1640 	                mov b, a
                           1641 	
                           1642                 ; load b[i-j]
   0076 E5*02              1643 	                mov a, _i
   0078 C3                 1644 	                clr c
   0079 95*04              1645 	                subb a, _j
   007B F5 82              1646 	                mov dpl, a
   007D 75 83s02           1647 	                mov dph, #(_b >> 8)
   0080 E0                 1648 	                movx a, @dptr
                           1649 	
                           1650                 ; a[j]*b[i-j]
   0081 A4                 1651 	                mul ab
                           1652 	
                           1653                 ; tmp = (unsigned char)(tmp) + a[j]*b[i-j]
   0082 25*00              1654 	                add a, _tmp
   0084 F5*00              1655 	                mov _tmp, a
                           1656 	
                           1657                 ; t = t + (tmp >> 8)
   0086 E5 F0              1658 	                mov a, b
   0088 35*07              1659 	                addc a, _t
   008A F5*07              1660 	                mov _t, a
   008C E4                 1661 	                clr a
   008D 35*08              1662 	                addc a, (_t + 1)
   008F F5*08              1663 	                mov (_t + 1), a
                           1664 	
                           1665                 ; load m[j]
   0091 85*04 82           1666 	                mov dpl, _j
   0094 75 83 03           1667 	                mov dph, #(_m >> 8)
   0097 E0                 1668 	                movx a, @dptr
   0098 F5 F0              1669 	                mov b, a
                           1670 	
                           1671                 ; load n[i-j]
   009A E5*02              1672 	                mov a, _i
   009C C3                 1673 	                clr c
   009D 95*04              1674 	                subb a, _j
   009F F5 82              1675 	                mov dpl, a
   00A1 75 83s00           1676 	                mov dph, #(_n >> 8)
   00A4 E0                 1677 	                movx a, @dptr
                           1678 	
                           1679                 ; m[j]*n[i-j]
   00A5 A4                 1680 	                mul ab
                           1681 	
                           1682                 ; tmp = (unsigned char)(tmp) + m[j]*n[i-j]
   00A6 25*00              1683 	                add a, _tmp
   00A8 F5*00              1684 	                mov _tmp, a
                           1685 	
                           1686                 ; t = t + (tmp >> 8)
   00AA E5 F0              1687 	                mov a, b
   00AC 35*07              1688 	                addc a, _t
   00AE F5*07              1689 	                mov _t, a
   00B0 E4                 1690 	                clr a
   00B1 35*08              1691 	                addc a, (_t + 1)
   00B3 F5*08              1692 	                mov (_t + 1), a
                           1693 	
                           1694                 ; for (j = 1; i < j; j++)
   00B5 E5*02              1695 	                mov a, _i
   00B7 05*04              1696 	                inc _j
   00B9 95*04              1697 	                subb a, _j
   00BB 70 B0              1698 	                jnz 00001$
                           1699 	
                           1700             ; load a[i]
   00BD 85*02 82           1701 	            mov dpl, _i
   00C0 75 83s01           1702 	            mov dph, #(_a >> 8)
   00C3 E0                 1703 	            movx a, @dptr
   00C4 F5 F0              1704 	            mov b, a
                           1705 	
                           1706             ; load b0
   00C6 EB                 1707 	            mov a, r3
                           1708 	
                           1709             ; a[i]*b0
   00C7 A4                 1710 	            mul ab
                           1711 	
                           1712             ; tmp = (unsigned char)(tmp) + a[i]*b0
   00C8 25*00              1713 	            add a, _tmp
   00CA F5*00              1714 	            mov _tmp, a
                           1715 	
                           1716             ; t = t + (tmp >> 8)
   00CC E5 F0              1717 	            mov a, b
   00CE 35*07              1718 	            addc a, _t
   00D0 F5*07              1719 	            mov _t, a
   00D2 E4                 1720 	            clr a
   00D3 35*08              1721 	            addc a, (_t + 1)
   00D5 F5*08              1722 	            mov (_t + 1), a
                           1723 	
                           1724             ; c = (unsigned char)(tmp)*0xA5
   00D7 74 A5              1725 	            mov a, #0xA5
   00D9 85*00 F0           1726 	            mov b, _tmp
   00DC A4                 1727 	            mul ab
   00DD F9                 1728 	            mov r1, a
                           1729 	
                           1730             ; m[i] = c
   00DE 85*02 82           1731 	            mov dpl, _i
   00E1 75 83 03           1732 	            mov dph, #(_m >> 8)
   00E4 E9                 1733 	            mov a, r1
   00E5 F0                 1734 	            movx @dptr, a
                           1735 	
                           1736             ; c*n0
   00E6 8A F0              1737 	            mov b, r2
   00E8 EB                 1738 	            mov a, r3
   00E9 A4                 1739 	            mul ab
                           1740 	
                           1741             ; tmp = (unsigned char)(tmp) + c*n0
   00EA 25*00              1742 	            add a, _tmp
   00EC F5*00              1743 	            mov _tmp, a
                           1744 	
                           1745             ; tmp = t + (tmp >> 8)
   00EE E5 F0              1746 	            mov a, b
   00F0 35*00              1747 	            addc a, _tmp
   00F2 F5*00              1748 	            mov _tmp, a
   00F4 E4                 1749 	            clr a
   00F5 35*01              1750 	            addc a, (_tmp + 1)
   00F7 F5*01              1751 	            mov (_tmp + 1), a
                           1752 	
                           1753             ; t = tmp >> 8;
   00F9 85*01*07           1754 	            mov _t, (_tmp + 1)
   00FC 75*08 00           1755 	            mov (_t + 1), #0x00
                           1756 	
   00FF D0*09              1757 	            pop _stack
   0101 A9*09              1758 	            mov r1, _stack
                           1759 	        
   0103 15*02              1760 	dec	_i
   0105 74 FF              1761 	mov	a,#0xff
   0107 B5*02 02           1762 	cjne	a,_i,00129$
   010A 15*03              1763 	dec	(_i + 1)
   010C                    1764 00129$:
                           1765 ;	main.c:114: for (i = 1; i < SIZE; i++) {
   010C E5*02              1766 	mov	a,_i
   010E 45*03              1767 	orl	a,(_i + 1)
   0110 60 03              1768 	jz	00130$
   0112 02s00r66           1769 	ljmp	00105$
   0115                    1770 00130$:
                           1771 ;	main.c:248: for (i = SIZE; i < 2*SIZE; i++) {
   0115 75*02 80           1772 	mov	_i,#0x80
   0118 E4                 1773 	clr	a
   0119 F5*03              1774 	mov	(_i + 1),a
   011B                    1775 00106$:
   011B 74 FF              1776 	mov	a,#0x100 - 0x01
   011D 25*03              1777 	add	a,(_i + 1)
   011F 50 03              1778 	jnc	00131$
   0121 02s01rA1           1779 	ljmp	00109$
   0124                    1780 00131$:
                           1781 ;	main.c:320: __endasm;
                           1782 	
                           1783             ; j = i-128 +1
   0124 E5*02              1784 	            mov a, _i
   0126 94 80              1785 	            subb a, #0x80
   0128 04                 1786 	            inc a
   0129 F5*04              1787 	            mov _j, a
                           1788 	
   012B                    1789 	            00002$:
                           1790                 ; load a[j]
   012B 85*04 82           1791 	                mov dpl, _j
   012E 75 83s01           1792 	                mov dph, #(_a >> 8)
   0131 E0                 1793 	                movx a, @dptr
   0132 F5 F0              1794 	                mov b, a
                           1795 	
                           1796                 ; load b[i-j]
   0134 E5*02              1797 	                mov a, _i
   0136 C3                 1798 	                clr c
   0137 95*04              1799 	                subb a, _j
   0139 F5 82              1800 	                mov dpl, a
   013B 75 83s02           1801 	                mov dph, #(_b >> 8)
   013E E0                 1802 	                movx a, @dptr
                           1803 	
                           1804                 ; a[j]*b[i-j]
   013F A4                 1805 	                mul ab
                           1806 	
                           1807                 ; tmp = (unsigned char)(tmp) + a[j]*b[i-j]
   0140 25*00              1808 	                add a, _tmp
   0142 F5*00              1809 	                mov _tmp, a
                           1810 	
                           1811                 ; t = t + (tmp >> 8)
   0144 E5 F0              1812 	                mov a, b
   0146 35*07              1813 	                addc a, _t
   0148 F5*07              1814 	                mov _t, a
   014A E4                 1815 	                clr a
   014B 35*08              1816 	                addc a, (_t + 1)
   014D F5*08              1817 	                mov (_t + 1), a
                           1818 	
                           1819                 ; load m[j]
   014F 85*04 82           1820 	                mov dpl, _j
   0152 75 83 03           1821 	                mov dph, #(_m >> 8)
   0155 E0                 1822 	                movx a, @dptr
   0156 F5 F0              1823 	                mov b, a
                           1824 	
                           1825                 ; load n[i-j]
   0158 E5*02              1826 	                mov a, _i
   015A C3                 1827 	                clr c
   015B 95*04              1828 	                subb a, _j
   015D F5 82              1829 	                mov dpl, a
   015F 75 83s00           1830 	                mov dph, #(_n >> 8)
   0162 E0                 1831 	                movx a, @dptr
                           1832 	
                           1833                 ; a[j]*b[i-j]
   0163 A4                 1834 	                mul ab
                           1835 	
                           1836                 ; tmp = (unsigned char)(tmp) + m[j]*n[i-j]
   0164 25*00              1837 	                add a, _tmp
   0166 F5*00              1838 	                mov _tmp, a
                           1839 	
                           1840                 ; t = t + (tmp >> 8)
   0168 E5 F0              1841 	                mov a, b
   016A 35*07              1842 	                addc a, _t
   016C F5*07              1843 	                mov _t, a
   016E E4                 1844 	                clr a
   016F 35*08              1845 	                addc a, (_t + 1)
   0171 F5*08              1846 	                mov (_t + 1), a
                           1847 	
                           1848                 ; for (j = i-128 +1; j < 128; j++)
   0173 74 80              1849 	                mov a, #0x80
   0175 05*04              1850 	                inc _j
   0177 95*04              1851 	                subb a, _j
   0179 70 B0              1852 	                jnz 00002$
                           1853 	        
                           1854 ;	main.c:322: m[i-SIZE] = (unsigned char)(tmp);
   017B E5*02              1855 	mov	a,_i
   017D 24 80              1856 	add	a,#0x80+_m
   017F F5 82              1857 	mov	dpl,a
   0181 E4                 1858 	clr	a
   0182 34 03              1859 	addc	a,#(_m >> 8)
   0184 F5 83              1860 	mov	dph,a
   0186 E5*00              1861 	mov	a,_tmp
   0188 F0                 1862 	movx	@dptr,a
                           1863 ;	main.c:323: tmp = (unsigned char)(t);
   0189 AA*07              1864 	mov	r2,_t
   018B 8A*00              1865 	mov	_tmp,r2
   018D 75*01 00           1866 	mov	(_tmp + 1),#0x00
                           1867 ;	main.c:324: t = t >> 8;
   0190 85*08*07           1868 	mov	_t,(_t + 1)
   0193 75*08 00           1869 	mov	(_t + 1),#0x00
                           1870 ;	main.c:248: for (i = SIZE; i < 2*SIZE; i++) {
   0196 05*02              1871 	inc	_i
   0198 E4                 1872 	clr	a
   0199 B5*02 02           1873 	cjne	a,_i,00132$
   019C 05*03              1874 	inc	(_i + 1)
   019E                    1875 00132$:
   019E 02s01r1B           1876 	ljmp	00106$
   01A1                    1877 00109$:
                           1878 ;	main.c:327: m[SIZE] = tmp;
   01A1 AA*00              1879 	mov	r2,_tmp
   01A3 90 03 80           1880 	mov	dptr,#(_m + 0x0080)
   01A6 EA                 1881 	mov	a,r2
   01A7 F0                 1882 	movx	@dptr,a
                           1883 ;	main.c:328: tmp = m[0] - n0;
   01A8 90 03 00           1884 	mov	dptr,#_m
   01AB E0                 1885 	movx	a,@dptr
   01AC FA                 1886 	mov	r2,a
   01AD 7B 00              1887 	mov	r3,#0x00
   01AF AC*0A              1888 	mov	r4,_n0
   01B1 7D 00              1889 	mov	r5,#0x00
   01B3 EA                 1890 	mov	a,r2
   01B4 C3                 1891 	clr	c
   01B5 9C                 1892 	subb	a,r4
   01B6 F5*00              1893 	mov	_tmp,a
   01B8 EB                 1894 	mov	a,r3
   01B9 9D                 1895 	subb	a,r5
   01BA F5*01              1896 	mov	(_tmp + 1),a
                           1897 ;	main.c:330: for (i = 0; i < SIZE; i++) {
   01BC E4                 1898 	clr	a
   01BD F5*02              1899 	mov	_i,a
   01BF F5*03              1900 	mov	(_i + 1),a
   01C1                    1901 00110$:
   01C1 C3                 1902 	clr	c
   01C2 E5*02              1903 	mov	a,_i
   01C4 94 80              1904 	subb	a,#0x80
   01C6 E5*03              1905 	mov	a,(_i + 1)
   01C8 94 00              1906 	subb	a,#0x00
   01CA 50 45              1907 	jnc	00113$
                           1908 ;	main.c:331: tmp = m[i] - n[i] - (tmp >> 8);
   01CC 85*02 82           1909 	mov	dpl,_i
   01CF 74 03              1910 	mov	a,#(_m >> 8)
   01D1 25*03              1911 	add	a,(_i + 1)
   01D3 F5 83              1912 	mov	dph,a
   01D5 E0                 1913 	movx	a,@dptr
   01D6 FA                 1914 	mov	r2,a
   01D7 7B 00              1915 	mov	r3,#0x00
   01D9 85*02 82           1916 	mov	dpl,_i
   01DC 74s00              1917 	mov	a,#(_n >> 8)
   01DE 25*03              1918 	add	a,(_i + 1)
   01E0 F5 83              1919 	mov	dph,a
   01E2 E0                 1920 	movx	a,@dptr
   01E3 FC                 1921 	mov	r4,a
   01E4 7D 00              1922 	mov	r5,#0x00
   01E6 EA                 1923 	mov	a,r2
   01E7 C3                 1924 	clr	c
   01E8 9C                 1925 	subb	a,r4
   01E9 FA                 1926 	mov	r2,a
   01EA EB                 1927 	mov	a,r3
   01EB 9D                 1928 	subb	a,r5
   01EC FB                 1929 	mov	r3,a
   01ED AC*01              1930 	mov	r4,(_tmp + 1)
   01EF 7D 00              1931 	mov	r5,#0x00
   01F1 EA                 1932 	mov	a,r2
   01F2 C3                 1933 	clr	c
   01F3 9C                 1934 	subb	a,r4
   01F4 F5*00              1935 	mov	_tmp,a
   01F6 EB                 1936 	mov	a,r3
   01F7 9D                 1937 	subb	a,r5
   01F8 F5*01              1938 	mov	(_tmp + 1),a
                           1939 ;	main.c:332: u[i] = tmp;
   01FA 85*02 82           1940 	mov	dpl,_i
   01FD 74 04              1941 	mov	a,#(_u >> 8)
   01FF 25*03              1942 	add	a,(_i + 1)
   0201 F5 83              1943 	mov	dph,a
   0203 E5*00              1944 	mov	a,_tmp
   0205 FA                 1945 	mov	r2,a
   0206 F0                 1946 	movx	@dptr,a
                           1947 ;	main.c:330: for (i = 0; i < SIZE; i++) {
   0207 05*02              1948 	inc	_i
   0209 E4                 1949 	clr	a
   020A B5*02 B4           1950 	cjne	a,_i,00110$
   020D 05*03              1951 	inc	(_i + 1)
   020F 80 B0              1952 	sjmp	00110$
   0211                    1953 00113$:
                           1954 ;	main.c:335: if ((tmp >> 8) == 0) {
   0211 AA*01              1955 	mov	r2,(_tmp + 1)
   0213 7B 00              1956 	mov	r3,#0x00
   0215 EA                 1957 	mov	a,r2
   0216 4B                 1958 	orl	a,r3
                           1959 ;	main.c:336: for (i = 0; i < SIZE; i++) {
   0217 70 30              1960 	jnz	00102$
   0219 F5*02              1961 	mov	_i,a
   021B F5*03              1962 	mov	(_i + 1),a
   021D                    1963 00114$:
   021D C3                 1964 	clr	c
   021E E5*02              1965 	mov	a,_i
   0220 94 80              1966 	subb	a,#0x80
   0222 E5*03              1967 	mov	a,(_i + 1)
   0224 94 00              1968 	subb	a,#0x00
   0226 50 21              1969 	jnc	00102$
                           1970 ;	main.c:337: m[i] = u[i];
   0228 AA*02              1971 	mov	r2,_i
   022A 74 03              1972 	mov	a,#(_m >> 8)
   022C 25*03              1973 	add	a,(_i + 1)
   022E FB                 1974 	mov	r3,a
   022F 85*02 82           1975 	mov	dpl,_i
   0232 74 04              1976 	mov	a,#(_u >> 8)
   0234 25*03              1977 	add	a,(_i + 1)
   0236 F5 83              1978 	mov	dph,a
   0238 E0                 1979 	movx	a,@dptr
   0239 FC                 1980 	mov	r4,a
   023A 8A 82              1981 	mov	dpl,r2
   023C 8B 83              1982 	mov	dph,r3
   023E F0                 1983 	movx	@dptr,a
                           1984 ;	main.c:336: for (i = 0; i < SIZE; i++) {
   023F 05*02              1985 	inc	_i
   0241 E4                 1986 	clr	a
   0242 B5*02 D8           1987 	cjne	a,_i,00114$
   0245 05*03              1988 	inc	(_i + 1)
   0247 80 D4              1989 	sjmp	00114$
   0249                    1990 00102$:
                           1991 ;	main.c:341: endBrk=1;
   0249 90 FF FF           1992 	mov	dptr,#_endBrk
   024C 74 01              1993 	mov	a,#0x01
   024E F0                 1994 	movx	@dptr,a
                           1995 ;	main.c:343: return 0;
   024F 90 00 00           1996 	mov	dptr,#0x0000
   0252 22                 1997 	ret
                           1998 	.area CSEG    (CODE)
                           1999 	.area CONST   (CODE)
                           2000 	.area XINIT   (CODE)
                           2001 	.area CABS    (ABS,CODE)
